
gpu-sched.ko：     文件格式 elf64-littleaarch64


Disassembly of section .text:

0000000000000000 <drm_sched_job_timedout>:
drm_sched_job_timedout():
/data3/home/yuanqiliang/code/arm-kernel/drivers/gpu/drm/scheduler/gpu_scheduler.c:603
		schedule_delayed_work(&s_job->work_tdr, sched->timeout);
	spin_unlock(&sched->job_list_lock);
}

static void drm_sched_job_timedout(struct work_struct *work)
{
       0:	aa0003e1 	mov	x1, x0
       4:	a9bf7bfd 	stp	x29, x30, [sp, #-16]!
/data3/home/yuanqiliang/code/arm-kernel/drivers/gpu/drm/scheduler/gpu_scheduler.c:607
	struct drm_sched_job *job = container_of(work, struct drm_sched_job,
						 work_tdr.work);

	job->sched->ops->timedout_job(job);
       8:	d1018000 	sub	x0, x0, #0x60
/data3/home/yuanqiliang/code/arm-kernel/drivers/gpu/drm/scheduler/gpu_scheduler.c:603
{
       c:	910003fd 	mov	x29, sp
/data3/home/yuanqiliang/code/arm-kernel/drivers/gpu/drm/scheduler/gpu_scheduler.c:607
	job->sched->ops->timedout_job(job);
      10:	f85a8021 	ldur	x1, [x1, #-88]
      14:	f9400021 	ldr	x1, [x1]
      18:	f9400821 	ldr	x1, [x1, #16]
      1c:	d63f0020 	blr	x1
/data3/home/yuanqiliang/code/arm-kernel/drivers/gpu/drm/scheduler/gpu_scheduler.c:608
}
      20:	a8c17bfd 	ldp	x29, x30, [sp], #16
      24:	d65f03c0 	ret

0000000000000028 <perf_trace_drm_sched_job>:
perf_trace_drm_sched_job():
/data3/home/yuanqiliang/code/arm-kernel/./include/trace/../../drivers/gpu/drm/scheduler/gpu_scheduler_trace.h:37

#undef TRACE_SYSTEM
#define TRACE_SYSTEM gpu_scheduler
#define TRACE_INCLUDE_FILE gpu_scheduler_trace

TRACE_EVENT(drm_sched_job,
      28:	a9bb7bfd 	stp	x29, x30, [sp, #-80]!
      2c:	910003fd 	mov	x29, sp
      30:	a9025bf5 	stp	x21, x22, [sp, #32]
__my_cpu_offset():
/data3/home/yuanqiliang/code/arm-kernel/./arch/arm64/include/asm/percpu.h:30

	/*
	 * We want to allow caching the value, so avoid using volatile and
	 * instead use a fake stack read to hazard against barrier().
	 */
	asm(ALTERNATIVE("mrs %0, tpidr_el1",
      34:	d538d083 	mrs	x3, tpidr_el1
__read_once_size():
/data3/home/yuanqiliang/code/arm-kernel/./include/linux/compiler.h:193
})

static __always_inline
void __read_once_size(const volatile void *p, void *res, int size)
{
	__READ_ONCE_SIZE;
      38:	f9404005 	ldr	x5, [x0, #128]
perf_trace_drm_sched_job():
/data3/home/yuanqiliang/code/arm-kernel/./include/trace/../../drivers/gpu/drm/scheduler/gpu_scheduler_trace.h:37
      3c:	f9403c04 	ldr	x4, [x0, #120]
      40:	8b030096 	add	x22, x4, x3
      44:	b5000065 	cbnz	x5, 50 <perf_trace_drm_sched_job+0x28>
__read_once_size():
/data3/home/yuanqiliang/code/arm-kernel/./include/linux/compiler.h:193
      48:	f8636883 	ldr	x3, [x4, x3]
perf_trace_drm_sched_job():
/data3/home/yuanqiliang/code/arm-kernel/./include/trace/../../drivers/gpu/drm/scheduler/gpu_scheduler_trace.h:37
      4c:	b4000543 	cbz	x3, f4 <perf_trace_drm_sched_job+0xcc>
/data3/home/yuanqiliang/code/arm-kernel/./include/trace/../../drivers/gpu/drm/scheduler/gpu_scheduler_trace.h:37 (discriminator 8)
      50:	aa0203f5 	mov	x21, x2
      54:	910113a2 	add	x2, x29, #0x44
      58:	a90153b3 	stp	x19, x20, [x29, #16]
      5c:	aa0103f4 	mov	x20, x1
      60:	aa0003f3 	mov	x19, x0
      64:	910123a1 	add	x1, x29, #0x48
      68:	52800680 	mov	w0, #0x34                  	// #52
      6c:	f9001bb7 	str	x23, [x29, #48]
      70:	aa1e03f7 	mov	x23, x30
      74:	94000000 	bl	0 <perf_trace_buf_alloc>
      78:	b4000440 	cbz	x0, 100 <perf_trace_drm_sched_job+0xd8>
/data3/home/yuanqiliang/code/arm-kernel/./include/trace/../../drivers/gpu/drm/scheduler/gpu_scheduler_trace.h:37 (discriminator 11)
      7c:	f94027a1 	ldr	x1, [x29, #72]
perf_fetch_caller_regs():
/data3/home/yuanqiliang/code/arm-kernel/./include/linux/perf_event.h:1067 (discriminator 11)
 * - bp for callchains
 * - eflags, for future purposes, just in case
 */
static inline void perf_fetch_caller_regs(struct pt_regs *regs)
{
	perf_arch_fetch_caller_regs(regs, CALLER_ADDR0);
      80:	910003e3 	mov	x3, sp
      84:	d28000a4 	mov	x4, #0x5                   	// #5
perf_trace_drm_sched_job():
/data3/home/yuanqiliang/code/arm-kernel/./include/trace/../../drivers/gpu/drm/scheduler/gpu_scheduler_trace.h:37 (discriminator 11)
      88:	b94047a2 	ldr	w2, [x29, #68]
      8c:	aa0103e5 	mov	x5, x1
      90:	aa1603e6 	mov	x6, x22
perf_fetch_caller_regs():
/data3/home/yuanqiliang/code/arm-kernel/./include/linux/perf_event.h:1067 (discriminator 11)
      94:	f900743d 	str	x29, [x1, #232]
perf_trace_drm_sched_job():
/data3/home/yuanqiliang/code/arm-kernel/./include/trace/../../drivers/gpu/drm/scheduler/gpu_scheduler_trace.h:37 (discriminator 11)
      98:	d2800007 	mov	x7, #0x0                   	// #0
perf_fetch_caller_regs():
/data3/home/yuanqiliang/code/arm-kernel/./include/linux/perf_event.h:1067 (discriminator 11)
      9c:	a90fdc23 	stp	x3, x23, [x1, #248]
perf_trace_drm_sched_job():
/data3/home/yuanqiliang/code/arm-kernel/./include/trace/../../drivers/gpu/drm/scheduler/gpu_scheduler_trace.h:37 (discriminator 11)
      a0:	aa1303e3 	mov	x3, x19
perf_fetch_caller_regs():
/data3/home/yuanqiliang/code/arm-kernel/./include/linux/perf_event.h:1067 (discriminator 11)
      a4:	f9008424 	str	x4, [x1, #264]
perf_trace_drm_sched_job():
/data3/home/yuanqiliang/code/arm-kernel/./include/trace/../../drivers/gpu/drm/scheduler/gpu_scheduler_trace.h:37 (discriminator 11)
      a8:	d2800024 	mov	x4, #0x1                   	// #1
      ac:	f9000415 	str	x21, [x0, #8]
      b0:	52800681 	mov	w1, #0x34                  	// #52
      b4:	f9405e89 	ldr	x9, [x20, #184]
      b8:	f9001009 	str	x9, [x0, #32]
      bc:	f9400a89 	ldr	x9, [x20, #16]
      c0:	91018129 	add	x9, x9, #0x60
      c4:	f9000809 	str	x9, [x0, #16]
      c8:	f9400689 	ldr	x9, [x20, #8]
      cc:	f9400d29 	ldr	x9, [x9, #24]
      d0:	f9000c09 	str	x9, [x0, #24]
__read_once_size():
/data3/home/yuanqiliang/code/arm-kernel/./include/linux/compiler.h:193 (discriminator 11)
      d4:	b94032a9 	ldr	w9, [x21, #48]
perf_trace_drm_sched_job():
/data3/home/yuanqiliang/code/arm-kernel/./include/trace/../../drivers/gpu/drm/scheduler/gpu_scheduler_trace.h:37 (discriminator 11)
      d8:	b9002809 	str	w9, [x0, #40]
      dc:	f9400689 	ldr	x9, [x20, #8]
__read_once_size():
/data3/home/yuanqiliang/code/arm-kernel/./include/linux/compiler.h:193 (discriminator 11)
      e0:	b9411929 	ldr	w9, [x9, #280]
perf_trace_drm_sched_job():
/data3/home/yuanqiliang/code/arm-kernel/./include/trace/../../drivers/gpu/drm/scheduler/gpu_scheduler_trace.h:37 (discriminator 11)
      e4:	b9002c09 	str	w9, [x0, #44]
      e8:	94000000 	bl	0 <perf_trace_run_bpf_submit>
      ec:	a94153b3 	ldp	x19, x20, [x29, #16]
      f0:	f9401bb7 	ldr	x23, [x29, #48]
/data3/home/yuanqiliang/code/arm-kernel/./include/trace/../../drivers/gpu/drm/scheduler/gpu_scheduler_trace.h:37
      f4:	a9425bf5 	ldp	x21, x22, [sp, #32]
      f8:	a8c57bfd 	ldp	x29, x30, [sp], #80
      fc:	d65f03c0 	ret
     100:	a94153b3 	ldp	x19, x20, [x29, #16]
     104:	a9425bf5 	ldp	x21, x22, [sp, #32]
     108:	f9401bb7 	ldr	x23, [x29, #48]
     10c:	a8c57bfd 	ldp	x29, x30, [sp], #80
     110:	d65f03c0 	ret
     114:	d503201f 	nop

0000000000000118 <perf_trace_drm_sched_process_job>:
perf_trace_drm_sched_process_job():
/data3/home/yuanqiliang/code/arm-kernel/./include/trace/../../drivers/gpu/drm/scheduler/gpu_scheduler_trace.h:64
		      __entry->entity, __entry->id,
		      __entry->fence, __entry->name,
		      __entry->job_count, __entry->hw_job_count)
);

TRACE_EVENT(drm_sched_process_job,
     118:	a9bc7bfd 	stp	x29, x30, [sp, #-64]!
     11c:	910003fd 	mov	x29, sp
     120:	a9025bf5 	stp	x21, x22, [sp, #32]
__my_cpu_offset():
/data3/home/yuanqiliang/code/arm-kernel/./arch/arm64/include/asm/percpu.h:30
     124:	d538d083 	mrs	x3, tpidr_el1
__read_once_size():
/data3/home/yuanqiliang/code/arm-kernel/./include/linux/compiler.h:193
     128:	f9404004 	ldr	x4, [x0, #128]
perf_trace_drm_sched_process_job():
/data3/home/yuanqiliang/code/arm-kernel/./include/trace/../../drivers/gpu/drm/scheduler/gpu_scheduler_trace.h:64
     12c:	f9403c02 	ldr	x2, [x0, #120]
     130:	8b030056 	add	x22, x2, x3
     134:	b5000064 	cbnz	x4, 140 <perf_trace_drm_sched_process_job+0x28>
__read_once_size():
/data3/home/yuanqiliang/code/arm-kernel/./include/linux/compiler.h:193
     138:	f8636842 	ldr	x2, [x2, x3]
perf_trace_drm_sched_process_job():
/data3/home/yuanqiliang/code/arm-kernel/./include/trace/../../drivers/gpu/drm/scheduler/gpu_scheduler_trace.h:64
     13c:	b4000362 	cbz	x2, 1a8 <perf_trace_drm_sched_process_job+0x90>
/data3/home/yuanqiliang/code/arm-kernel/./include/trace/../../drivers/gpu/drm/scheduler/gpu_scheduler_trace.h:64 (discriminator 8)
     140:	aa1e03f5 	mov	x21, x30
     144:	9100d3a2 	add	x2, x29, #0x34
     148:	a90153b3 	stp	x19, x20, [x29, #16]
     14c:	aa0103f4 	mov	x20, x1
     150:	aa0003f3 	mov	x19, x0
     154:	9100e3a1 	add	x1, x29, #0x38
     158:	52800280 	mov	w0, #0x14                  	// #20
     15c:	94000000 	bl	0 <perf_trace_buf_alloc>
     160:	b40002a0 	cbz	x0, 1b4 <perf_trace_drm_sched_process_job+0x9c>
/data3/home/yuanqiliang/code/arm-kernel/./include/trace/../../drivers/gpu/drm/scheduler/gpu_scheduler_trace.h:64 (discriminator 11)
     164:	f9401fa4 	ldr	x4, [x29, #56]
perf_fetch_caller_regs():
/data3/home/yuanqiliang/code/arm-kernel/./include/linux/perf_event.h:1067 (discriminator 11)
     168:	910003e3 	mov	x3, sp
perf_trace_drm_sched_process_job():
/data3/home/yuanqiliang/code/arm-kernel/./include/trace/../../drivers/gpu/drm/scheduler/gpu_scheduler_trace.h:64 (discriminator 11)
     16c:	b94037a2 	ldr	w2, [x29, #52]
perf_fetch_caller_regs():
/data3/home/yuanqiliang/code/arm-kernel/./include/linux/perf_event.h:1067 (discriminator 11)
     170:	d28000a7 	mov	x7, #0x5                   	// #5
perf_trace_drm_sched_process_job():
/data3/home/yuanqiliang/code/arm-kernel/./include/trace/../../drivers/gpu/drm/scheduler/gpu_scheduler_trace.h:64 (discriminator 11)
     174:	91018281 	add	x1, x20, #0x60
     178:	aa0403e5 	mov	x5, x4
perf_fetch_caller_regs():
/data3/home/yuanqiliang/code/arm-kernel/./include/linux/perf_event.h:1067 (discriminator 11)
     17c:	f900749d 	str	x29, [x4, #232]
perf_trace_drm_sched_process_job():
/data3/home/yuanqiliang/code/arm-kernel/./include/trace/../../drivers/gpu/drm/scheduler/gpu_scheduler_trace.h:64 (discriminator 11)
     180:	aa1603e6 	mov	x6, x22
perf_fetch_caller_regs():
/data3/home/yuanqiliang/code/arm-kernel/./include/linux/perf_event.h:1067 (discriminator 11)
     184:	a90fd483 	stp	x3, x21, [x4, #248]
perf_trace_drm_sched_process_job():
/data3/home/yuanqiliang/code/arm-kernel/./include/trace/../../drivers/gpu/drm/scheduler/gpu_scheduler_trace.h:64 (discriminator 11)
     188:	aa1303e3 	mov	x3, x19
perf_fetch_caller_regs():
/data3/home/yuanqiliang/code/arm-kernel/./include/linux/perf_event.h:1067 (discriminator 11)
     18c:	f9008487 	str	x7, [x4, #264]
perf_trace_drm_sched_process_job():
/data3/home/yuanqiliang/code/arm-kernel/./include/trace/../../drivers/gpu/drm/scheduler/gpu_scheduler_trace.h:64 (discriminator 11)
     190:	d2800007 	mov	x7, #0x0                   	// #0
     194:	f9000401 	str	x1, [x0, #8]
     198:	d2800024 	mov	x4, #0x1                   	// #1
     19c:	52800281 	mov	w1, #0x14                  	// #20
     1a0:	94000000 	bl	0 <perf_trace_run_bpf_submit>
     1a4:	a94153b3 	ldp	x19, x20, [x29, #16]
/data3/home/yuanqiliang/code/arm-kernel/./include/trace/../../drivers/gpu/drm/scheduler/gpu_scheduler_trace.h:64
     1a8:	a9425bf5 	ldp	x21, x22, [sp, #32]
     1ac:	a8c47bfd 	ldp	x29, x30, [sp], #64
     1b0:	d65f03c0 	ret
     1b4:	a94153b3 	ldp	x19, x20, [x29, #16]
     1b8:	a9425bf5 	ldp	x21, x22, [sp, #32]
     1bc:	a8c47bfd 	ldp	x29, x30, [sp], #64
     1c0:	d65f03c0 	ret
     1c4:	d503201f 	nop

00000000000001c8 <trace_event_raw_event_drm_sched_job>:
trace_event_raw_event_drm_sched_job():
/data3/home/yuanqiliang/code/arm-kernel/./include/trace/../../drivers/gpu/drm/scheduler/gpu_scheduler_trace.h:37
TRACE_EVENT(drm_sched_job,
     1c8:	a9ba7bfd 	stp	x29, x30, [sp, #-96]!
     1cc:	910003fd 	mov	x29, sp
     1d0:	a90153f3 	stp	x19, x20, [sp, #16]
     1d4:	aa0103f4 	mov	x20, x1
     1d8:	a9025bf5 	stp	x21, x22, [sp, #32]
     1dc:	aa0003f5 	mov	x21, x0
     1e0:	aa0203f6 	mov	x22, x2
trace_trigger_soft_disabled():
/data3/home/yuanqiliang/code/arm-kernel/./include/linux/trace_events.h:454
 * otherwise false.
 */
static inline bool
trace_trigger_soft_disabled(struct trace_event_file *file)
{
	unsigned long eflags = file->flags;
     1e4:	f9402413 	ldr	x19, [x0, #72]
/data3/home/yuanqiliang/code/arm-kernel/./include/linux/trace_events.h:456

	if (!(eflags & EVENT_FILE_FL_TRIGGER_COND)) {
     1e8:	37400093 	tbnz	w19, #8, 1f8 <trace_event_raw_event_drm_sched_job+0x30>
/data3/home/yuanqiliang/code/arm-kernel/./include/linux/trace_events.h:457
		if (eflags & EVENT_FILE_FL_TRIGGER_MODE)
     1ec:	373803b3 	tbnz	w19, #7, 260 <trace_event_raw_event_drm_sched_job+0x98>
/data3/home/yuanqiliang/code/arm-kernel/./include/linux/trace_events.h:459
			event_triggers_call(file, NULL, NULL);
		if (eflags & EVENT_FILE_FL_SOFT_DISABLED)
     1f0:	37300313 	tbnz	w19, #6, 250 <trace_event_raw_event_drm_sched_job+0x88>
/data3/home/yuanqiliang/code/arm-kernel/./include/linux/trace_events.h:461
			return true;
		if (eflags & EVENT_FILE_FL_PID_FILTER)
     1f4:	374803f3 	tbnz	w19, #9, 270 <trace_event_raw_event_drm_sched_job+0xa8>
trace_event_raw_event_drm_sched_job():
/data3/home/yuanqiliang/code/arm-kernel/./include/trace/../../drivers/gpu/drm/scheduler/gpu_scheduler_trace.h:37
     1f8:	aa1503e1 	mov	x1, x21
     1fc:	9100c3e0 	add	x0, sp, #0x30
     200:	d2800602 	mov	x2, #0x30                  	// #48
     204:	94000000 	bl	0 <trace_event_buffer_reserve>
     208:	aa0003e1 	mov	x1, x0
     20c:	b4000220 	cbz	x0, 250 <trace_event_raw_event_drm_sched_job+0x88>
/data3/home/yuanqiliang/code/arm-kernel/./include/trace/../../drivers/gpu/drm/scheduler/gpu_scheduler_trace.h:37 (discriminator 5)
     210:	f9000436 	str	x22, [x1, #8]
     214:	9100c3e0 	add	x0, sp, #0x30
     218:	f9405e82 	ldr	x2, [x20, #184]
     21c:	f9001022 	str	x2, [x1, #32]
     220:	f9400a82 	ldr	x2, [x20, #16]
     224:	91018042 	add	x2, x2, #0x60
     228:	f9000822 	str	x2, [x1, #16]
     22c:	f9400682 	ldr	x2, [x20, #8]
     230:	f9400c42 	ldr	x2, [x2, #24]
     234:	f9000c22 	str	x2, [x1, #24]
__read_once_size():
/data3/home/yuanqiliang/code/arm-kernel/./include/linux/compiler.h:193 (discriminator 5)
     238:	b94032c2 	ldr	w2, [x22, #48]
trace_event_raw_event_drm_sched_job():
/data3/home/yuanqiliang/code/arm-kernel/./include/trace/../../drivers/gpu/drm/scheduler/gpu_scheduler_trace.h:37 (discriminator 5)
     23c:	b9002822 	str	w2, [x1, #40]
     240:	f9400682 	ldr	x2, [x20, #8]
__read_once_size():
/data3/home/yuanqiliang/code/arm-kernel/./include/linux/compiler.h:193 (discriminator 5)
     244:	b9411842 	ldr	w2, [x2, #280]
trace_event_raw_event_drm_sched_job():
/data3/home/yuanqiliang/code/arm-kernel/./include/trace/../../drivers/gpu/drm/scheduler/gpu_scheduler_trace.h:37 (discriminator 5)
     248:	b9002c22 	str	w2, [x1, #44]
     24c:	94000000 	bl	0 <trace_event_buffer_commit>
/data3/home/yuanqiliang/code/arm-kernel/./include/trace/../../drivers/gpu/drm/scheduler/gpu_scheduler_trace.h:37
     250:	a94153f3 	ldp	x19, x20, [sp, #16]
     254:	a9425bf5 	ldp	x21, x22, [sp, #32]
     258:	a8c67bfd 	ldp	x29, x30, [sp], #96
     25c:	d65f03c0 	ret
trace_trigger_soft_disabled():
/data3/home/yuanqiliang/code/arm-kernel/./include/linux/trace_events.h:458
			event_triggers_call(file, NULL, NULL);
     260:	d2800002 	mov	x2, #0x0                   	// #0
     264:	d2800001 	mov	x1, #0x0                   	// #0
     268:	94000000 	bl	0 <event_triggers_call>
     26c:	17ffffe1 	b	1f0 <trace_event_raw_event_drm_sched_job+0x28>
/data3/home/yuanqiliang/code/arm-kernel/./include/linux/trace_events.h:462
			return trace_event_ignore_this_pid(file);
     270:	aa1503e0 	mov	x0, x21
     274:	94000000 	bl	0 <trace_event_ignore_this_pid>
trace_event_raw_event_drm_sched_job():
/data3/home/yuanqiliang/code/arm-kernel/./include/trace/../../drivers/gpu/drm/scheduler/gpu_scheduler_trace.h:37
     278:	72001c1f 	tst	w0, #0xff
     27c:	54fffbe0 	b.eq	1f8 <trace_event_raw_event_drm_sched_job+0x30>  // b.none
     280:	17fffff4 	b	250 <trace_event_raw_event_drm_sched_job+0x88>
     284:	d503201f 	nop

0000000000000288 <trace_event_raw_event_drm_sched_process_job>:
trace_event_raw_event_drm_sched_process_job():
/data3/home/yuanqiliang/code/arm-kernel/./include/trace/../../drivers/gpu/drm/scheduler/gpu_scheduler_trace.h:64
TRACE_EVENT(drm_sched_process_job,
     288:	a9ba7bfd 	stp	x29, x30, [sp, #-96]!
     28c:	910003fd 	mov	x29, sp
     290:	a90153f3 	stp	x19, x20, [sp, #16]
     294:	aa0003f4 	mov	x20, x0
     298:	f90013f5 	str	x21, [sp, #32]
     29c:	aa0103f5 	mov	x21, x1
trace_trigger_soft_disabled():
/data3/home/yuanqiliang/code/arm-kernel/./include/linux/trace_events.h:454
	unsigned long eflags = file->flags;
     2a0:	f9402413 	ldr	x19, [x0, #72]
/data3/home/yuanqiliang/code/arm-kernel/./include/linux/trace_events.h:456
	if (!(eflags & EVENT_FILE_FL_TRIGGER_COND)) {
     2a4:	37400093 	tbnz	w19, #8, 2b4 <trace_event_raw_event_drm_sched_process_job+0x2c>
/data3/home/yuanqiliang/code/arm-kernel/./include/linux/trace_events.h:457
		if (eflags & EVENT_FILE_FL_TRIGGER_MODE)
     2a8:	37380213 	tbnz	w19, #7, 2e8 <trace_event_raw_event_drm_sched_process_job+0x60>
/data3/home/yuanqiliang/code/arm-kernel/./include/linux/trace_events.h:459
		if (eflags & EVENT_FILE_FL_SOFT_DISABLED)
     2ac:	37300173 	tbnz	w19, #6, 2d8 <trace_event_raw_event_drm_sched_process_job+0x50>
/data3/home/yuanqiliang/code/arm-kernel/./include/linux/trace_events.h:461
		if (eflags & EVENT_FILE_FL_PID_FILTER)
     2b0:	37480253 	tbnz	w19, #9, 2f8 <trace_event_raw_event_drm_sched_process_job+0x70>
trace_event_raw_event_drm_sched_process_job():
/data3/home/yuanqiliang/code/arm-kernel/./include/trace/../../drivers/gpu/drm/scheduler/gpu_scheduler_trace.h:64
     2b4:	aa1403e1 	mov	x1, x20
     2b8:	9100c3e0 	add	x0, sp, #0x30
     2bc:	d2800202 	mov	x2, #0x10                  	// #16
     2c0:	94000000 	bl	0 <trace_event_buffer_reserve>
     2c4:	b40000a0 	cbz	x0, 2d8 <trace_event_raw_event_drm_sched_process_job+0x50>
/data3/home/yuanqiliang/code/arm-kernel/./include/trace/../../drivers/gpu/drm/scheduler/gpu_scheduler_trace.h:64 (discriminator 5)
     2c8:	910182b5 	add	x21, x21, #0x60
     2cc:	f9000415 	str	x21, [x0, #8]
     2d0:	9100c3e0 	add	x0, sp, #0x30
     2d4:	94000000 	bl	0 <trace_event_buffer_commit>
/data3/home/yuanqiliang/code/arm-kernel/./include/trace/../../drivers/gpu/drm/scheduler/gpu_scheduler_trace.h:64
     2d8:	a94153f3 	ldp	x19, x20, [sp, #16]
     2dc:	f94013f5 	ldr	x21, [sp, #32]
     2e0:	a8c67bfd 	ldp	x29, x30, [sp], #96
     2e4:	d65f03c0 	ret
trace_trigger_soft_disabled():
/data3/home/yuanqiliang/code/arm-kernel/./include/linux/trace_events.h:458
			event_triggers_call(file, NULL, NULL);
     2e8:	d2800002 	mov	x2, #0x0                   	// #0
     2ec:	d2800001 	mov	x1, #0x0                   	// #0
     2f0:	94000000 	bl	0 <event_triggers_call>
     2f4:	17ffffee 	b	2ac <trace_event_raw_event_drm_sched_process_job+0x24>
/data3/home/yuanqiliang/code/arm-kernel/./include/linux/trace_events.h:462
			return trace_event_ignore_this_pid(file);
     2f8:	aa1403e0 	mov	x0, x20
     2fc:	94000000 	bl	0 <trace_event_ignore_this_pid>
trace_event_raw_event_drm_sched_process_job():
/data3/home/yuanqiliang/code/arm-kernel/./include/trace/../../drivers/gpu/drm/scheduler/gpu_scheduler_trace.h:64
     300:	72001c1f 	tst	w0, #0xff
     304:	54fffd80 	b.eq	2b4 <trace_event_raw_event_drm_sched_process_job+0x2c>  // b.none
     308:	17fffff4 	b	2d8 <trace_event_raw_event_drm_sched_process_job+0x50>
     30c:	d503201f 	nop

0000000000000310 <trace_raw_output_drm_sched_job>:
trace_raw_output_drm_sched_job():
/data3/home/yuanqiliang/code/arm-kernel/./include/trace/../../drivers/gpu/drm/scheduler/gpu_scheduler_trace.h:37
TRACE_EVENT(drm_sched_job,
     310:	a9be7bfd 	stp	x29, x30, [sp, #-32]!
     314:	aa0203e1 	mov	x1, x2
     318:	910003fd 	mov	x29, sp
     31c:	a90153f3 	stp	x19, x20, [sp, #16]
     320:	aa0003f3 	mov	x19, x0
     324:	f9506814 	ldr	x20, [x0, #8400]
     328:	94000000 	bl	0 <trace_raw_output_prep>
     32c:	7100041f 	cmp	w0, #0x1
     330:	54000080 	b.eq	340 <trace_raw_output_drm_sched_job+0x30>  // b.none
     334:	a94153f3 	ldp	x19, x20, [sp, #16]
     338:	a8c27bfd 	ldp	x29, x30, [sp], #32
     33c:	d65f03c0 	ret
/data3/home/yuanqiliang/code/arm-kernel/./include/trace/../../drivers/gpu/drm/scheduler/gpu_scheduler_trace.h:37 (discriminator 2)
     340:	a9409282 	ldp	x2, x4, [x20, #8]
     344:	90000001 	adrp	x1, 0 <drm_sched_job_timedout>
     348:	a9418e85 	ldp	x5, x3, [x20, #24]
     34c:	91000021 	add	x1, x1, #0x0
     350:	29451e86 	ldp	w6, w7, [x20, #40]
     354:	d2821500 	mov	x0, #0x10a8                	// #4264
     358:	8b000273 	add	x19, x19, x0
     35c:	aa1303e0 	mov	x0, x19
     360:	94000000 	bl	0 <trace_seq_printf>
     364:	aa1303e0 	mov	x0, x19
     368:	94000000 	bl	0 <trace_handle_return>
     36c:	a94153f3 	ldp	x19, x20, [sp, #16]
     370:	a8c27bfd 	ldp	x29, x30, [sp], #32
     374:	d65f03c0 	ret

0000000000000378 <trace_raw_output_drm_sched_process_job>:
trace_raw_output_drm_sched_process_job():
/data3/home/yuanqiliang/code/arm-kernel/./include/trace/../../drivers/gpu/drm/scheduler/gpu_scheduler_trace.h:64
TRACE_EVENT(drm_sched_process_job,
     378:	a9be7bfd 	stp	x29, x30, [sp, #-32]!
     37c:	aa0203e1 	mov	x1, x2
     380:	910003fd 	mov	x29, sp
     384:	a90153f3 	stp	x19, x20, [sp, #16]
     388:	aa0003f3 	mov	x19, x0
     38c:	f9506814 	ldr	x20, [x0, #8400]
     390:	94000000 	bl	0 <trace_raw_output_prep>
     394:	7100041f 	cmp	w0, #0x1
     398:	54000080 	b.eq	3a8 <trace_raw_output_drm_sched_process_job+0x30>  // b.none
     39c:	a94153f3 	ldp	x19, x20, [sp, #16]
     3a0:	a8c27bfd 	ldp	x29, x30, [sp], #32
     3a4:	d65f03c0 	ret
/data3/home/yuanqiliang/code/arm-kernel/./include/trace/../../drivers/gpu/drm/scheduler/gpu_scheduler_trace.h:64 (discriminator 2)
     3a8:	f9400682 	ldr	x2, [x20, #8]
     3ac:	90000001 	adrp	x1, 0 <drm_sched_job_timedout>
     3b0:	91000021 	add	x1, x1, #0x0
     3b4:	d2821500 	mov	x0, #0x10a8                	// #4264
     3b8:	8b000273 	add	x19, x19, x0
     3bc:	aa1303e0 	mov	x0, x19
     3c0:	94000000 	bl	0 <trace_seq_printf>
     3c4:	aa1303e0 	mov	x0, x19
     3c8:	94000000 	bl	0 <trace_handle_return>
     3cc:	a94153f3 	ldp	x19, x20, [sp, #16]
     3d0:	a8c27bfd 	ldp	x29, x30, [sp], #32
     3d4:	d65f03c0 	ret

00000000000003d8 <__bpf_trace_drm_sched_job>:
__bpf_trace_drm_sched_job():
/data3/home/yuanqiliang/code/arm-kernel/./include/trace/../../drivers/gpu/drm/scheduler/gpu_scheduler_trace.h:37
TRACE_EVENT(drm_sched_job,
     3d8:	a9bf7bfd 	stp	x29, x30, [sp, #-16]!
     3dc:	910003fd 	mov	x29, sp
     3e0:	94000000 	bl	0 <bpf_trace_run2>
     3e4:	a8c17bfd 	ldp	x29, x30, [sp], #16
     3e8:	d65f03c0 	ret
     3ec:	d503201f 	nop

00000000000003f0 <__bpf_trace_drm_sched_process_job>:
__bpf_trace_drm_sched_process_job():
/data3/home/yuanqiliang/code/arm-kernel/./include/trace/../../drivers/gpu/drm/scheduler/gpu_scheduler_trace.h:64
TRACE_EVENT(drm_sched_process_job,
     3f0:	a9bf7bfd 	stp	x29, x30, [sp, #-16]!
     3f4:	910003fd 	mov	x29, sp
     3f8:	94000000 	bl	0 <bpf_trace_run1>
     3fc:	a8c17bfd 	ldp	x29, x30, [sp], #16
     400:	d65f03c0 	ret
     404:	d503201f 	nop

0000000000000408 <drm_sched_entity_init>:
drm_sched_entity_init():
/data3/home/yuanqiliang/code/arm-kernel/drivers/gpu/drm/scheduler/gpu_scheduler.c:182
	if (!(entity && rq_list && num_rq_list > 0 && rq_list[0]))
     408:	f100003f 	cmp	x1, #0x0
     40c:	7a401844 	ccmp	w2, #0x0, #0x4, ne  // ne = any
     410:	fa401804 	ccmp	x0, #0x0, #0x4, ne  // ne = any
     414:	54000420 	b.eq	498 <drm_sched_entity_init+0x90>  // b.none
/data3/home/yuanqiliang/code/arm-kernel/drivers/gpu/drm/scheduler/gpu_scheduler.c:182 (discriminator 2)
     418:	f9400022 	ldr	x2, [x1]
     41c:	b40003e2 	cbz	x2, 498 <drm_sched_entity_init+0x90>
/data3/home/yuanqiliang/code/arm-kernel/drivers/gpu/drm/scheduler/gpu_scheduler.c:181
{
     420:	a9be7bfd 	stp	x29, x30, [sp, #-32]!
spsc_queue_init():
/data3/home/yuanqiliang/code/arm-kernel/./include/drm/spsc_queue.h:50
	atomic_t job_count;
};

static inline void spsc_queue_init(struct spsc_queue *queue)
{
	queue->head = NULL;
     424:	91008002 	add	x2, x0, #0x20
drm_sched_entity_init():
/data3/home/yuanqiliang/code/arm-kernel/drivers/gpu/drm/scheduler/gpu_scheduler.c:181
     428:	910003fd 	mov	x29, sp
     42c:	f9000bf3 	str	x19, [sp, #16]
     430:	aa0003f3 	mov	x19, x0
/data3/home/yuanqiliang/code/arm-kernel/drivers/gpu/drm/scheduler/gpu_scheduler.c:195
	entity->fence_context = dma_fence_context_alloc(2);
     434:	52800040 	mov	w0, #0x2                   	// #2
__write_once_size():
/data3/home/yuanqiliang/code/arm-kernel/./include/linux/compiler.h:220
{
	switch (size) {
	case 1: *(volatile __u8 *)p = *(__u8 *)res; break;
	case 2: *(volatile __u16 *)p = *(__u16 *)res; break;
	case 4: *(volatile __u32 *)p = *(__u32 *)res; break;
	case 8: *(volatile __u64 *)p = *(__u64 *)res; break;
     438:	f9000273 	str	x19, [x19]
INIT_LIST_HEAD():
/data3/home/yuanqiliang/code/arm-kernel/./include/linux/list.h:29
	struct list_head name = LIST_HEAD_INIT(name)

static inline void INIT_LIST_HEAD(struct list_head *list)
{
	WRITE_ONCE(list->next, list);
	list->prev = list;
     43c:	f9000673 	str	x19, [x19, #8]
drm_sched_entity_init():
/data3/home/yuanqiliang/code/arm-kernel/drivers/gpu/drm/scheduler/gpu_scheduler.c:185
	memset(entity, 0, sizeof(struct drm_sched_entity));
     440:	a9017e7f 	stp	xzr, xzr, [x19, #16]
     444:	a9027e7f 	stp	xzr, xzr, [x19, #32]
     448:	a9037e7f 	stp	xzr, xzr, [x19, #48]
     44c:	a9047e7f 	stp	xzr, xzr, [x19, #64]
     450:	a9057e7f 	stp	xzr, xzr, [x19, #80]
     454:	a9067e7f 	stp	xzr, xzr, [x19, #96]
     458:	a9077e7f 	stp	xzr, xzr, [x19, #112]
/data3/home/yuanqiliang/code/arm-kernel/drivers/gpu/drm/scheduler/gpu_scheduler.c:187
	entity->rq = rq_list[0];
     45c:	f9400021 	ldr	x1, [x1]
__write_once_size():
/data3/home/yuanqiliang/code/arm-kernel/./include/linux/compiler.h:220
     460:	f9001662 	str	x2, [x19, #40]
/data3/home/yuanqiliang/code/arm-kernel/./include/linux/compiler.h:219
	case 4: *(volatile __u32 *)p = *(__u32 *)res; break;
     464:	b900327f 	str	wzr, [x19, #48]
drm_sched_entity_init():
/data3/home/yuanqiliang/code/arm-kernel/drivers/gpu/drm/scheduler/gpu_scheduler.c:187
     468:	f9000a61 	str	x1, [x19, #16]
/data3/home/yuanqiliang/code/arm-kernel/drivers/gpu/drm/scheduler/gpu_scheduler.c:191
	spin_lock_init(&entity->rq_lock);
     46c:	b9001a7f 	str	wzr, [x19, #24]
spsc_queue_init():
/data3/home/yuanqiliang/code/arm-kernel/./include/drm/spsc_queue.h:50
     470:	f900127f 	str	xzr, [x19, #32]
__write_once_size():
/data3/home/yuanqiliang/code/arm-kernel/./include/linux/compiler.h:219
     474:	b9003a7f 	str	wzr, [x19, #56]
drm_sched_entity_init():
/data3/home/yuanqiliang/code/arm-kernel/drivers/gpu/drm/scheduler/gpu_scheduler.c:189
	entity->last_scheduled = NULL;
     478:	a906fe63 	stp	x3, xzr, [x19, #104]
/data3/home/yuanqiliang/code/arm-kernel/drivers/gpu/drm/scheduler/gpu_scheduler.c:195
	entity->fence_context = dma_fence_context_alloc(2);
     47c:	94000000 	bl	0 <dma_fence_context_alloc>
     480:	f9002260 	str	x0, [x19, #64]
/data3/home/yuanqiliang/code/arm-kernel/drivers/gpu/drm/scheduler/gpu_scheduler.c:197
	return 0;
     484:	52800001 	mov	w1, #0x0                   	// #0
/data3/home/yuanqiliang/code/arm-kernel/drivers/gpu/drm/scheduler/gpu_scheduler.c:198
}
     488:	2a0103e0 	mov	w0, w1
     48c:	f9400bf3 	ldr	x19, [sp, #16]
     490:	a8c27bfd 	ldp	x29, x30, [sp], #32
     494:	d65f03c0 	ret
/data3/home/yuanqiliang/code/arm-kernel/drivers/gpu/drm/scheduler/gpu_scheduler.c:183
		return -EINVAL;
     498:	128002a1 	mov	w1, #0xffffffea            	// #-22
/data3/home/yuanqiliang/code/arm-kernel/drivers/gpu/drm/scheduler/gpu_scheduler.c:198
}
     49c:	2a0103e0 	mov	w0, w1
     4a0:	d65f03c0 	ret
     4a4:	d503201f 	nop

00000000000004a8 <drm_sched_rq_add_entity>:
__read_once_size():
/data3/home/yuanqiliang/code/arm-kernel/./include/linux/compiler.h:193
	__READ_ONCE_SIZE;
     4a8:	f9400022 	ldr	x2, [x1]
drm_sched_rq_add_entity():
/data3/home/yuanqiliang/code/arm-kernel/drivers/gpu/drm/scheduler/gpu_scheduler.c:92
	if (!list_empty(&entity->list))
     4ac:	eb02003f 	cmp	x1, x2
     4b0:	54000040 	b.eq	4b8 <drm_sched_rq_add_entity+0x10>  // b.none
     4b4:	d65f03c0 	ret
/data3/home/yuanqiliang/code/arm-kernel/drivers/gpu/drm/scheduler/gpu_scheduler.c:91
{
     4b8:	a9be7bfd 	stp	x29, x30, [sp, #-32]!
     4bc:	910003fd 	mov	x29, sp
     4c0:	a90153f3 	stp	x19, x20, [sp, #16]
     4c4:	aa0003f4 	mov	x20, x0
     4c8:	aa0103f3 	mov	x19, x1
__cmpxchg_case_acq_4():
/data3/home/yuanqiliang/code/arm-kernel/./arch/arm64/include/asm/atomic_ll_sc.h:272
__CMPXCHG_CASE(w, h,     2,        ,  ,  ,         )
__CMPXCHG_CASE(w,  ,     4,        ,  ,  ,         )
__CMPXCHG_CASE( ,  ,     8,        ,  ,  ,         )
__CMPXCHG_CASE(w, b, acq_1,        , a,  , "memory")
__CMPXCHG_CASE(w, h, acq_2,        , a,  , "memory")
__CMPXCHG_CASE(w,  , acq_4,        , a,  , "memory")
     4cc:	d2800002 	mov	x2, #0x0                   	// #0
     4d0:	d2800023 	mov	x3, #0x1                   	// #1
     4d4:	f9800011 	prfm	pstl1strm, [x0]
     4d8:	885ffc01 	ldaxr	w1, [x0]
     4dc:	4a020024 	eor	w4, w1, w2
     4e0:	35000064 	cbnz	w4, 4ec <drm_sched_rq_add_entity+0x44>
     4e4:	88047c03 	stxr	w4, w3, [x0]
     4e8:	35ffff84 	cbnz	w4, 4d8 <drm_sched_rq_add_entity+0x30>
queued_spin_lock():
/data3/home/yuanqiliang/code/arm-kernel/./include/asm-generic/qspinlock.h:86
static __always_inline void queued_spin_lock(struct qspinlock *lock)
{
	u32 val;

	val = atomic_cmpxchg_acquire(&lock->val, 0, _Q_LOCKED_VAL);
	if (likely(val == 0))
     4ec:	35000161 	cbnz	w1, 518 <drm_sched_rq_add_entity+0x70>
list_add_tail():
/data3/home/yuanqiliang/code/arm-kernel/./include/linux/list.h:93
 * Insert a new entry before the specified head.
 * This is useful for implementing queues.
 */
static inline void list_add_tail(struct list_head *new, struct list_head *head)
{
	__list_add(new, head->prev, head);
     4f0:	f9400e80 	ldr	x0, [x20, #24]
__list_add():
/data3/home/yuanqiliang/code/arm-kernel/./include/linux/list.h:63
	next->prev = new;
     4f4:	f9000e93 	str	x19, [x20, #24]
drm_sched_rq_add_entity():
/data3/home/yuanqiliang/code/arm-kernel/drivers/gpu/drm/scheduler/gpu_scheduler.c:95
	list_add_tail(&entity->list, &rq->entities);
     4f8:	91004281 	add	x1, x20, #0x10
__list_add():
/data3/home/yuanqiliang/code/arm-kernel/./include/linux/list.h:65
	new->prev = prev;
     4fc:	a9000261 	stp	x1, x0, [x19]
queued_spin_unlock():
/data3/home/yuanqiliang/code/arm-kernel/./include/asm-generic/qspinlock.h:101
static __always_inline void queued_spin_unlock(struct qspinlock *lock)
{
	/*
	 * unlock() needs release semantics:
	 */
	smp_store_release(&lock->locked, 0);
     500:	52800001 	mov	w1, #0x0                   	// #0
__write_once_size():
/data3/home/yuanqiliang/code/arm-kernel/./include/linux/compiler.h:220
	case 8: *(volatile __u64 *)p = *(__u64 *)res; break;
     504:	f9000013 	str	x19, [x0]
queued_spin_unlock():
/data3/home/yuanqiliang/code/arm-kernel/./include/asm-generic/qspinlock.h:101
     508:	089ffe81 	stlrb	w1, [x20]
drm_sched_rq_add_entity():
/data3/home/yuanqiliang/code/arm-kernel/drivers/gpu/drm/scheduler/gpu_scheduler.c:97
}
     50c:	a94153f3 	ldp	x19, x20, [sp, #16]
     510:	a8c27bfd 	ldp	x29, x30, [sp], #32
     514:	d65f03c0 	ret
queued_spin_lock():
/data3/home/yuanqiliang/code/arm-kernel/./include/asm-generic/qspinlock.h:88
	queued_spin_lock_slowpath(lock, val);
     518:	94000000 	bl	0 <queued_spin_lock_slowpath>
     51c:	17fffff5 	b	4f0 <drm_sched_rq_add_entity+0x48>

0000000000000520 <drm_sched_rq_remove_entity>:
__read_once_size():
/data3/home/yuanqiliang/code/arm-kernel/./include/linux/compiler.h:193
	__READ_ONCE_SIZE;
     520:	f9400022 	ldr	x2, [x1]
drm_sched_rq_remove_entity():
/data3/home/yuanqiliang/code/arm-kernel/drivers/gpu/drm/scheduler/gpu_scheduler.c:110
	if (list_empty(&entity->list))
     524:	eb02003f 	cmp	x1, x2
     528:	54000440 	b.eq	5b0 <drm_sched_rq_remove_entity+0x90>  // b.none
/data3/home/yuanqiliang/code/arm-kernel/drivers/gpu/drm/scheduler/gpu_scheduler.c:109
{
     52c:	a9be7bfd 	stp	x29, x30, [sp, #-32]!
     530:	910003fd 	mov	x29, sp
     534:	a90153f3 	stp	x19, x20, [sp, #16]
     538:	aa0003f4 	mov	x20, x0
     53c:	aa0103f3 	mov	x19, x1
__cmpxchg_case_acq_4():
/data3/home/yuanqiliang/code/arm-kernel/./arch/arm64/include/asm/atomic_ll_sc.h:272
     540:	d2800002 	mov	x2, #0x0                   	// #0
     544:	d2800023 	mov	x3, #0x1                   	// #1
     548:	f9800011 	prfm	pstl1strm, [x0]
     54c:	885ffc01 	ldaxr	w1, [x0]
     550:	4a020024 	eor	w4, w1, w2
     554:	35000064 	cbnz	w4, 560 <drm_sched_rq_remove_entity+0x40>
     558:	88047c03 	stxr	w4, w3, [x0]
     55c:	35ffff84 	cbnz	w4, 54c <drm_sched_rq_remove_entity+0x2c>
queued_spin_lock():
/data3/home/yuanqiliang/code/arm-kernel/./include/asm-generic/qspinlock.h:86
	if (likely(val == 0))
     560:	350002a1 	cbnz	w1, 5b4 <drm_sched_rq_remove_entity+0x94>
__list_del_entry():
/data3/home/yuanqiliang/code/arm-kernel/./include/linux/list.h:120
static inline void __list_del_entry(struct list_head *entry)
{
	if (!__list_del_entry_valid(entry))
		return;

	__list_del(entry->prev, entry->next);
     564:	a9400261 	ldp	x1, x0, [x19]
__list_del():
/data3/home/yuanqiliang/code/arm-kernel/./include/linux/list.h:105
	next->prev = prev;
     568:	f9000420 	str	x0, [x1, #8]
__write_once_size():
/data3/home/yuanqiliang/code/arm-kernel/./include/linux/compiler.h:220
	case 8: *(volatile __u64 *)p = *(__u64 *)res; break;
     56c:	f9000001 	str	x1, [x0]
     570:	f9000273 	str	x19, [x19]
INIT_LIST_HEAD():
/data3/home/yuanqiliang/code/arm-kernel/./include/linux/list.h:29
	list->prev = list;
     574:	f9000673 	str	x19, [x19, #8]
drm_sched_rq_remove_entity():
/data3/home/yuanqiliang/code/arm-kernel/drivers/gpu/drm/scheduler/gpu_scheduler.c:114
	if (rq->current_entity == entity)
     578:	f9401280 	ldr	x0, [x20, #32]
     57c:	eb13001f 	cmp	x0, x19
     580:	540000c0 	b.eq	598 <drm_sched_rq_remove_entity+0x78>  // b.none
queued_spin_unlock():
/data3/home/yuanqiliang/code/arm-kernel/./include/asm-generic/qspinlock.h:101
	smp_store_release(&lock->locked, 0);
     584:	52800000 	mov	w0, #0x0                   	// #0
     588:	089ffe80 	stlrb	w0, [x20]
drm_sched_rq_remove_entity():
/data3/home/yuanqiliang/code/arm-kernel/drivers/gpu/drm/scheduler/gpu_scheduler.c:117
}
     58c:	a94153f3 	ldp	x19, x20, [sp, #16]
     590:	a8c27bfd 	ldp	x29, x30, [sp], #32
     594:	d65f03c0 	ret
queued_spin_unlock():
/data3/home/yuanqiliang/code/arm-kernel/./include/asm-generic/qspinlock.h:101
     598:	52800000 	mov	w0, #0x0                   	// #0
drm_sched_rq_remove_entity():
/data3/home/yuanqiliang/code/arm-kernel/drivers/gpu/drm/scheduler/gpu_scheduler.c:115
		rq->current_entity = NULL;
     59c:	f900129f 	str	xzr, [x20, #32]
queued_spin_unlock():
/data3/home/yuanqiliang/code/arm-kernel/./include/asm-generic/qspinlock.h:101
     5a0:	089ffe80 	stlrb	w0, [x20]
drm_sched_rq_remove_entity():
/data3/home/yuanqiliang/code/arm-kernel/drivers/gpu/drm/scheduler/gpu_scheduler.c:117
}
     5a4:	a94153f3 	ldp	x19, x20, [sp, #16]
     5a8:	a8c27bfd 	ldp	x29, x30, [sp], #32
     5ac:	d65f03c0 	ret
     5b0:	d65f03c0 	ret
queued_spin_lock():
/data3/home/yuanqiliang/code/arm-kernel/./include/asm-generic/qspinlock.h:88
	queued_spin_lock_slowpath(lock, val);
     5b4:	94000000 	bl	0 <queued_spin_lock_slowpath>
     5b8:	17ffffeb 	b	564 <drm_sched_rq_remove_entity+0x44>
drm_sched_rq_remove_entity():
/data3/home/yuanqiliang/code/arm-kernel/./include/asm-generic/qspinlock.h:88
     5bc:	d503201f 	nop

00000000000005c0 <drm_sched_entity_flush>:
drm_sched_entity_flush():
/data3/home/yuanqiliang/code/arm-kernel/drivers/gpu/drm/scheduler/gpu_scheduler.c:261
{
     5c0:	a9ba7bfd 	stp	x29, x30, [sp, #-96]!
     5c4:	910003fd 	mov	x29, sp
     5c8:	a90153f3 	stp	x19, x20, [sp, #16]
     5cc:	aa0003f3 	mov	x19, x0
     5d0:	aa0103f4 	mov	x20, x1
     5d4:	a9025bf5 	stp	x21, x22, [sp, #32]
get_current():
/data3/home/yuanqiliang/code/arm-kernel/./arch/arm64/include/asm/current.h:19
 */
static __always_inline struct task_struct *get_current(void)
{
	unsigned long sp_el0;

	asm ("mrs %0, sp_el0" : "=r" (sp_el0));
     5d8:	d5384100 	mrs	x0, sp_el0
drm_sched_entity_flush():
/data3/home/yuanqiliang/code/arm-kernel/drivers/gpu/drm/scheduler/gpu_scheduler.c:271
	if (current->flags & PF_EXITING) {
     5dc:	b9402c00 	ldr	w0, [x0, #44]
/data3/home/yuanqiliang/code/arm-kernel/drivers/gpu/drm/scheduler/gpu_scheduler.c:266
	sched = entity->rq->sched;
     5e0:	f9400a61 	ldr	x1, [x19, #16]
     5e4:	f9400435 	ldr	x21, [x1, #8]
/data3/home/yuanqiliang/code/arm-kernel/drivers/gpu/drm/scheduler/gpu_scheduler.c:271
	if (current->flags & PF_EXITING) {
     5e8:	36100840 	tbz	w0, #2, 6f0 <drm_sched_entity_flush+0x130>
/data3/home/yuanqiliang/code/arm-kernel/drivers/gpu/drm/scheduler/gpu_scheduler.c:272
		if (timeout)
     5ec:	b5000414 	cbnz	x20, 66c <drm_sched_entity_flush+0xac>
get_current():
/data3/home/yuanqiliang/code/arm-kernel/./arch/arm64/include/asm/current.h:19
     5f0:	d5384103 	mrs	x3, sp_el0
__cmpxchg_case_mb_8():
/data3/home/yuanqiliang/code/arm-kernel/./arch/arm64/include/asm/atomic_ll_sc.h:281
__CMPXCHG_CASE(w,  , rel_4,        ,  , l, "memory")
__CMPXCHG_CASE( ,  , rel_8,        ,  , l, "memory")
__CMPXCHG_CASE(w, b,  mb_1, dmb ish,  , l, "memory")
__CMPXCHG_CASE(w, h,  mb_2, dmb ish,  , l, "memory")
__CMPXCHG_CASE(w,  ,  mb_4, dmb ish,  , l, "memory")
__CMPXCHG_CASE( ,  ,  mb_8, dmb ish,  , l, "memory")
     5f4:	d2800001 	mov	x1, #0x0                   	// #0
     5f8:	9101e265 	add	x5, x19, #0x78
     5fc:	f9423860 	ldr	x0, [x3, #1136]
     600:	f98000b1 	prfm	pstl1strm, [x5]
     604:	c85f7ca2 	ldxr	x2, [x5]
     608:	ca000044 	eor	x4, x2, x0
     60c:	b5000084 	cbnz	x4, 61c <drm_sched_entity_flush+0x5c>
     610:	c804fca1 	stlxr	w4, x1, [x5]
     614:	35ffff84 	cbnz	w4, 604 <drm_sched_entity_flush+0x44>
     618:	d5033bbf 	dmb	ish
drm_sched_entity_flush():
/data3/home/yuanqiliang/code/arm-kernel/drivers/gpu/drm/scheduler/gpu_scheduler.c:283
	if ((!last_user || last_user == current->group_leader) &&
     61c:	b5000182 	cbnz	x2, 64c <drm_sched_entity_flush+0x8c>
get_current():
/data3/home/yuanqiliang/code/arm-kernel/./arch/arm64/include/asm/current.h:19 (discriminator 3)
     620:	d5384100 	mrs	x0, sp_el0
drm_sched_entity_flush():
/data3/home/yuanqiliang/code/arm-kernel/drivers/gpu/drm/scheduler/gpu_scheduler.c:284 (discriminator 3)
	    (current->flags & PF_EXITING) && (current->exit_code == SIGKILL))
     624:	b9402c01 	ldr	w1, [x0, #44]
/data3/home/yuanqiliang/code/arm-kernel/drivers/gpu/drm/scheduler/gpu_scheduler.c:283 (discriminator 3)
	if ((!last_user || last_user == current->group_leader) &&
     628:	36100081 	tbz	w1, #2, 638 <drm_sched_entity_flush+0x78>
/data3/home/yuanqiliang/code/arm-kernel/drivers/gpu/drm/scheduler/gpu_scheduler.c:284
	    (current->flags & PF_EXITING) && (current->exit_code == SIGKILL))
     62c:	b943d800 	ldr	w0, [x0, #984]
     630:	7100241f 	cmp	w0, #0x9
     634:	54000a00 	b.eq	774 <drm_sched_entity_flush+0x1b4>  // b.none
/data3/home/yuanqiliang/code/arm-kernel/drivers/gpu/drm/scheduler/gpu_scheduler.c:288
}
     638:	aa1403e0 	mov	x0, x20
     63c:	a94153f3 	ldp	x19, x20, [sp, #16]
     640:	a9425bf5 	ldp	x21, x22, [sp, #32]
     644:	a8c67bfd 	ldp	x29, x30, [sp], #96
     648:	d65f03c0 	ret
/data3/home/yuanqiliang/code/arm-kernel/drivers/gpu/drm/scheduler/gpu_scheduler.c:283
	if ((!last_user || last_user == current->group_leader) &&
     64c:	f9423860 	ldr	x0, [x3, #1136]
     650:	eb02001f 	cmp	x0, x2
     654:	54fffe60 	b.eq	620 <drm_sched_entity_flush+0x60>  // b.none
/data3/home/yuanqiliang/code/arm-kernel/drivers/gpu/drm/scheduler/gpu_scheduler.c:288
}
     658:	aa1403e0 	mov	x0, x20
     65c:	a94153f3 	ldp	x19, x20, [sp, #16]
     660:	a9425bf5 	ldp	x21, x22, [sp, #32]
     664:	a8c67bfd 	ldp	x29, x30, [sp], #96
     668:	d65f03c0 	ret
/data3/home/yuanqiliang/code/arm-kernel/drivers/gpu/drm/scheduler/gpu_scheduler.c:273
			ret = wait_event_timeout(
     66c:	94000000 	bl	0 <_cond_resched>
drm_sched_entity_is_idle():
/data3/home/yuanqiliang/code/arm-kernel/drivers/gpu/drm/scheduler/gpu_scheduler.c:210
	rmb();
     670:	d5033d9f 	dsb	ld
__read_once_size():
/data3/home/yuanqiliang/code/arm-kernel/./include/linux/compiler.h:193
	__READ_ONCE_SIZE;
     674:	f9400260 	ldr	x0, [x19]
drm_sched_entity_is_idle():
/data3/home/yuanqiliang/code/arm-kernel/drivers/gpu/drm/scheduler/gpu_scheduler.c:212
	if (list_empty(&entity->list) ||
     678:	eb00027f 	cmp	x19, x0
     67c:	54fffba0 	b.eq	5f0 <drm_sched_entity_flush+0x30>  // b.none
     680:	f9401260 	ldr	x0, [x19, #32]
     684:	b4fffb60 	cbz	x0, 5f0 <drm_sched_entity_flush+0x30>
drm_sched_entity_flush():
/data3/home/yuanqiliang/code/arm-kernel/drivers/gpu/drm/scheduler/gpu_scheduler.c:273
			ret = wait_event_timeout(
     688:	9100e3f6 	add	x22, sp, #0x38
     68c:	910402b5 	add	x21, x21, #0x100
     690:	aa1603e0 	mov	x0, x22
     694:	52800001 	mov	w1, #0x0                   	// #0
     698:	94000000 	bl	0 <init_wait_entry>
     69c:	14000006 	b	6b4 <drm_sched_entity_flush+0xf4>
drm_sched_entity_is_idle():
/data3/home/yuanqiliang/code/arm-kernel/drivers/gpu/drm/scheduler/gpu_scheduler.c:212
	if (list_empty(&entity->list) ||
     6a0:	f9401261 	ldr	x1, [x19, #32]
     6a4:	b40001a1 	cbz	x1, 6d8 <drm_sched_entity_flush+0x118>
drm_sched_entity_flush():
/data3/home/yuanqiliang/code/arm-kernel/drivers/gpu/drm/scheduler/gpu_scheduler.c:273
			ret = wait_event_timeout(
     6a8:	b40001d4 	cbz	x20, 6e0 <drm_sched_entity_flush+0x120>
/data3/home/yuanqiliang/code/arm-kernel/drivers/gpu/drm/scheduler/gpu_scheduler.c:273 (discriminator 13)
     6ac:	94000000 	bl	0 <schedule_timeout>
     6b0:	aa0003f4 	mov	x20, x0
/data3/home/yuanqiliang/code/arm-kernel/drivers/gpu/drm/scheduler/gpu_scheduler.c:273 (discriminator 15)
     6b4:	52800042 	mov	w2, #0x2                   	// #2
     6b8:	aa1603e1 	mov	x1, x22
     6bc:	aa1503e0 	mov	x0, x21
     6c0:	94000000 	bl	0 <prepare_to_wait_event>
drm_sched_entity_is_idle():
/data3/home/yuanqiliang/code/arm-kernel/drivers/gpu/drm/scheduler/gpu_scheduler.c:210 (discriminator 15)
	rmb();
     6c4:	d5033d9f 	dsb	ld
__read_once_size():
/data3/home/yuanqiliang/code/arm-kernel/./include/linux/compiler.h:193 (discriminator 15)
     6c8:	f9400261 	ldr	x1, [x19]
drm_sched_entity_flush():
/data3/home/yuanqiliang/code/arm-kernel/drivers/gpu/drm/scheduler/gpu_scheduler.c:273 (discriminator 15)
			ret = wait_event_timeout(
     6cc:	aa1403e0 	mov	x0, x20
drm_sched_entity_is_idle():
/data3/home/yuanqiliang/code/arm-kernel/drivers/gpu/drm/scheduler/gpu_scheduler.c:212 (discriminator 15)
	if (list_empty(&entity->list) ||
     6d0:	eb01027f 	cmp	x19, x1
     6d4:	54fffe61 	b.ne	6a0 <drm_sched_entity_flush+0xe0>  // b.any
drm_sched_entity_flush():
/data3/home/yuanqiliang/code/arm-kernel/drivers/gpu/drm/scheduler/gpu_scheduler.c:273
			ret = wait_event_timeout(
     6d8:	f100029f 	cmp	x20, #0x0
     6dc:	9a9f1694 	csinc	x20, x20, xzr, ne  // ne = any
/data3/home/yuanqiliang/code/arm-kernel/drivers/gpu/drm/scheduler/gpu_scheduler.c:278
		wait_event_killable(sched->job_scheduled, drm_sched_entity_is_idle(entity));
     6e0:	aa1603e1 	mov	x1, x22
     6e4:	aa1503e0 	mov	x0, x21
     6e8:	94000000 	bl	0 <finish_wait>
     6ec:	17ffffc1 	b	5f0 <drm_sched_entity_flush+0x30>
     6f0:	94000000 	bl	0 <_cond_resched>
drm_sched_entity_is_idle():
/data3/home/yuanqiliang/code/arm-kernel/drivers/gpu/drm/scheduler/gpu_scheduler.c:210
	rmb();
     6f4:	d5033d9f 	dsb	ld
__read_once_size():
/data3/home/yuanqiliang/code/arm-kernel/./include/linux/compiler.h:193
     6f8:	f9400260 	ldr	x0, [x19]
drm_sched_entity_is_idle():
/data3/home/yuanqiliang/code/arm-kernel/drivers/gpu/drm/scheduler/gpu_scheduler.c:212
	if (list_empty(&entity->list) ||
     6fc:	eb00027f 	cmp	x19, x0
     700:	54fff780 	b.eq	5f0 <drm_sched_entity_flush+0x30>  // b.none
     704:	f9401260 	ldr	x0, [x19, #32]
     708:	b4fff740 	cbz	x0, 5f0 <drm_sched_entity_flush+0x30>
drm_sched_entity_flush():
/data3/home/yuanqiliang/code/arm-kernel/drivers/gpu/drm/scheduler/gpu_scheduler.c:278
		wait_event_killable(sched->job_scheduled, drm_sched_entity_is_idle(entity));
     70c:	9100e3f6 	add	x22, sp, #0x38
     710:	910402b5 	add	x21, x21, #0x100
     714:	aa1603e0 	mov	x0, x22
     718:	52800001 	mov	w1, #0x0                   	// #0
     71c:	94000000 	bl	0 <init_wait_entry>
     720:	52802042 	mov	w2, #0x102                 	// #258
     724:	aa1603e1 	mov	x1, x22
     728:	aa1503e0 	mov	x0, x21
     72c:	94000000 	bl	0 <prepare_to_wait_event>
drm_sched_entity_is_idle():
/data3/home/yuanqiliang/code/arm-kernel/drivers/gpu/drm/scheduler/gpu_scheduler.c:210
	rmb();
     730:	d5033d9f 	dsb	ld
__read_once_size():
/data3/home/yuanqiliang/code/arm-kernel/./include/linux/compiler.h:193
     734:	f9400261 	ldr	x1, [x19]
drm_sched_entity_is_idle():
/data3/home/yuanqiliang/code/arm-kernel/drivers/gpu/drm/scheduler/gpu_scheduler.c:212
	if (list_empty(&entity->list) ||
     738:	eb01027f 	cmp	x19, x1
     73c:	54fffd20 	b.eq	6e0 <drm_sched_entity_flush+0x120>  // b.none
     740:	f9401261 	ldr	x1, [x19, #32]
     744:	b4fffce1 	cbz	x1, 6e0 <drm_sched_entity_flush+0x120>
drm_sched_entity_flush():
/data3/home/yuanqiliang/code/arm-kernel/drivers/gpu/drm/scheduler/gpu_scheduler.c:278
		wait_event_killable(sched->job_scheduled, drm_sched_entity_is_idle(entity));
     748:	b5fff540 	cbnz	x0, 5f0 <drm_sched_entity_flush+0x30>
/data3/home/yuanqiliang/code/arm-kernel/drivers/gpu/drm/scheduler/gpu_scheduler.c:278 (discriminator 7)
     74c:	94000000 	bl	0 <schedule>
     750:	52802042 	mov	w2, #0x102                 	// #258
     754:	aa1603e1 	mov	x1, x22
     758:	aa1503e0 	mov	x0, x21
     75c:	94000000 	bl	0 <prepare_to_wait_event>
drm_sched_entity_is_idle():
/data3/home/yuanqiliang/code/arm-kernel/drivers/gpu/drm/scheduler/gpu_scheduler.c:210 (discriminator 7)
	rmb();
     760:	d5033d9f 	dsb	ld
__read_once_size():
/data3/home/yuanqiliang/code/arm-kernel/./include/linux/compiler.h:193 (discriminator 7)
     764:	f9400261 	ldr	x1, [x19]
drm_sched_entity_is_idle():
/data3/home/yuanqiliang/code/arm-kernel/drivers/gpu/drm/scheduler/gpu_scheduler.c:212 (discriminator 7)
	if (list_empty(&entity->list) ||
     768:	eb01027f 	cmp	x19, x1
     76c:	54fffea1 	b.ne	740 <drm_sched_entity_flush+0x180>  // b.any
     770:	17ffffdc 	b	6e0 <drm_sched_entity_flush+0x120>
drm_sched_entity_flush():
/data3/home/yuanqiliang/code/arm-kernel/drivers/gpu/drm/scheduler/gpu_scheduler.c:285
		drm_sched_rq_remove_entity(entity->rq, entity);
     774:	f9400a60 	ldr	x0, [x19, #16]
     778:	aa1303e1 	mov	x1, x19
     77c:	97ffff69 	bl	520 <drm_sched_rq_remove_entity>
/data3/home/yuanqiliang/code/arm-kernel/drivers/gpu/drm/scheduler/gpu_scheduler.c:287
	return ret;
     780:	17ffffae 	b	638 <drm_sched_entity_flush+0x78>
     784:	d503201f 	nop

0000000000000788 <drm_sched_select_entity>:
drm_sched_select_entity():
/data3/home/yuanqiliang/code/arm-kernel/drivers/gpu/drm/scheduler/gpu_scheduler.c:783
 *
 * Returns the entity to process or NULL if none are found.
 */
static struct drm_sched_entity *
drm_sched_select_entity(struct drm_gpu_scheduler *sched)
{
     788:	a9bc7bfd 	stp	x29, x30, [sp, #-64]!
     78c:	910003fd 	mov	x29, sp
     790:	a90153f3 	stp	x19, x20, [sp, #16]
     794:	91034013 	add	x19, x0, #0xd0
     798:	a90363f7 	stp	x23, x24, [sp, #48]
     79c:	91002018 	add	x24, x0, #0x8
__read_once_size():
/data3/home/yuanqiliang/code/arm-kernel/./include/linux/compiler.h:193
     7a0:	b9411801 	ldr	w1, [x0, #280]
drm_sched_select_entity():
/data3/home/yuanqiliang/code/arm-kernel/drivers/gpu/drm/scheduler/gpu_scheduler.c:787
	struct drm_sched_entity *entity;
	int i;

	if (!drm_sched_ready(sched))
     7a4:	b9400800 	ldr	w0, [x0, #8]
     7a8:	6b00003f 	cmp	w1, w0
     7ac:	540003a2 	b.cs	820 <drm_sched_select_entity+0x98>  // b.hs, b.nlast
__cmpxchg_case_acq_4():
/data3/home/yuanqiliang/code/arm-kernel/./arch/arm64/include/asm/atomic_ll_sc.h:272
__CMPXCHG_CASE(w,  , acq_4,        , a,  , "memory")
     7b0:	d2800034 	mov	x20, #0x1                   	// #1
queued_spin_unlock():
/data3/home/yuanqiliang/code/arm-kernel/./include/asm-generic/qspinlock.h:101
	smp_store_release(&lock->locked, 0);
     7b4:	52800017 	mov	w23, #0x0                   	// #0
     7b8:	a9025bf5 	stp	x21, x22, [sp, #32]
__cmpxchg_case_acq_4():
/data3/home/yuanqiliang/code/arm-kernel/./arch/arm64/include/asm/atomic_ll_sc.h:272
     7bc:	d2800015 	mov	x21, #0x0                   	// #0
drm_sched_select_entity():
/data3/home/yuanqiliang/code/arm-kernel/drivers/gpu/drm/scheduler/gpu_scheduler.c:792
		return NULL;

	/* Kernel run queue has higher priority than normal run queue*/
	for (i = DRM_SCHED_PRIORITY_MAX - 1; i >= DRM_SCHED_PRIORITY_MIN; i--) {
		entity = drm_sched_rq_select_entity(&sched->sched_rq[i]);
     7c0:	d1004276 	sub	x22, x19, #0x10
__cmpxchg_case_acq_4():
/data3/home/yuanqiliang/code/arm-kernel/./arch/arm64/include/asm/atomic_ll_sc.h:272
     7c4:	f98002d1 	prfm	pstl1strm, [x22]
     7c8:	885ffec1 	ldaxr	w1, [x22]
     7cc:	4a150020 	eor	w0, w1, w21
     7d0:	35000060 	cbnz	w0, 7dc <drm_sched_select_entity+0x54>
     7d4:	88007ed4 	stxr	w0, w20, [x22]
     7d8:	35ffff80 	cbnz	w0, 7c8 <drm_sched_select_entity+0x40>
queued_spin_lock():
/data3/home/yuanqiliang/code/arm-kernel/./include/asm-generic/qspinlock.h:86
	if (likely(val == 0))
     7dc:	350004e1 	cbnz	w1, 878 <drm_sched_select_entity+0xf0>
drm_sched_rq_select_entity():
/data3/home/yuanqiliang/code/arm-kernel/drivers/gpu/drm/scheduler/gpu_scheduler.c:133
	entity = rq->current_entity;
     7e0:	f9400a61 	ldr	x1, [x19, #16]
/data3/home/yuanqiliang/code/arm-kernel/drivers/gpu/drm/scheduler/gpu_scheduler.c:134
	if (entity) {
     7e4:	b40002e1 	cbz	x1, 840 <drm_sched_select_entity+0xb8>
/data3/home/yuanqiliang/code/arm-kernel/drivers/gpu/drm/scheduler/gpu_scheduler.c:135
		list_for_each_entry_continue(entity, &rq->entities, list) {
     7e8:	f9400020 	ldr	x0, [x1]
     7ec:	eb13001f 	cmp	x0, x19
     7f0:	54000280 	b.eq	840 <drm_sched_select_entity+0xb8>  // b.none
drm_sched_entity_is_ready():
/data3/home/yuanqiliang/code/arm-kernel/drivers/gpu/drm/scheduler/gpu_scheduler.c:228
	if (spsc_queue_peek(&entity->job_queue) == NULL)
     7f4:	f9401002 	ldr	x2, [x0, #32]
     7f8:	b40001e2 	cbz	x2, 834 <drm_sched_select_entity+0xac>
__read_once_size():
/data3/home/yuanqiliang/code/arm-kernel/./include/linux/compiler.h:193
     7fc:	f9402402 	ldr	x2, [x0, #72]
drm_sched_entity_is_ready():
/data3/home/yuanqiliang/code/arm-kernel/drivers/gpu/drm/scheduler/gpu_scheduler.c:231
	if (READ_ONCE(entity->dependency))
     800:	b50001a2 	cbnz	x2, 834 <drm_sched_select_entity+0xac>
drm_sched_rq_select_entity():
/data3/home/yuanqiliang/code/arm-kernel/drivers/gpu/drm/scheduler/gpu_scheduler.c:147
			rq->current_entity = entity;
     804:	f9000a60 	str	x0, [x19, #16]
queued_spin_unlock():
/data3/home/yuanqiliang/code/arm-kernel/./include/asm-generic/qspinlock.h:101
	smp_store_release(&lock->locked, 0);
     808:	089ffed7 	stlrb	w23, [x22]
drm_sched_select_entity():
/data3/home/yuanqiliang/code/arm-kernel/drivers/gpu/drm/scheduler/gpu_scheduler.c:793
		if (entity)
     80c:	b50003c0 	cbnz	x0, 884 <drm_sched_select_entity+0xfc>
     810:	d100a273 	sub	x19, x19, #0x28
/data3/home/yuanqiliang/code/arm-kernel/drivers/gpu/drm/scheduler/gpu_scheduler.c:791 (discriminator 2)
	for (i = DRM_SCHED_PRIORITY_MAX - 1; i >= DRM_SCHED_PRIORITY_MIN; i--) {
     814:	eb13031f 	cmp	x24, x19
     818:	54fffd41 	b.ne	7c0 <drm_sched_select_entity+0x38>  // b.any
     81c:	a9425bf5 	ldp	x21, x22, [sp, #32]
/data3/home/yuanqiliang/code/arm-kernel/drivers/gpu/drm/scheduler/gpu_scheduler.c:788
		return NULL;
     820:	d2800000 	mov	x0, #0x0                   	// #0
/data3/home/yuanqiliang/code/arm-kernel/drivers/gpu/drm/scheduler/gpu_scheduler.c:798
			break;
	}

	return entity;
}
     824:	a94153f3 	ldp	x19, x20, [sp, #16]
     828:	a94363f7 	ldp	x23, x24, [sp, #48]
     82c:	a8c47bfd 	ldp	x29, x30, [sp], #64
     830:	d65f03c0 	ret
drm_sched_rq_select_entity():
/data3/home/yuanqiliang/code/arm-kernel/drivers/gpu/drm/scheduler/gpu_scheduler.c:135
		list_for_each_entry_continue(entity, &rq->entities, list) {
     834:	f9400000 	ldr	x0, [x0]
     838:	eb13001f 	cmp	x0, x19
     83c:	54fffdc1 	b.ne	7f4 <drm_sched_select_entity+0x6c>  // b.any
/data3/home/yuanqiliang/code/arm-kernel/drivers/gpu/drm/scheduler/gpu_scheduler.c:144
	list_for_each_entry(entity, &rq->entities, list) {
     840:	f9400260 	ldr	x0, [x19]
     844:	eb13001f 	cmp	x0, x19
     848:	54000140 	b.eq	870 <drm_sched_select_entity+0xe8>  // b.none
drm_sched_entity_is_ready():
/data3/home/yuanqiliang/code/arm-kernel/drivers/gpu/drm/scheduler/gpu_scheduler.c:228
	if (spsc_queue_peek(&entity->job_queue) == NULL)
     84c:	f9401002 	ldr	x2, [x0, #32]
drm_sched_rq_select_entity():
/data3/home/yuanqiliang/code/arm-kernel/drivers/gpu/drm/scheduler/gpu_scheduler.c:152
		if (entity == rq->current_entity)
     850:	eb01001f 	cmp	x0, x1
drm_sched_entity_is_ready():
/data3/home/yuanqiliang/code/arm-kernel/drivers/gpu/drm/scheduler/gpu_scheduler.c:228
	if (spsc_queue_peek(&entity->job_queue) == NULL)
     854:	b4000062 	cbz	x2, 860 <drm_sched_select_entity+0xd8>
__read_once_size():
/data3/home/yuanqiliang/code/arm-kernel/./include/linux/compiler.h:193
     858:	f9402402 	ldr	x2, [x0, #72]
drm_sched_entity_is_ready():
/data3/home/yuanqiliang/code/arm-kernel/drivers/gpu/drm/scheduler/gpu_scheduler.c:231
	if (READ_ONCE(entity->dependency))
     85c:	b4fffd42 	cbz	x2, 804 <drm_sched_select_entity+0x7c>
drm_sched_rq_select_entity():
/data3/home/yuanqiliang/code/arm-kernel/drivers/gpu/drm/scheduler/gpu_scheduler.c:152
		if (entity == rq->current_entity)
     860:	54000080 	b.eq	870 <drm_sched_select_entity+0xe8>  // b.none
/data3/home/yuanqiliang/code/arm-kernel/drivers/gpu/drm/scheduler/gpu_scheduler.c:144
	list_for_each_entry(entity, &rq->entities, list) {
     864:	f9400000 	ldr	x0, [x0]
     868:	eb13001f 	cmp	x0, x19
     86c:	54ffff01 	b.ne	84c <drm_sched_select_entity+0xc4>  // b.any
queued_spin_unlock():
/data3/home/yuanqiliang/code/arm-kernel/./include/asm-generic/qspinlock.h:101
     870:	089ffed7 	stlrb	w23, [x22]
drm_sched_select_entity():
/data3/home/yuanqiliang/code/arm-kernel/drivers/gpu/drm/scheduler/gpu_scheduler.c:793
		if (entity)
     874:	17ffffe7 	b	810 <drm_sched_select_entity+0x88>
queued_spin_lock():
/data3/home/yuanqiliang/code/arm-kernel/./include/asm-generic/qspinlock.h:88
	queued_spin_lock_slowpath(lock, val);
     878:	aa1603e0 	mov	x0, x22
     87c:	94000000 	bl	0 <queued_spin_lock_slowpath>
     880:	17ffffd8 	b	7e0 <drm_sched_select_entity+0x58>
drm_sched_select_entity():
/data3/home/yuanqiliang/code/arm-kernel/drivers/gpu/drm/scheduler/gpu_scheduler.c:798
}
     884:	a94153f3 	ldp	x19, x20, [sp, #16]
     888:	a9425bf5 	ldp	x21, x22, [sp, #32]
     88c:	a94363f7 	ldp	x23, x24, [sp, #48]
     890:	a8c47bfd 	ldp	x29, x30, [sp], #64
     894:	d65f03c0 	ret

0000000000000898 <drm_sched_hw_job_reset>:
drm_sched_hw_job_reset():
/data3/home/yuanqiliang/code/arm-kernel/drivers/gpu/drm/scheduler/gpu_scheduler.c:618
{
     898:	a9bb7bfd 	stp	x29, x30, [sp, #-80]!
     89c:	910003fd 	mov	x29, sp
     8a0:	a90153f3 	stp	x19, x20, [sp, #16]
     8a4:	aa0103f4 	mov	x20, x1
     8a8:	a9025bf5 	stp	x21, x22, [sp, #32]
     8ac:	aa0003f5 	mov	x21, x0
     8b0:	a90363f7 	stp	x23, x24, [sp, #48]
__cmpxchg_case_acq_4():
/data3/home/yuanqiliang/code/arm-kernel/./arch/arm64/include/asm/atomic_ll_sc.h:272
     8b4:	d2800002 	mov	x2, #0x0                   	// #0
do_raw_spin_lock():
/data3/home/yuanqiliang/code/arm-kernel/./include/linux/spinlock.h:180
 extern void do_raw_spin_unlock(raw_spinlock_t *lock) __releases(lock);
#else
static inline void do_raw_spin_lock(raw_spinlock_t *lock) __acquires(lock)
{
	__acquire(lock);
	arch_spin_lock(&lock->raw_lock);
     8b8:	91050000 	add	x0, x0, #0x140
__cmpxchg_case_acq_4():
/data3/home/yuanqiliang/code/arm-kernel/./arch/arm64/include/asm/atomic_ll_sc.h:272
     8bc:	d2800023 	mov	x3, #0x1                   	// #1
     8c0:	f9800011 	prfm	pstl1strm, [x0]
     8c4:	885ffc01 	ldaxr	w1, [x0]
     8c8:	4a020024 	eor	w4, w1, w2
     8cc:	35000064 	cbnz	w4, 8d8 <drm_sched_hw_job_reset+0x40>
     8d0:	88047c03 	stxr	w4, w3, [x0]
     8d4:	35ffff84 	cbnz	w4, 8c4 <drm_sched_hw_job_reset+0x2c>
queued_spin_lock():
/data3/home/yuanqiliang/code/arm-kernel/./include/asm-generic/qspinlock.h:86
	if (likely(val == 0))
     8d8:	35000dc1 	cbnz	w1, a90 <drm_sched_hw_job_reset+0x1f8>
drm_sched_hw_job_reset():
/data3/home/yuanqiliang/code/arm-kernel/drivers/gpu/drm/scheduler/gpu_scheduler.c:624
	list_for_each_entry_reverse(s_job, &sched->ring_mirror_list, node) {
     8dc:	f9409ea0 	ldr	x0, [x21, #312]
     8e0:	9104c2b6 	add	x22, x21, #0x130
     8e4:	d1014013 	sub	x19, x0, #0x50
     8e8:	eb0002df 	cmp	x22, x0
     8ec:	54000380 	b.eq	95c <drm_sched_hw_job_reset+0xc4>  // b.none
/data3/home/yuanqiliang/code/arm-kernel/drivers/gpu/drm/scheduler/gpu_scheduler.c:625
		if (s_job->s_fence->parent &&
     8f0:	f9400a60 	ldr	x0, [x19, #16]
/data3/home/yuanqiliang/code/arm-kernel/drivers/gpu/drm/scheduler/gpu_scheduler.c:626
		    dma_fence_remove_callback(s_job->s_fence->parent,
     8f4:	91030001 	add	x1, x0, #0xc0
/data3/home/yuanqiliang/code/arm-kernel/drivers/gpu/drm/scheduler/gpu_scheduler.c:625
		if (s_job->s_fence->parent &&
     8f8:	f9406c02 	ldr	x2, [x0, #216]
/data3/home/yuanqiliang/code/arm-kernel/drivers/gpu/drm/scheduler/gpu_scheduler.c:626
		    dma_fence_remove_callback(s_job->s_fence->parent,
     8fc:	aa0203e0 	mov	x0, x2
/data3/home/yuanqiliang/code/arm-kernel/drivers/gpu/drm/scheduler/gpu_scheduler.c:625
		if (s_job->s_fence->parent &&
     900:	b4000262 	cbz	x2, 94c <drm_sched_hw_job_reset+0xb4>
/data3/home/yuanqiliang/code/arm-kernel/drivers/gpu/drm/scheduler/gpu_scheduler.c:626 (discriminator 1)
		    dma_fence_remove_callback(s_job->s_fence->parent,
     904:	94000000 	bl	0 <dma_fence_remove_callback>
/data3/home/yuanqiliang/code/arm-kernel/drivers/gpu/drm/scheduler/gpu_scheduler.c:625 (discriminator 1)
		if (s_job->s_fence->parent &&
     908:	72001c1f 	tst	w0, #0xff
     90c:	54000200 	b.eq	94c <drm_sched_hw_job_reset+0xb4>  // b.none
/data3/home/yuanqiliang/code/arm-kernel/drivers/gpu/drm/scheduler/gpu_scheduler.c:628
			dma_fence_put(s_job->s_fence->parent);
     910:	f9400a61 	ldr	x1, [x19, #16]
     914:	f9406c37 	ldr	x23, [x1, #216]
kref_put():
/data3/home/yuanqiliang/code/arm-kernel/./include/linux/kref.h:69
 * memory.  Only use the return value if you want to see if the kref is now
 * gone, not present.
 */
static inline int kref_put(struct kref *kref, void (*release)(struct kref *kref))
{
	if (refcount_dec_and_test(&kref->refcount)) {
     918:	aa1703e0 	mov	x0, x23
dma_fence_put():
/data3/home/yuanqiliang/code/arm-kernel/./include/linux/dma-fence.h:258
 * dma_fence_put - decreases refcount of the fence
 * @fence: fence to reduce refcount of
 */
static inline void dma_fence_put(struct dma_fence *fence)
{
	if (fence)
     91c:	b40000b7 	cbz	x23, 930 <drm_sched_hw_job_reset+0x98>
kref_put():
/data3/home/yuanqiliang/code/arm-kernel/./include/linux/kref.h:69
     920:	94000000 	bl	0 <refcount_dec_and_test_checked>
     924:	72001c1f 	tst	w0, #0xff
     928:	54000921 	b.ne	a4c <drm_sched_hw_job_reset+0x1b4>  // b.any
/data3/home/yuanqiliang/code/arm-kernel/./include/linux/kref.h:71
		release(kref);
		return 1;
     92c:	f9400a61 	ldr	x1, [x19, #16]
atomic_sub():
/data3/home/yuanqiliang/code/arm-kernel/./arch/arm64/include/asm/atomic_ll_sc.h:103
ATOMIC_OPS(sub, sub)
     930:	910462a2 	add	x2, x21, #0x118
drm_sched_hw_job_reset():
/data3/home/yuanqiliang/code/arm-kernel/drivers/gpu/drm/scheduler/gpu_scheduler.c:629
			s_job->s_fence->parent = NULL;
     934:	f9006c3f 	str	xzr, [x1, #216]
atomic_sub():
/data3/home/yuanqiliang/code/arm-kernel/./arch/arm64/include/asm/atomic_ll_sc.h:103
     938:	f9800051 	prfm	pstl1strm, [x2]
     93c:	885f7c40 	ldxr	w0, [x2]
     940:	51000400 	sub	w0, w0, #0x1
     944:	88017c40 	stxr	w1, w0, [x2]
     948:	35ffffa1 	cbnz	w1, 93c <drm_sched_hw_job_reset+0xa4>
drm_sched_hw_job_reset():
/data3/home/yuanqiliang/code/arm-kernel/drivers/gpu/drm/scheduler/gpu_scheduler.c:624
	list_for_each_entry_reverse(s_job, &sched->ring_mirror_list, node) {
     94c:	f9402e73 	ldr	x19, [x19, #88]
     950:	eb1302df 	cmp	x22, x19
     954:	d1014273 	sub	x19, x19, #0x50
     958:	54fffcc1 	b.ne	8f0 <drm_sched_hw_job_reset+0x58>  // b.any
queued_spin_unlock():
/data3/home/yuanqiliang/code/arm-kernel/./include/asm-generic/qspinlock.h:101
	smp_store_release(&lock->locked, 0);
     95c:	52800000 	mov	w0, #0x0                   	// #0
     960:	910502a1 	add	x1, x21, #0x140
     964:	089ffc20 	stlrb	w0, [x1]
drm_sched_hw_job_reset():
/data3/home/yuanqiliang/code/arm-kernel/drivers/gpu/drm/scheduler/gpu_scheduler.c:635
	if (bad && bad->s_priority != DRM_SCHED_PRIORITY_KERNEL) {
     968:	b4000694 	cbz	x20, a38 <drm_sched_hw_job_reset+0x1a0>
/data3/home/yuanqiliang/code/arm-kernel/drivers/gpu/drm/scheduler/gpu_scheduler.c:635 (discriminator 1)
     96c:	b940c680 	ldr	w0, [x20, #196]
     970:	7100101f 	cmp	w0, #0x4
     974:	54000620 	b.eq	a38 <drm_sched_hw_job_reset+0x1a0>  // b.none
atomic_add():
/data3/home/yuanqiliang/code/arm-kernel/./arch/arm64/include/asm/atomic_ll_sc.h:102
ATOMIC_OPS(add, add)
     978:	91030282 	add	x2, x20, #0xc0
     97c:	a9046bf9 	stp	x25, x26, [sp, #64]
     980:	f9800051 	prfm	pstl1strm, [x2]
     984:	885f7c40 	ldxr	w0, [x2]
     988:	11000400 	add	w0, w0, #0x1
     98c:	88017c40 	stxr	w1, w0, [x2]
     990:	35ffffa1 	cbnz	w1, 984 <drm_sched_hw_job_reset+0xec>
__cmpxchg_case_acq_4():
/data3/home/yuanqiliang/code/arm-kernel/./arch/arm64/include/asm/atomic_ll_sc.h:272
__CMPXCHG_CASE(w,  , acq_4,        , a,  , "memory")
     994:	d2800036 	mov	x22, #0x1                   	// #1
     998:	9100c2b3 	add	x19, x21, #0x30
__write_once_size():
/data3/home/yuanqiliang/code/arm-kernel/./include/linux/compiler.h:219
	case 4: *(volatile __u32 *)p = *(__u32 *)res; break;
     99c:	2a1603fa 	mov	w26, w22
     9a0:	910342b5 	add	x21, x21, #0xd0
__cmpxchg_case_acq_4():
/data3/home/yuanqiliang/code/arm-kernel/./arch/arm64/include/asm/atomic_ll_sc.h:272
     9a4:	d2800017 	mov	x23, #0x0                   	// #0
queued_spin_unlock():
/data3/home/yuanqiliang/code/arm-kernel/./include/asm-generic/qspinlock.h:101
     9a8:	52800019 	mov	w25, #0x0                   	// #0
drm_sched_hw_job_reset():
/data3/home/yuanqiliang/code/arm-kernel/drivers/gpu/drm/scheduler/gpu_scheduler.c:644
			spin_lock(&rq->lock);
     9ac:	d1004278 	sub	x24, x19, #0x10
__cmpxchg_case_acq_4():
/data3/home/yuanqiliang/code/arm-kernel/./arch/arm64/include/asm/atomic_ll_sc.h:272
     9b0:	f9800311 	prfm	pstl1strm, [x24]
     9b4:	885fff01 	ldaxr	w1, [x24]
     9b8:	4a170020 	eor	w0, w1, w23
     9bc:	35000060 	cbnz	w0, 9c8 <drm_sched_hw_job_reset+0x130>
     9c0:	88007f16 	stxr	w0, w22, [x24]
     9c4:	35ffff80 	cbnz	w0, 9b4 <drm_sched_hw_job_reset+0x11c>
queued_spin_lock():
/data3/home/yuanqiliang/code/arm-kernel/./include/asm-generic/qspinlock.h:86
	if (likely(val == 0))
     9c8:	350005e1 	cbnz	w1, a84 <drm_sched_hw_job_reset+0x1ec>
drm_sched_hw_job_reset():
/data3/home/yuanqiliang/code/arm-kernel/drivers/gpu/drm/scheduler/gpu_scheduler.c:645
			list_for_each_entry_safe(entity, tmp, &rq->entities, list) {
     9cc:	f9400262 	ldr	x2, [x19]
     9d0:	aa0203e1 	mov	x1, x2
     9d4:	eb02027f 	cmp	x19, x2
     9d8:	f9400040 	ldr	x0, [x2]
     9dc:	540001e0 	b.eq	a18 <drm_sched_hw_job_reset+0x180>  // b.none
/data3/home/yuanqiliang/code/arm-kernel/drivers/gpu/drm/scheduler/gpu_scheduler.c:646
				if (bad->s_fence->scheduled.context == entity->fence_context) {
     9e0:	f9400a83 	ldr	x3, [x20, #16]
     9e4:	f9402042 	ldr	x2, [x2, #64]
     9e8:	f9401c64 	ldr	x4, [x3, #56]
     9ec:	eb04005f 	cmp	x2, x4
     9f0:	540000c1 	b.ne	a08 <drm_sched_hw_job_reset+0x170>  // b.any
     9f4:	14000019 	b	a58 <drm_sched_hw_job_reset+0x1c0>
     9f8:	f9402003 	ldr	x3, [x0, #64]
     9fc:	eb04007f 	cmp	x3, x4
     a00:	54000300 	b.eq	a60 <drm_sched_hw_job_reset+0x1c8>  // b.none
/data3/home/yuanqiliang/code/arm-kernel/drivers/gpu/drm/scheduler/gpu_scheduler.c:645
			list_for_each_entry_safe(entity, tmp, &rq->entities, list) {
     a04:	aa0203e0 	mov	x0, x2
     a08:	aa0003e1 	mov	x1, x0
     a0c:	eb13001f 	cmp	x0, x19
     a10:	f9400002 	ldr	x2, [x0]
     a14:	54ffff21 	b.ne	9f8 <drm_sched_hw_job_reset+0x160>  // b.any
     a18:	aa1303e1 	mov	x1, x19
queued_spin_unlock():
/data3/home/yuanqiliang/code/arm-kernel/./include/asm-generic/qspinlock.h:101
	smp_store_release(&lock->locked, 0);
     a1c:	089fff19 	stlrb	w25, [x24]
drm_sched_hw_job_reset():
/data3/home/yuanqiliang/code/arm-kernel/drivers/gpu/drm/scheduler/gpu_scheduler.c:654
			if (&entity->list != &rq->entities)
     a20:	eb01027f 	cmp	x19, x1
     a24:	54000081 	b.ne	a34 <drm_sched_hw_job_reset+0x19c>  // b.any
     a28:	9100a273 	add	x19, x19, #0x28
/data3/home/yuanqiliang/code/arm-kernel/drivers/gpu/drm/scheduler/gpu_scheduler.c:641 (discriminator 2)
		for (i = DRM_SCHED_PRIORITY_MIN; i < DRM_SCHED_PRIORITY_KERNEL; i++ ) {
     a2c:	eb1302bf 	cmp	x21, x19
     a30:	54fffbe1 	b.ne	9ac <drm_sched_hw_job_reset+0x114>  // b.any
     a34:	a9446bf9 	ldp	x25, x26, [sp, #64]
/data3/home/yuanqiliang/code/arm-kernel/drivers/gpu/drm/scheduler/gpu_scheduler.c:658
}
     a38:	a94153f3 	ldp	x19, x20, [sp, #16]
     a3c:	a9425bf5 	ldp	x21, x22, [sp, #32]
     a40:	a94363f7 	ldp	x23, x24, [sp, #48]
     a44:	a8c57bfd 	ldp	x29, x30, [sp], #80
     a48:	d65f03c0 	ret
kref_put():
/data3/home/yuanqiliang/code/arm-kernel/./include/linux/kref.h:70
		release(kref);
     a4c:	aa1703e0 	mov	x0, x23
     a50:	94000000 	bl	0 <dma_fence_release>
     a54:	17ffffb6 	b	92c <drm_sched_hw_job_reset+0x94>
drm_sched_hw_job_reset():
/data3/home/yuanqiliang/code/arm-kernel/drivers/gpu/drm/scheduler/gpu_scheduler.c:645
			list_for_each_entry_safe(entity, tmp, &rq->entities, list) {
     a58:	aa0103e0 	mov	x0, x1
     a5c:	d503201f 	nop
/data3/home/yuanqiliang/code/arm-kernel/drivers/gpu/drm/scheduler/gpu_scheduler.c:647 (discriminator 1)
				    if (atomic_read(&bad->karma) > bad->sched->hang_limit)
     a60:	f9400683 	ldr	x3, [x20, #8]
__read_once_size():
/data3/home/yuanqiliang/code/arm-kernel/./include/linux/compiler.h:193 (discriminator 1)
	__READ_ONCE_SIZE;
     a64:	b940c282 	ldr	w2, [x20, #192]
drm_sched_hw_job_reset():
/data3/home/yuanqiliang/code/arm-kernel/drivers/gpu/drm/scheduler/gpu_scheduler.c:647 (discriminator 1)
     a68:	b9414463 	ldr	w3, [x3, #324]
     a6c:	6b02007f 	cmp	w3, w2
     a70:	54fffd6a 	b.ge	a1c <drm_sched_hw_job_reset+0x184>  // b.tcont
/data3/home/yuanqiliang/code/arm-kernel/drivers/gpu/drm/scheduler/gpu_scheduler.c:648
						if (entity->guilty)
     a74:	f9403400 	ldr	x0, [x0, #104]
     a78:	b4fffd20 	cbz	x0, a1c <drm_sched_hw_job_reset+0x184>
__write_once_size():
/data3/home/yuanqiliang/code/arm-kernel/./include/linux/compiler.h:219
	case 4: *(volatile __u32 *)p = *(__u32 *)res; break;
     a7c:	b900001a 	str	w26, [x0]
drm_sched_hw_job_reset():
/data3/home/yuanqiliang/code/arm-kernel/drivers/gpu/drm/scheduler/gpu_scheduler.c:649
							atomic_set(entity->guilty, 1);
     a80:	17ffffe7 	b	a1c <drm_sched_hw_job_reset+0x184>
queued_spin_lock():
/data3/home/yuanqiliang/code/arm-kernel/./include/asm-generic/qspinlock.h:88
	queued_spin_lock_slowpath(lock, val);
     a84:	aa1803e0 	mov	x0, x24
     a88:	94000000 	bl	0 <queued_spin_lock_slowpath>
     a8c:	17ffffd0 	b	9cc <drm_sched_hw_job_reset+0x134>
     a90:	94000000 	bl	0 <queued_spin_lock_slowpath>
     a94:	17ffff92 	b	8dc <drm_sched_hw_job_reset+0x44>

0000000000000a98 <drm_sched_entity_kill_jobs_cb>:
drm_sched_entity_kill_jobs_cb():
/data3/home/yuanqiliang/code/arm-kernel/drivers/gpu/drm/scheduler/gpu_scheduler.c:239
{
     a98:	a9bd7bfd 	stp	x29, x30, [sp, #-48]!
     a9c:	910003fd 	mov	x29, sp
     aa0:	a90153f3 	stp	x19, x20, [sp, #16]
     aa4:	aa0103f4 	mov	x20, x1
     aa8:	f90013f5 	str	x21, [sp, #32]
/data3/home/yuanqiliang/code/arm-kernel/drivers/gpu/drm/scheduler/gpu_scheduler.c:240
	struct drm_sched_job *job = container_of(cb, struct drm_sched_job,
     aac:	d1006035 	sub	x21, x1, #0x18
/data3/home/yuanqiliang/code/arm-kernel/drivers/gpu/drm/scheduler/gpu_scheduler.c:242
	drm_sched_fence_finished(job->s_fence);
     ab0:	f85f8020 	ldur	x0, [x1, #-8]
     ab4:	94000000 	bl	1de0 <drm_sched_fence_finished>
/data3/home/yuanqiliang/code/arm-kernel/drivers/gpu/drm/scheduler/gpu_scheduler.c:243
	WARN_ON(job->s_fence->parent);
     ab8:	f85f8280 	ldur	x0, [x20, #-8]
     abc:	f9406c01 	ldr	x1, [x0, #216]
     ac0:	b40000c1 	cbz	x1, ad8 <drm_sched_entity_kill_jobs_cb+0x40>
/data3/home/yuanqiliang/code/arm-kernel/drivers/gpu/drm/scheduler/gpu_scheduler.c:243 (discriminator 1)
     ac4:	90000000 	adrp	x0, 0 <drm_sched_job_timedout>
     ac8:	91000000 	add	x0, x0, #0x0
     acc:	94000000 	bl	0 <printk>
     ad0:	d4210000 	brk	#0x800
     ad4:	f85f8280 	ldur	x0, [x20, #-8]
dma_fence_put():
/data3/home/yuanqiliang/code/arm-kernel/./include/linux/dma-fence.h:258 (discriminator 3)
     ad8:	b1018013 	adds	x19, x0, #0x60
     adc:	540000a0 	b.eq	af0 <drm_sched_entity_kill_jobs_cb+0x58>  // b.none
kref_put():
/data3/home/yuanqiliang/code/arm-kernel/./include/linux/kref.h:69
	if (refcount_dec_and_test(&kref->refcount)) {
     ae0:	aa1303e0 	mov	x0, x19
     ae4:	94000000 	bl	0 <refcount_dec_and_test_checked>
     ae8:	72001c1f 	tst	w0, #0xff
     aec:	54000141 	b.ne	b14 <drm_sched_entity_kill_jobs_cb+0x7c>  // b.any
drm_sched_entity_kill_jobs_cb():
/data3/home/yuanqiliang/code/arm-kernel/drivers/gpu/drm/scheduler/gpu_scheduler.c:245
	job->sched->ops->free_job(job);
     af0:	f85f0281 	ldur	x1, [x20, #-16]
     af4:	aa1503e0 	mov	x0, x21
     af8:	f9400021 	ldr	x1, [x1]
     afc:	f9400c21 	ldr	x1, [x1, #24]
     b00:	d63f0020 	blr	x1
/data3/home/yuanqiliang/code/arm-kernel/drivers/gpu/drm/scheduler/gpu_scheduler.c:246
}
     b04:	a94153f3 	ldp	x19, x20, [sp, #16]
     b08:	f94013f5 	ldr	x21, [sp, #32]
     b0c:	a8c37bfd 	ldp	x29, x30, [sp], #48
     b10:	d65f03c0 	ret
kref_put():
/data3/home/yuanqiliang/code/arm-kernel/./include/linux/kref.h:70
		release(kref);
     b14:	aa1303e0 	mov	x0, x19
     b18:	94000000 	bl	0 <dma_fence_release>
/data3/home/yuanqiliang/code/arm-kernel/./include/linux/kref.h:71
		return 1;
     b1c:	17fffff5 	b	af0 <drm_sched_entity_kill_jobs_cb+0x58>

0000000000000b20 <drm_sched_entity_fini>:
drm_sched_entity_fini():
/data3/home/yuanqiliang/code/arm-kernel/drivers/gpu/drm/scheduler/gpu_scheduler.c:301
{
     b20:	a9bc7bfd 	stp	x29, x30, [sp, #-64]!
/data3/home/yuanqiliang/code/arm-kernel/drivers/gpu/drm/scheduler/gpu_scheduler.c:305
	drm_sched_rq_remove_entity(entity->rq, entity);
     b24:	aa0003e1 	mov	x1, x0
/data3/home/yuanqiliang/code/arm-kernel/drivers/gpu/drm/scheduler/gpu_scheduler.c:301
{
     b28:	910003fd 	mov	x29, sp
     b2c:	a90153f3 	stp	x19, x20, [sp, #16]
     b30:	aa0003f3 	mov	x19, x0
/data3/home/yuanqiliang/code/arm-kernel/drivers/gpu/drm/scheduler/gpu_scheduler.c:304
	sched = entity->rq->sched;
     b34:	f9400802 	ldr	x2, [x0, #16]
/data3/home/yuanqiliang/code/arm-kernel/drivers/gpu/drm/scheduler/gpu_scheduler.c:305
	drm_sched_rq_remove_entity(entity->rq, entity);
     b38:	aa0203e0 	mov	x0, x2
/data3/home/yuanqiliang/code/arm-kernel/drivers/gpu/drm/scheduler/gpu_scheduler.c:304
	sched = entity->rq->sched;
     b3c:	f9400454 	ldr	x20, [x2, #8]
/data3/home/yuanqiliang/code/arm-kernel/drivers/gpu/drm/scheduler/gpu_scheduler.c:305
	drm_sched_rq_remove_entity(entity->rq, entity);
     b40:	97fffe78 	bl	520 <drm_sched_rq_remove_entity>
/data3/home/yuanqiliang/code/arm-kernel/drivers/gpu/drm/scheduler/gpu_scheduler.c:310
	if (spsc_queue_peek(&entity->job_queue)) {
     b44:	f9401260 	ldr	x0, [x19, #32]
     b48:	b4000840 	cbz	x0, c50 <drm_sched_entity_fini+0x130>
/data3/home/yuanqiliang/code/arm-kernel/drivers/gpu/drm/scheduler/gpu_scheduler.c:317
		kthread_park(sched->thread);
     b4c:	a9025bf5 	stp	x21, x22, [sp, #32]
     b50:	a90363f7 	stp	x23, x24, [sp, #48]
     b54:	f9409680 	ldr	x0, [x20, #296]
     b58:	94000000 	bl	0 <kthread_park>
/data3/home/yuanqiliang/code/arm-kernel/drivers/gpu/drm/scheduler/gpu_scheduler.c:318
		kthread_unpark(sched->thread);
     b5c:	f9409680 	ldr	x0, [x20, #296]
     b60:	94000000 	bl	0 <kthread_unpark>
/data3/home/yuanqiliang/code/arm-kernel/drivers/gpu/drm/scheduler/gpu_scheduler.c:319
		if (entity->dependency) {
     b64:	f9402660 	ldr	x0, [x19, #72]
     b68:	b40001a0 	cbz	x0, b9c <drm_sched_entity_fini+0x7c>
/data3/home/yuanqiliang/code/arm-kernel/drivers/gpu/drm/scheduler/gpu_scheduler.c:320
			dma_fence_remove_callback(entity->dependency,
     b6c:	91014261 	add	x1, x19, #0x50
     b70:	94000000 	bl	0 <dma_fence_remove_callback>
/data3/home/yuanqiliang/code/arm-kernel/drivers/gpu/drm/scheduler/gpu_scheduler.c:322
			dma_fence_put(entity->dependency);
     b74:	f9402674 	ldr	x20, [x19, #72]
dma_fence_put():
/data3/home/yuanqiliang/code/arm-kernel/./include/linux/dma-fence.h:258
     b78:	b4000114 	cbz	x20, b98 <drm_sched_entity_fini+0x78>
kref_put():
/data3/home/yuanqiliang/code/arm-kernel/./include/linux/kref.h:69
	if (refcount_dec_and_test(&kref->refcount)) {
     b7c:	aa1403e0 	mov	x0, x20
     b80:	94000000 	bl	0 <refcount_dec_and_test_checked>
     b84:	72001c1f 	tst	w0, #0xff
     b88:	54000080 	b.eq	b98 <drm_sched_entity_fini+0x78>  // b.none
/data3/home/yuanqiliang/code/arm-kernel/./include/linux/kref.h:70
		release(kref);
     b8c:	aa1403e0 	mov	x0, x20
     b90:	94000000 	bl	0 <dma_fence_release>
/data3/home/yuanqiliang/code/arm-kernel/./include/linux/kref.h:71
		return 1;
     b94:	d503201f 	nop
drm_sched_entity_fini():
/data3/home/yuanqiliang/code/arm-kernel/drivers/gpu/drm/scheduler/gpu_scheduler.c:323
			entity->dependency = NULL;
     b98:	f900267f 	str	xzr, [x19, #72]
dma_fence_set_error():
/data3/home/yuanqiliang/code/arm-kernel/./include/linux/dma-fence.h:503
 * helper exists to help catching erroneous setting of #dma_fence.error.
 */
static inline void dma_fence_set_error(struct dma_fence *fence,
				       int error)
{
	WARN_ON(test_bit(DMA_FENCE_FLAG_SIGNALED_BIT, &fence->flags));
     b9c:	90000017 	adrp	x23, 0 <drm_sched_job_timedout>
drm_sched_entity_fini():
/data3/home/yuanqiliang/code/arm-kernel/drivers/gpu/drm/scheduler/gpu_scheduler.c:339
				r = dma_fence_add_callback(entity->last_scheduled, &job->finish_cb,
     ba0:	90000016 	adrp	x22, 0 <drm_sched_job_timedout>
dma_fence_set_error():
/data3/home/yuanqiliang/code/arm-kernel/./include/linux/dma-fence.h:503
     ba4:	910002f7 	add	x23, x23, #0x0
drm_sched_entity_fini():
/data3/home/yuanqiliang/code/arm-kernel/drivers/gpu/drm/scheduler/gpu_scheduler.c:339
     ba8:	910002d6 	add	x22, x22, #0x0
spsc_queue_pop():
/data3/home/yuanqiliang/code/arm-kernel/./include/drm/spsc_queue.h:107
	WRITE_ONCE(queue->head, next);

	if (unlikely(!next)) {
		/* slowpath for the last element in the queue */

		if (atomic_long_cmpxchg(&queue->tail,
     bac:	91008278 	add	x24, x19, #0x20
/data3/home/yuanqiliang/code/arm-kernel/./include/drm/spsc_queue.h:94
	smp_rmb();
     bb0:	d50339bf 	dmb	ishld
__read_once_size():
/data3/home/yuanqiliang/code/arm-kernel/./include/linux/compiler.h:193
	__READ_ONCE_SIZE;
     bb4:	f9401274 	ldr	x20, [x19, #32]
spsc_queue_pop():
/data3/home/yuanqiliang/code/arm-kernel/./include/drm/spsc_queue.h:98
	if (!node)
     bb8:	b4000494 	cbz	x20, c48 <drm_sched_entity_fini+0x128>
__read_once_size():
/data3/home/yuanqiliang/code/arm-kernel/./include/linux/compiler.h:193
     bbc:	f9400280 	ldr	x0, [x20]
__write_once_size():
/data3/home/yuanqiliang/code/arm-kernel/./include/linux/compiler.h:220
	case 8: *(volatile __u64 *)p = *(__u64 *)res; break;
     bc0:	f9001260 	str	x0, [x19, #32]
spsc_queue_pop():
/data3/home/yuanqiliang/code/arm-kernel/./include/drm/spsc_queue.h:104
	if (unlikely(!next)) {
     bc4:	b4000680 	cbz	x0, c94 <drm_sched_entity_fini+0x174>
atomic_sub():
/data3/home/yuanqiliang/code/arm-kernel/./arch/arm64/include/asm/atomic_ll_sc.h:103
ATOMIC_OPS(sub, sub)
     bc8:	9100c262 	add	x2, x19, #0x30
     bcc:	f9800051 	prfm	pstl1strm, [x2]
     bd0:	885f7c40 	ldxr	w0, [x2]
     bd4:	51000400 	sub	w0, w0, #0x1
     bd8:	88017c40 	stxr	w1, w0, [x2]
     bdc:	35ffffa1 	cbnz	w1, bd0 <drm_sched_entity_fini+0xb0>
drm_sched_entity_fini():
/data3/home/yuanqiliang/code/arm-kernel/drivers/gpu/drm/scheduler/gpu_scheduler.c:327
			struct drm_sched_fence *s_fence = job->s_fence;
     be0:	f9400a95 	ldr	x21, [x20, #16]
/data3/home/yuanqiliang/code/arm-kernel/drivers/gpu/drm/scheduler/gpu_scheduler.c:328
			drm_sched_fence_scheduled(s_fence);
     be4:	aa1503e0 	mov	x0, x21
     be8:	94000000 	bl	1dc8 <drm_sched_fence_scheduled>
test_bit():
/data3/home/yuanqiliang/code/arm-kernel/./include/asm-generic/bitops/non-atomic.h:106
 * @nr: bit number to test
 * @addr: Address to start counting from
 */
static inline int test_bit(int nr, const volatile unsigned long *addr)
{
	return 1UL & (addr[BIT_WORD(nr)] >> (nr & (BITS_PER_LONG-1)));
     bec:	f94056a0 	ldr	x0, [x21, #168]
dma_fence_set_error():
/data3/home/yuanqiliang/code/arm-kernel/./include/linux/dma-fence.h:503
     bf0:	36000080 	tbz	w0, #0, c00 <drm_sched_entity_fini+0xe0>
     bf4:	aa1703e0 	mov	x0, x23
     bf8:	94000000 	bl	0 <printk>
     bfc:	d4210000 	brk	#0x800
/data3/home/yuanqiliang/code/arm-kernel/./include/linux/dma-fence.h:506
	WARN_ON(error >= 0 || error < -MAX_ERRNO);

	fence->error = error;
     c00:	12800040 	mov	w0, #0xfffffffd            	// #-3
     c04:	b900baa0 	str	w0, [x21, #184]
drm_sched_entity_fini():
/data3/home/yuanqiliang/code/arm-kernel/drivers/gpu/drm/scheduler/gpu_scheduler.c:336
			if (!entity->last_scheduled) {
     c08:	91006294 	add	x20, x20, #0x18
     c0c:	f9403a60 	ldr	x0, [x19, #112]
     c10:	b4000340 	cbz	x0, c78 <drm_sched_entity_fini+0x158>
/data3/home/yuanqiliang/code/arm-kernel/drivers/gpu/drm/scheduler/gpu_scheduler.c:339
				r = dma_fence_add_callback(entity->last_scheduled, &job->finish_cb,
     c14:	aa1603e2 	mov	x2, x22
     c18:	aa1403e1 	mov	x1, x20
     c1c:	94000000 	bl	0 <dma_fence_add_callback>
/data3/home/yuanqiliang/code/arm-kernel/drivers/gpu/drm/scheduler/gpu_scheduler.c:341
				if (r == -ENOENT)
     c20:	3100081f 	cmn	w0, #0x2
     c24:	54000300 	b.eq	c84 <drm_sched_entity_fini+0x164>  // b.none
/data3/home/yuanqiliang/code/arm-kernel/drivers/gpu/drm/scheduler/gpu_scheduler.c:343
				else if (r)
     c28:	34fffc40 	cbz	w0, bb0 <drm_sched_entity_fini+0x90>
/data3/home/yuanqiliang/code/arm-kernel/drivers/gpu/drm/scheduler/gpu_scheduler.c:344
					DRM_ERROR("fence add callback failed (%d)\n", r);
     c2c:	2a0003e1 	mov	w1, w0
     c30:	90000000 	adrp	x0, 0 <drm_sched_job_timedout>
     c34:	91000000 	add	x0, x0, #0x0
     c38:	94000000 	bl	0 <drm_err>
spsc_queue_pop():
/data3/home/yuanqiliang/code/arm-kernel/./include/drm/spsc_queue.h:94
	smp_rmb();
     c3c:	d50339bf 	dmb	ishld
__read_once_size():
/data3/home/yuanqiliang/code/arm-kernel/./include/linux/compiler.h:193
	__READ_ONCE_SIZE;
     c40:	f9401274 	ldr	x20, [x19, #32]
spsc_queue_pop():
/data3/home/yuanqiliang/code/arm-kernel/./include/drm/spsc_queue.h:98
	if (!node)
     c44:	b5fffbd4 	cbnz	x20, bbc <drm_sched_entity_fini+0x9c>
     c48:	a9425bf5 	ldp	x21, x22, [sp, #32]
     c4c:	a94363f7 	ldp	x23, x24, [sp, #48]
drm_sched_entity_fini():
/data3/home/yuanqiliang/code/arm-kernel/drivers/gpu/drm/scheduler/gpu_scheduler.c:349
	dma_fence_put(entity->last_scheduled);
     c50:	f9403a74 	ldr	x20, [x19, #112]
dma_fence_put():
/data3/home/yuanqiliang/code/arm-kernel/./include/linux/dma-fence.h:258
	if (fence)
     c54:	b40000b4 	cbz	x20, c68 <drm_sched_entity_fini+0x148>
kref_put():
/data3/home/yuanqiliang/code/arm-kernel/./include/linux/kref.h:69
	if (refcount_dec_and_test(&kref->refcount)) {
     c58:	aa1403e0 	mov	x0, x20
     c5c:	94000000 	bl	0 <refcount_dec_and_test_checked>
     c60:	72001c1f 	tst	w0, #0xff
     c64:	54000361 	b.ne	cd0 <drm_sched_entity_fini+0x1b0>  // b.any
drm_sched_entity_fini():
/data3/home/yuanqiliang/code/arm-kernel/drivers/gpu/drm/scheduler/gpu_scheduler.c:350
	entity->last_scheduled = NULL;
     c68:	f9003a7f 	str	xzr, [x19, #112]
/data3/home/yuanqiliang/code/arm-kernel/drivers/gpu/drm/scheduler/gpu_scheduler.c:351
}
     c6c:	a94153f3 	ldp	x19, x20, [sp, #16]
     c70:	a8c47bfd 	ldp	x29, x30, [sp], #64
     c74:	d65f03c0 	ret
/data3/home/yuanqiliang/code/arm-kernel/drivers/gpu/drm/scheduler/gpu_scheduler.c:337
				drm_sched_entity_kill_jobs_cb(NULL, &job->finish_cb);
     c78:	aa1403e1 	mov	x1, x20
     c7c:	97ffff87 	bl	a98 <drm_sched_entity_kill_jobs_cb>
     c80:	17ffffcc 	b	bb0 <drm_sched_entity_fini+0x90>
/data3/home/yuanqiliang/code/arm-kernel/drivers/gpu/drm/scheduler/gpu_scheduler.c:342
					drm_sched_entity_kill_jobs_cb(NULL, &job->finish_cb);
     c84:	aa1403e1 	mov	x1, x20
     c88:	d2800000 	mov	x0, #0x0                   	// #0
     c8c:	97ffff83 	bl	a98 <drm_sched_entity_kill_jobs_cb>
     c90:	17ffffc8 	b	bb0 <drm_sched_entity_fini+0x90>
__cmpxchg_case_mb_8():
/data3/home/yuanqiliang/code/arm-kernel/./arch/arm64/include/asm/atomic_ll_sc.h:281
__CMPXCHG_CASE( ,  ,  mb_8, dmb ish,  , l, "memory")
     c94:	9100a262 	add	x2, x19, #0x28
     c98:	f9800051 	prfm	pstl1strm, [x2]
     c9c:	c85f7c40 	ldxr	x0, [x2]
     ca0:	ca140001 	eor	x1, x0, x20
     ca4:	b5000081 	cbnz	x1, cb4 <drm_sched_entity_fini+0x194>
     ca8:	c801fc58 	stlxr	w1, x24, [x2]
     cac:	35ffff81 	cbnz	w1, c9c <drm_sched_entity_fini+0x17c>
     cb0:	d5033bbf 	dmb	ish
spsc_queue_pop():
/data3/home/yuanqiliang/code/arm-kernel/./include/drm/spsc_queue.h:107
		if (atomic_long_cmpxchg(&queue->tail,
     cb4:	eb00029f 	cmp	x20, x0
     cb8:	54fff880 	b.eq	bc8 <drm_sched_entity_fini+0xa8>  // b.none
/data3/home/yuanqiliang/code/arm-kernel/./include/drm/spsc_queue.h:111
				(long)&node->next, (long) &queue->head) != (long)&node->next) {
			/* Updating tail failed wait for new next to appear */
			do {
				smp_rmb();
     cbc:	d50339bf 	dmb	ishld
__read_once_size():
/data3/home/yuanqiliang/code/arm-kernel/./include/linux/compiler.h:193
     cc0:	f9400280 	ldr	x0, [x20]
spsc_queue_pop():
/data3/home/yuanqiliang/code/arm-kernel/./include/drm/spsc_queue.h:112
			} while (unlikely(!(queue->head = READ_ONCE(node->next))));
     cc4:	f9000300 	str	x0, [x24]
     cc8:	b5fff800 	cbnz	x0, bc8 <drm_sched_entity_fini+0xa8>
     ccc:	17fffffc 	b	cbc <drm_sched_entity_fini+0x19c>
kref_put():
/data3/home/yuanqiliang/code/arm-kernel/./include/linux/kref.h:70
		release(kref);
     cd0:	aa1403e0 	mov	x0, x20
     cd4:	94000000 	bl	0 <dma_fence_release>
drm_sched_entity_fini():
/data3/home/yuanqiliang/code/arm-kernel/drivers/gpu/drm/scheduler/gpu_scheduler.c:350
	entity->last_scheduled = NULL;
     cd8:	f9003a7f 	str	xzr, [x19, #112]
/data3/home/yuanqiliang/code/arm-kernel/drivers/gpu/drm/scheduler/gpu_scheduler.c:351
}
     cdc:	a94153f3 	ldp	x19, x20, [sp, #16]
     ce0:	a8c47bfd 	ldp	x29, x30, [sp], #64
     ce4:	d65f03c0 	ret

0000000000000ce8 <drm_sched_entity_destroy>:
drm_sched_entity_destroy():
/data3/home/yuanqiliang/code/arm-kernel/drivers/gpu/drm/scheduler/gpu_scheduler.c:362
{
     ce8:	a9be7bfd 	stp	x29, x30, [sp, #-32]!
/data3/home/yuanqiliang/code/arm-kernel/drivers/gpu/drm/scheduler/gpu_scheduler.c:363
	drm_sched_entity_flush(entity, MAX_WAIT_SCHED_ENTITY_Q_EMPTY);
     cec:	d2801f41 	mov	x1, #0xfa                  	// #250
/data3/home/yuanqiliang/code/arm-kernel/drivers/gpu/drm/scheduler/gpu_scheduler.c:362
{
     cf0:	910003fd 	mov	x29, sp
     cf4:	f9000bf3 	str	x19, [sp, #16]
     cf8:	aa0003f3 	mov	x19, x0
/data3/home/yuanqiliang/code/arm-kernel/drivers/gpu/drm/scheduler/gpu_scheduler.c:363
	drm_sched_entity_flush(entity, MAX_WAIT_SCHED_ENTITY_Q_EMPTY);
     cfc:	94000000 	bl	5c0 <drm_sched_entity_flush>
/data3/home/yuanqiliang/code/arm-kernel/drivers/gpu/drm/scheduler/gpu_scheduler.c:364
	drm_sched_entity_fini(entity);
     d00:	aa1303e0 	mov	x0, x19
     d04:	94000000 	bl	b20 <drm_sched_entity_fini>
/data3/home/yuanqiliang/code/arm-kernel/drivers/gpu/drm/scheduler/gpu_scheduler.c:365
}
     d08:	f9400bf3 	ldr	x19, [sp, #16]
     d0c:	a8c27bfd 	ldp	x29, x30, [sp], #32
     d10:	d65f03c0 	ret
     d14:	d503201f 	nop

0000000000000d18 <drm_sched_dependency_optimized>:
drm_sched_dependency_optimized():
/data3/home/yuanqiliang/code/arm-kernel/drivers/gpu/drm/scheduler/gpu_scheduler.c:424
	if (!fence || dma_fence_is_signaled(fence))
     d18:	b4000520 	cbz	x0, dbc <drm_sched_dependency_optimized+0xa4>
/data3/home/yuanqiliang/code/arm-kernel/drivers/gpu/drm/scheduler/gpu_scheduler.c:420
{
     d1c:	a9bd7bfd 	stp	x29, x30, [sp, #-48]!
     d20:	910003fd 	mov	x29, sp
     d24:	a90153f3 	stp	x19, x20, [sp, #16]
     d28:	aa0003f3 	mov	x19, x0
test_bit():
/data3/home/yuanqiliang/code/arm-kernel/./include/asm-generic/bitops/non-atomic.h:106
     d2c:	f9402403 	ldr	x3, [x0, #72]
dma_fence_is_signaled():
/data3/home/yuanqiliang/code/arm-kernel/./include/linux/dma-fence.h:398
	if (test_bit(DMA_FENCE_FLAG_SIGNALED_BIT, &fence->flags))
     d30:	37000363 	tbnz	w3, #0, d9c <drm_sched_dependency_optimized+0x84>
     d34:	f90013f5 	str	x21, [sp, #32]
     d38:	aa0103f4 	mov	x20, x1
/data3/home/yuanqiliang/code/arm-kernel/./include/linux/dma-fence.h:401
	if (fence->ops->signaled && fence->ops->signaled(fence)) {
     d3c:	f9400401 	ldr	x1, [x0, #8]
drm_sched_dependency_optimized():
/data3/home/yuanqiliang/code/arm-kernel/drivers/gpu/drm/scheduler/gpu_scheduler.c:421
	struct drm_gpu_scheduler *sched = entity->rq->sched;
     d40:	f9400a82 	ldr	x2, [x20, #16]
dma_fence_is_signaled():
/data3/home/yuanqiliang/code/arm-kernel/./include/linux/dma-fence.h:401
     d44:	f9400c21 	ldr	x1, [x1, #24]
drm_sched_dependency_optimized():
/data3/home/yuanqiliang/code/arm-kernel/drivers/gpu/drm/scheduler/gpu_scheduler.c:421
     d48:	f9400455 	ldr	x21, [x2, #8]
dma_fence_is_signaled():
/data3/home/yuanqiliang/code/arm-kernel/./include/linux/dma-fence.h:401
     d4c:	b4000081 	cbz	x1, d5c <drm_sched_dependency_optimized+0x44>
     d50:	d63f0020 	blr	x1
     d54:	72001c1f 	tst	w0, #0xff
     d58:	54000361 	b.ne	dc4 <drm_sched_dependency_optimized+0xac>  // b.any
drm_sched_dependency_optimized():
/data3/home/yuanqiliang/code/arm-kernel/drivers/gpu/drm/scheduler/gpu_scheduler.c:426
	if (fence->context == entity->fence_context)
     d5c:	f9401e62 	ldr	x2, [x19, #56]
/data3/home/yuanqiliang/code/arm-kernel/drivers/gpu/drm/scheduler/gpu_scheduler.c:427
		return true;
     d60:	52800020 	mov	w0, #0x1                   	// #1
/data3/home/yuanqiliang/code/arm-kernel/drivers/gpu/drm/scheduler/gpu_scheduler.c:426
	if (fence->context == entity->fence_context)
     d64:	f9402281 	ldr	x1, [x20, #64]
     d68:	eb01005f 	cmp	x2, x1
     d6c:	54000200 	b.eq	dac <drm_sched_dependency_optimized+0x94>  // b.none
/data3/home/yuanqiliang/code/arm-kernel/drivers/gpu/drm/scheduler/gpu_scheduler.c:428
	s_fence = to_drm_sched_fence(fence);
     d70:	aa1303e0 	mov	x0, x19
     d74:	94000000 	bl	1c50 <to_drm_sched_fence>
/data3/home/yuanqiliang/code/arm-kernel/drivers/gpu/drm/scheduler/gpu_scheduler.c:429
	if (s_fence && s_fence->sched == sched)
     d78:	b4000100 	cbz	x0, d98 <drm_sched_dependency_optimized+0x80>
/data3/home/yuanqiliang/code/arm-kernel/drivers/gpu/drm/scheduler/gpu_scheduler.c:429 (discriminator 1)
     d7c:	f9407000 	ldr	x0, [x0, #224]
     d80:	eb15001f 	cmp	x0, x21
     d84:	f94013f5 	ldr	x21, [sp, #32]
     d88:	1a9f17e0 	cset	w0, eq  // eq = none
/data3/home/yuanqiliang/code/arm-kernel/drivers/gpu/drm/scheduler/gpu_scheduler.c:433
}
     d8c:	a94153f3 	ldp	x19, x20, [sp, #16]
     d90:	a8c37bfd 	ldp	x29, x30, [sp], #48
     d94:	d65f03c0 	ret
     d98:	f94013f5 	ldr	x21, [sp, #32]
/data3/home/yuanqiliang/code/arm-kernel/drivers/gpu/drm/scheduler/gpu_scheduler.c:425
		return false;
     d9c:	52800000 	mov	w0, #0x0                   	// #0
/data3/home/yuanqiliang/code/arm-kernel/drivers/gpu/drm/scheduler/gpu_scheduler.c:433
}
     da0:	a94153f3 	ldp	x19, x20, [sp, #16]
     da4:	a8c37bfd 	ldp	x29, x30, [sp], #48
     da8:	d65f03c0 	ret
     dac:	a94153f3 	ldp	x19, x20, [sp, #16]
     db0:	f94013f5 	ldr	x21, [sp, #32]
     db4:	a8c37bfd 	ldp	x29, x30, [sp], #48
     db8:	d65f03c0 	ret
/data3/home/yuanqiliang/code/arm-kernel/drivers/gpu/drm/scheduler/gpu_scheduler.c:425
		return false;
     dbc:	52800000 	mov	w0, #0x0                   	// #0
/data3/home/yuanqiliang/code/arm-kernel/drivers/gpu/drm/scheduler/gpu_scheduler.c:433
}
     dc0:	d65f03c0 	ret
dma_fence_is_signaled():
/data3/home/yuanqiliang/code/arm-kernel/./include/linux/dma-fence.h:402
		dma_fence_signal(fence);
     dc4:	aa1303e0 	mov	x0, x19
     dc8:	94000000 	bl	0 <dma_fence_signal>
drm_sched_dependency_optimized():
/data3/home/yuanqiliang/code/arm-kernel/drivers/gpu/drm/scheduler/gpu_scheduler.c:425
		return false;
     dcc:	52800000 	mov	w0, #0x0                   	// #0
     dd0:	f94013f5 	ldr	x21, [sp, #32]
     dd4:	17ffffee 	b	d8c <drm_sched_dependency_optimized+0x74>

0000000000000dd8 <drm_sched_process_job>:
drm_sched_process_job():
/data3/home/yuanqiliang/code/arm-kernel/drivers/gpu/drm/scheduler/gpu_scheduler.c:809
 * @cb: fence callbacks
 *
 * Called after job has finished execution.
 */
static void drm_sched_process_job(struct dma_fence *f, struct dma_fence_cb *cb)
{
     dd8:	a9bd7bfd 	stp	x29, x30, [sp, #-48]!
     ddc:	910003fd 	mov	x29, sp
     de0:	a90153f3 	stp	x19, x20, [sp, #16]
/data3/home/yuanqiliang/code/arm-kernel/drivers/gpu/drm/scheduler/gpu_scheduler.c:811
	struct drm_sched_fence *s_fence =
		container_of(cb, struct drm_sched_fence, cb);
     de4:	d1030034 	sub	x20, x1, #0xc0
/data3/home/yuanqiliang/code/arm-kernel/drivers/gpu/drm/scheduler/gpu_scheduler.c:809
{
     de8:	a9025bf5 	stp	x21, x22, [sp, #32]
dma_fence_get():
/data3/home/yuanqiliang/code/arm-kernel/./include/linux/dma-fence.h:270
	if (fence)
     dec:	b1018296 	adds	x22, x20, #0x60
drm_sched_process_job():
/data3/home/yuanqiliang/code/arm-kernel/drivers/gpu/drm/scheduler/gpu_scheduler.c:812
	struct drm_gpu_scheduler *sched = s_fence->sched;
     df0:	f9407295 	ldr	x21, [x20, #224]
dma_fence_get():
/data3/home/yuanqiliang/code/arm-kernel/./include/linux/dma-fence.h:270
     df4:	54000060 	b.eq	e00 <drm_sched_process_job+0x28>  // b.none
kref_get():
/data3/home/yuanqiliang/code/arm-kernel/./include/linux/kref.h:47
	refcount_inc(&kref->refcount);
     df8:	aa1603e0 	mov	x0, x22
     dfc:	94000000 	bl	0 <refcount_inc_checked>
atomic_sub():
/data3/home/yuanqiliang/code/arm-kernel/./arch/arm64/include/asm/atomic_ll_sc.h:103
ATOMIC_OPS(sub, sub)
     e00:	910462a2 	add	x2, x21, #0x118
     e04:	f9800051 	prfm	pstl1strm, [x2]
     e08:	885f7c40 	ldxr	w0, [x2]
     e0c:	51000400 	sub	w0, w0, #0x1
     e10:	88017c40 	stxr	w1, w0, [x2]
     e14:	35ffffa1 	cbnz	w1, e08 <drm_sched_process_job+0x30>
drm_sched_process_job():
/data3/home/yuanqiliang/code/arm-kernel/drivers/gpu/drm/scheduler/gpu_scheduler.c:816

	dma_fence_get(&s_fence->finished);
	atomic_dec(&sched->hw_rq_count);
	drm_sched_fence_finished(s_fence);
     e18:	aa1403e0 	mov	x0, x20
     e1c:	94000000 	bl	1de0 <drm_sched_fence_finished>
arch_static_branch():
/data3/home/yuanqiliang/code/arm-kernel/./arch/arm64/include/asm/jump_label.h:20

#define JUMP_LABEL_NOP_SIZE		AARCH64_INSN_SIZE

static __always_inline bool arch_static_branch(struct static_key *key, bool branch)
{
	asm_volatile_goto("1: nop\n\t"
     e20:	d503201f 	nop
dma_fence_put():
/data3/home/yuanqiliang/code/arm-kernel/./include/linux/dma-fence.h:258
	if (fence)
     e24:	b40000f6 	cbz	x22, e40 <drm_sched_process_job+0x68>
kref_put():
/data3/home/yuanqiliang/code/arm-kernel/./include/linux/kref.h:69
	if (refcount_dec_and_test(&kref->refcount)) {
     e28:	aa1603e0 	mov	x0, x22
     e2c:	94000000 	bl	0 <refcount_dec_and_test_checked>
     e30:	72001c1f 	tst	w0, #0xff
     e34:	54000060 	b.eq	e40 <drm_sched_process_job+0x68>  // b.none
/data3/home/yuanqiliang/code/arm-kernel/./include/linux/kref.h:70
		release(kref);
     e38:	aa1603e0 	mov	x0, x22
     e3c:	94000000 	bl	0 <dma_fence_release>
drm_sched_process_job():
/data3/home/yuanqiliang/code/arm-kernel/drivers/gpu/drm/scheduler/gpu_scheduler.c:820

	trace_drm_sched_process_job(s_fence);
	dma_fence_put(&s_fence->finished);
	wake_up_interruptible(&sched->wake_up_worker);
     e40:	9103a2a0 	add	x0, x21, #0xe8
     e44:	52800022 	mov	w2, #0x1                   	// #1
     e48:	d2800003 	mov	x3, #0x0                   	// #0
     e4c:	2a0203e1 	mov	w1, w2
     e50:	94000000 	bl	0 <__wake_up>
/data3/home/yuanqiliang/code/arm-kernel/drivers/gpu/drm/scheduler/gpu_scheduler.c:821
}
     e54:	a94153f3 	ldp	x19, x20, [sp, #16]
     e58:	a9425bf5 	ldp	x21, x22, [sp, #32]
     e5c:	a8c37bfd 	ldp	x29, x30, [sp], #48
     e60:	d65f03c0 	ret
trace_drm_sched_process_job():
/data3/home/yuanqiliang/code/arm-kernel/drivers/gpu/drm/scheduler/gpu_scheduler_trace.h:64
		      __entry->entity, __entry->id,
		      __entry->fence, __entry->name,
		      __entry->job_count, __entry->hw_job_count)
);

TRACE_EVENT(drm_sched_process_job,
     e64:	90000000 	adrp	x0, 0 <cpu_number>
     e68:	91000000 	add	x0, x0, #0x0
__my_cpu_offset():
/data3/home/yuanqiliang/code/arm-kernel/./arch/arm64/include/asm/percpu.h:30
     e6c:	d538d081 	mrs	x1, tpidr_el1
trace_drm_sched_process_job():
/data3/home/yuanqiliang/code/arm-kernel/drivers/gpu/drm/scheduler/gpu_scheduler_trace.h:64
     e70:	b8616801 	ldr	w1, [x0, x1]
test_bit():
/data3/home/yuanqiliang/code/arm-kernel/./include/asm-generic/bitops/non-atomic.h:106
     e74:	90000002 	adrp	x2, 0 <__cpu_online_mask>
     e78:	91000042 	add	x2, x2, #0x0
     e7c:	7100003f 	cmp	w1, #0x0
     e80:	1100fc20 	add	w0, w1, #0x3f
     e84:	1a81b000 	csel	w0, w0, w1, lt  // lt = tstop
     e88:	13067c00 	asr	w0, w0, #6
     e8c:	93407c00 	sxtw	x0, w0
     e90:	f8607840 	ldr	x0, [x2, x0, lsl #3]
     e94:	9ac12401 	lsr	x1, x0, x1
trace_drm_sched_process_job():
/data3/home/yuanqiliang/code/arm-kernel/drivers/gpu/drm/scheduler/gpu_scheduler_trace.h:64
     e98:	3607fc61 	tbz	w1, #0, e24 <drm_sched_process_job+0x4c>
__read_once_size():
/data3/home/yuanqiliang/code/arm-kernel/./include/linux/compiler.h:193
     e9c:	90000000 	adrp	x0, 0 <drm_sched_job_timedout>
     ea0:	91000000 	add	x0, x0, #0x0
     ea4:	f9401413 	ldr	x19, [x0, #40]
trace_drm_sched_process_job():
/data3/home/yuanqiliang/code/arm-kernel/drivers/gpu/drm/scheduler/gpu_scheduler_trace.h:64
     ea8:	b40000f3 	cbz	x19, ec4 <drm_sched_process_job+0xec>
     eac:	f9400262 	ldr	x2, [x19]
     eb0:	aa1403e1 	mov	x1, x20
     eb4:	f9400660 	ldr	x0, [x19, #8]
     eb8:	d63f0040 	blr	x2
     ebc:	f8418e62 	ldr	x2, [x19, #24]!
     ec0:	b5ffff82 	cbnz	x2, eb0 <drm_sched_process_job+0xd8>
     ec4:	17ffffd8 	b	e24 <drm_sched_process_job+0x4c>

0000000000000ec8 <drm_sched_job_recovery>:
drm_sched_job_recovery():
/data3/home/yuanqiliang/code/arm-kernel/drivers/gpu/drm/scheduler/gpu_scheduler.c:668
{
     ec8:	a9b97bfd 	stp	x29, x30, [sp, #-112]!
     ecc:	910003fd 	mov	x29, sp
     ed0:	a90153f3 	stp	x19, x20, [sp, #16]
     ed4:	a9025bf5 	stp	x21, x22, [sp, #32]
     ed8:	a90363f7 	stp	x23, x24, [sp, #48]
     edc:	aa0003f7 	mov	x23, x0
     ee0:	a9046bf9 	stp	x25, x26, [sp, #64]
__cmpxchg_case_acq_4():
/data3/home/yuanqiliang/code/arm-kernel/./arch/arm64/include/asm/atomic_ll_sc.h:272
__CMPXCHG_CASE(w,  , acq_4,        , a,  , "memory")
     ee4:	d2800000 	mov	x0, #0x0                   	// #0
do_raw_spin_lock():
/data3/home/yuanqiliang/code/arm-kernel/./include/linux/spinlock.h:180
     ee8:	910502f3 	add	x19, x23, #0x140
__cmpxchg_case_acq_4():
/data3/home/yuanqiliang/code/arm-kernel/./arch/arm64/include/asm/atomic_ll_sc.h:272
     eec:	d2800022 	mov	x2, #0x1                   	// #1
     ef0:	f9800271 	prfm	pstl1strm, [x19]
     ef4:	885ffe61 	ldaxr	w1, [x19]
     ef8:	4a000023 	eor	w3, w1, w0
     efc:	35000063 	cbnz	w3, f08 <drm_sched_job_recovery+0x40>
     f00:	88037e62 	stxr	w3, w2, [x19]
     f04:	35ffff83 	cbnz	w3, ef4 <drm_sched_job_recovery+0x2c>
queued_spin_lock():
/data3/home/yuanqiliang/code/arm-kernel/./include/asm-generic/qspinlock.h:86
	if (likely(val == 0))
     f08:	35000f21 	cbnz	w1, 10ec <drm_sched_job_recovery+0x224>
__read_once_size():
/data3/home/yuanqiliang/code/arm-kernel/./include/linux/compiler.h:193
     f0c:	f9409ae2 	ldr	x2, [x23, #304]
drm_sched_job_recovery():
/data3/home/yuanqiliang/code/arm-kernel/drivers/gpu/drm/scheduler/gpu_scheduler.c:674
	s_job = list_first_entry_or_null(&sched->ring_mirror_list,
     f10:	9104c2f9 	add	x25, x23, #0x130
     f14:	eb02033f 	cmp	x25, x2
     f18:	54000180 	b.eq	f48 <drm_sched_job_recovery+0x80>  // b.none
/data3/home/yuanqiliang/code/arm-kernel/drivers/gpu/drm/scheduler/gpu_scheduler.c:676 (discriminator 5)
	if (s_job && sched->timeout != MAX_SCHEDULE_TIMEOUT)
     f1c:	f101405f 	cmp	x2, #0x50
     f20:	54000140 	b.eq	f48 <drm_sched_job_recovery+0x80>  // b.none
/data3/home/yuanqiliang/code/arm-kernel/drivers/gpu/drm/scheduler/gpu_scheduler.c:676 (discriminator 1)
     f24:	f9400ae3 	ldr	x3, [x23, #16]
     f28:	92f00000 	mov	x0, #0x7fffffffffffffff    	// #9223372036854775807
     f2c:	eb00007f 	cmp	x3, x0
     f30:	540000c0 	b.eq	f48 <drm_sched_job_recovery+0x80>  // b.none
schedule_delayed_work():
/data3/home/yuanqiliang/code/arm-kernel/./include/linux/workqueue.h:628
 * workqueue.
 */
static inline bool schedule_delayed_work(struct delayed_work *dwork,
					 unsigned long delay)
{
	return queue_delayed_work(system_wq, dwork, delay);
     f34:	90000001 	adrp	x1, 0 <system_wq>
queue_delayed_work():
/data3/home/yuanqiliang/code/arm-kernel/./include/linux/workqueue.h:527
	return queue_delayed_work_on(WORK_CPU_UNBOUND, wq, dwork, delay);
     f38:	91004042 	add	x2, x2, #0x10
     f3c:	52802000 	mov	w0, #0x100                 	// #256
     f40:	f9400021 	ldr	x1, [x1]
     f44:	94000000 	bl	0 <queue_delayed_work_on>
drm_sched_job_recovery():
/data3/home/yuanqiliang/code/arm-kernel/drivers/gpu/drm/scheduler/gpu_scheduler.c:679
	list_for_each_entry_safe(s_job, tmp, &sched->ring_mirror_list, node) {
     f48:	f9409af4 	ldr	x20, [x23, #304]
     f4c:	910462f6 	add	x22, x23, #0x118
/data3/home/yuanqiliang/code/arm-kernel/drivers/gpu/drm/scheduler/gpu_scheduler.c:670
	bool found_guilty = false;
     f50:	5280001a 	mov	w26, #0x0                   	// #0
/data3/home/yuanqiliang/code/arm-kernel/drivers/gpu/drm/scheduler/gpu_scheduler.c:679
	list_for_each_entry_safe(s_job, tmp, &sched->ring_mirror_list, node) {
     f54:	eb14033f 	cmp	x25, x20
     f58:	f85b0695 	ldr	x21, [x20], #-80
     f5c:	d10142b5 	sub	x21, x21, #0x50
     f60:	54000ae0 	b.eq	10bc <drm_sched_job_recovery+0x1f4>  // b.none
dma_fence_set_error():
/data3/home/yuanqiliang/code/arm-kernel/./include/linux/dma-fence.h:503
	WARN_ON(test_bit(DMA_FENCE_FLAG_SIGNALED_BIT, &fence->flags));
     f64:	90000000 	adrp	x0, 0 <drm_sched_job_timedout>
     f68:	91000000 	add	x0, x0, #0x0
     f6c:	a90573fb 	stp	x27, x28, [sp, #80]
drm_sched_job_recovery():
/data3/home/yuanqiliang/code/arm-kernel/drivers/gpu/drm/scheduler/gpu_scheduler.c:698
			r = dma_fence_add_callback(fence, &s_fence->cb,
     f70:	9000001b 	adrp	x27, 0 <drm_sched_job_timedout>
     f74:	9100037b 	add	x27, x27, #0x0
dma_fence_set_error():
/data3/home/yuanqiliang/code/arm-kernel/./include/linux/dma-fence.h:503
     f78:	f90037e0 	str	x0, [sp, #104]
     f7c:	14000031 	b	1040 <drm_sched_job_recovery+0x178>
drm_sched_job_recovery():
/data3/home/yuanqiliang/code/arm-kernel/drivers/gpu/drm/scheduler/gpu_scheduler.c:689 (discriminator 1)
		if (found_guilty && s_job->s_fence->scheduled.context == guilty_context)
     f80:	f9401f80 	ldr	x0, [x28, #56]
     f84:	f94033e1 	ldr	x1, [sp, #96]
     f88:	eb01001f 	cmp	x0, x1
     f8c:	540006a0 	b.eq	1060 <drm_sched_job_recovery+0x198>  // b.none
queued_spin_unlock():
/data3/home/yuanqiliang/code/arm-kernel/./include/asm-generic/qspinlock.h:101
	smp_store_release(&lock->locked, 0);
     f90:	52800000 	mov	w0, #0x0                   	// #0
     f94:	089ffe60 	stlrb	w0, [x19]
drm_sched_job_recovery():
/data3/home/yuanqiliang/code/arm-kernel/drivers/gpu/drm/scheduler/gpu_scheduler.c:693
		fence = sched->ops->run_job(s_job);
     f98:	f94002e2 	ldr	x2, [x23]
     f9c:	aa1403e0 	mov	x0, x20
     fa0:	f9400442 	ldr	x2, [x2, #8]
     fa4:	d63f0040 	blr	x2
     fa8:	aa0003f4 	mov	x20, x0
atomic_add():
/data3/home/yuanqiliang/code/arm-kernel/./arch/arm64/include/asm/atomic_ll_sc.h:102
ATOMIC_OPS(add, add)
     fac:	f98002d1 	prfm	pstl1strm, [x22]
     fb0:	885f7ec2 	ldxr	w2, [x22]
     fb4:	11000442 	add	w2, w2, #0x1
     fb8:	88037ec2 	stxr	w3, w2, [x22]
     fbc:	35ffffa3 	cbnz	w3, fb0 <drm_sched_job_recovery+0xe8>
drm_sched_job_recovery():
/data3/home/yuanqiliang/code/arm-kernel/drivers/gpu/drm/scheduler/gpu_scheduler.c:696
		if (fence) {
     fc0:	91030398 	add	x24, x28, #0xc0
     fc4:	b4000620 	cbz	x0, 1088 <drm_sched_job_recovery+0x1c0>
kref_get():
/data3/home/yuanqiliang/code/arm-kernel/./include/linux/kref.h:47
	refcount_inc(&kref->refcount);
     fc8:	94000000 	bl	0 <refcount_inc_checked>
drm_sched_job_recovery():
/data3/home/yuanqiliang/code/arm-kernel/drivers/gpu/drm/scheduler/gpu_scheduler.c:697
			s_fence->parent = dma_fence_get(fence);
     fcc:	f9006f94 	str	x20, [x28, #216]
/data3/home/yuanqiliang/code/arm-kernel/drivers/gpu/drm/scheduler/gpu_scheduler.c:698
			r = dma_fence_add_callback(fence, &s_fence->cb,
     fd0:	aa1b03e2 	mov	x2, x27
     fd4:	aa1803e1 	mov	x1, x24
     fd8:	aa1403e0 	mov	x0, x20
     fdc:	94000000 	bl	0 <dma_fence_add_callback>
/data3/home/yuanqiliang/code/arm-kernel/drivers/gpu/drm/scheduler/gpu_scheduler.c:700
			if (r == -ENOENT)
     fe0:	3100081f 	cmn	w0, #0x2
     fe4:	54000620 	b.eq	10a8 <drm_sched_job_recovery+0x1e0>  // b.none
/data3/home/yuanqiliang/code/arm-kernel/drivers/gpu/drm/scheduler/gpu_scheduler.c:702
			else if (r)
     fe8:	35000560 	cbnz	w0, 1094 <drm_sched_job_recovery+0x1cc>
kref_put():
/data3/home/yuanqiliang/code/arm-kernel/./include/linux/kref.h:69
	if (refcount_dec_and_test(&kref->refcount)) {
     fec:	aa1403e0 	mov	x0, x20
     ff0:	94000000 	bl	0 <refcount_dec_and_test_checked>
     ff4:	72001c1f 	tst	w0, #0xff
     ff8:	54000060 	b.eq	1004 <drm_sched_job_recovery+0x13c>  // b.none
/data3/home/yuanqiliang/code/arm-kernel/./include/linux/kref.h:70
		release(kref);
     ffc:	aa1403e0 	mov	x0, x20
    1000:	94000000 	bl	0 <dma_fence_release>
__cmpxchg_case_acq_4():
/data3/home/yuanqiliang/code/arm-kernel/./arch/arm64/include/asm/atomic_ll_sc.h:272
__CMPXCHG_CASE(w,  , acq_4,        , a,  , "memory")
    1004:	d2800000 	mov	x0, #0x0                   	// #0
    1008:	d2800022 	mov	x2, #0x1                   	// #1
    100c:	f9800271 	prfm	pstl1strm, [x19]
    1010:	885ffe61 	ldaxr	w1, [x19]
    1014:	4a000023 	eor	w3, w1, w0
    1018:	35000063 	cbnz	w3, 1024 <drm_sched_job_recovery+0x15c>
    101c:	88037e62 	stxr	w3, w2, [x19]
    1020:	35ffff83 	cbnz	w3, 1010 <drm_sched_job_recovery+0x148>
queued_spin_lock():
/data3/home/yuanqiliang/code/arm-kernel/./include/asm-generic/qspinlock.h:86
	if (likely(val == 0))
    1024:	350005e1 	cbnz	w1, 10e0 <drm_sched_job_recovery+0x218>
drm_sched_job_recovery():
/data3/home/yuanqiliang/code/arm-kernel/drivers/gpu/drm/scheduler/gpu_scheduler.c:679
	list_for_each_entry_safe(s_job, tmp, &sched->ring_mirror_list, node) {
    1028:	f9402aa0 	ldr	x0, [x21, #80]
    102c:	910142a1 	add	x1, x21, #0x50
    1030:	aa1503f4 	mov	x20, x21
    1034:	eb01033f 	cmp	x25, x1
    1038:	d1014015 	sub	x21, x0, #0x50
    103c:	540003e0 	b.eq	10b8 <drm_sched_job_recovery+0x1f0>  // b.none
/data3/home/yuanqiliang/code/arm-kernel/drivers/gpu/drm/scheduler/gpu_scheduler.c:680
		struct drm_sched_fence *s_fence = s_job->s_fence;
    1040:	f9400a9c 	ldr	x28, [x20, #16]
/data3/home/yuanqiliang/code/arm-kernel/drivers/gpu/drm/scheduler/gpu_scheduler.c:684
		if (!found_guilty && atomic_read(&s_job->karma) > sched->hang_limit) {
    1044:	35fff9fa 	cbnz	w26, f80 <drm_sched_job_recovery+0xb8>
__read_once_size():
/data3/home/yuanqiliang/code/arm-kernel/./include/linux/compiler.h:193 (discriminator 2)
    1048:	b940c280 	ldr	w0, [x20, #192]
drm_sched_job_recovery():
/data3/home/yuanqiliang/code/arm-kernel/drivers/gpu/drm/scheduler/gpu_scheduler.c:684 (discriminator 2)
    104c:	b94146e2 	ldr	w2, [x23, #324]
    1050:	6b00005f 	cmp	w2, w0
    1054:	54fff9ea 	b.ge	f90 <drm_sched_job_recovery+0xc8>  // b.tcont
/data3/home/yuanqiliang/code/arm-kernel/drivers/gpu/drm/scheduler/gpu_scheduler.c:686
			guilty_context = s_job->s_fence->scheduled.context;
    1058:	f9401f80 	ldr	x0, [x28, #56]
    105c:	f90033e0 	str	x0, [sp, #96]
test_bit():
/data3/home/yuanqiliang/code/arm-kernel/./include/asm-generic/bitops/non-atomic.h:106
    1060:	f9405780 	ldr	x0, [x28, #168]
dma_fence_set_error():
/data3/home/yuanqiliang/code/arm-kernel/./include/linux/dma-fence.h:503
    1064:	360000a0 	tbz	w0, #0, 1078 <drm_sched_job_recovery+0x1b0>
    1068:	f94037e0 	ldr	x0, [sp, #104]
    106c:	94000000 	bl	0 <printk>
    1070:	d4210000 	brk	#0x800
    1074:	d503201f 	nop
/data3/home/yuanqiliang/code/arm-kernel/./include/linux/dma-fence.h:506
	fence->error = error;
    1078:	12800f80 	mov	w0, #0xffffff83            	// #-125
    107c:	5280003a 	mov	w26, #0x1                   	// #1
    1080:	b900bb80 	str	w0, [x28, #184]
    1084:	17ffffc3 	b	f90 <drm_sched_job_recovery+0xc8>
drm_sched_job_recovery():
/data3/home/yuanqiliang/code/arm-kernel/drivers/gpu/drm/scheduler/gpu_scheduler.c:707
			drm_sched_process_job(NULL, &s_fence->cb);
    1088:	aa1803e1 	mov	x1, x24
    108c:	97ffff53 	bl	dd8 <drm_sched_process_job>
    1090:	17ffffdd 	b	1004 <drm_sched_job_recovery+0x13c>
/data3/home/yuanqiliang/code/arm-kernel/drivers/gpu/drm/scheduler/gpu_scheduler.c:703
				DRM_ERROR("fence add callback failed (%d)\n",
    1094:	2a0003e1 	mov	w1, w0
    1098:	90000000 	adrp	x0, 0 <drm_sched_job_timedout>
    109c:	91000000 	add	x0, x0, #0x0
    10a0:	94000000 	bl	0 <drm_err>
    10a4:	17ffffd2 	b	fec <drm_sched_job_recovery+0x124>
/data3/home/yuanqiliang/code/arm-kernel/drivers/gpu/drm/scheduler/gpu_scheduler.c:701
				drm_sched_process_job(fence, &s_fence->cb);
    10a8:	aa1803e1 	mov	x1, x24
    10ac:	aa1403e0 	mov	x0, x20
    10b0:	97ffff4a 	bl	dd8 <drm_sched_process_job>
    10b4:	17ffffce 	b	fec <drm_sched_job_recovery+0x124>
    10b8:	a94573fb 	ldp	x27, x28, [sp, #80]
queued_spin_unlock():
/data3/home/yuanqiliang/code/arm-kernel/./include/asm-generic/qspinlock.h:101
	smp_store_release(&lock->locked, 0);
    10bc:	52800000 	mov	w0, #0x0                   	// #0
    10c0:	910502e1 	add	x1, x23, #0x140
    10c4:	089ffc20 	stlrb	w0, [x1]
drm_sched_job_recovery():
/data3/home/yuanqiliang/code/arm-kernel/drivers/gpu/drm/scheduler/gpu_scheduler.c:712
}
    10c8:	a94153f3 	ldp	x19, x20, [sp, #16]
    10cc:	a9425bf5 	ldp	x21, x22, [sp, #32]
    10d0:	a94363f7 	ldp	x23, x24, [sp, #48]
    10d4:	a9446bf9 	ldp	x25, x26, [sp, #64]
    10d8:	a8c77bfd 	ldp	x29, x30, [sp], #112
    10dc:	d65f03c0 	ret
queued_spin_lock():
/data3/home/yuanqiliang/code/arm-kernel/./include/asm-generic/qspinlock.h:88
	queued_spin_lock_slowpath(lock, val);
    10e0:	aa1303e0 	mov	x0, x19
    10e4:	94000000 	bl	0 <queued_spin_lock_slowpath>
    10e8:	17ffffd0 	b	1028 <drm_sched_job_recovery+0x160>
    10ec:	aa1303e0 	mov	x0, x19
    10f0:	94000000 	bl	0 <queued_spin_lock_slowpath>
    10f4:	17ffff86 	b	f0c <drm_sched_job_recovery+0x44>

00000000000010f8 <drm_sched_job_init>:
drm_sched_job_init():
/data3/home/yuanqiliang/code/arm-kernel/drivers/gpu/drm/scheduler/gpu_scheduler.c:730
{
    10f8:	a9be7bfd 	stp	x29, x30, [sp, #-32]!
    10fc:	aa0103e3 	mov	x3, x1
/data3/home/yuanqiliang/code/arm-kernel/drivers/gpu/drm/scheduler/gpu_scheduler.c:736
	job->s_fence = drm_sched_fence_create(entity, owner);
    1100:	aa0203e1 	mov	x1, x2
/data3/home/yuanqiliang/code/arm-kernel/drivers/gpu/drm/scheduler/gpu_scheduler.c:730
{
    1104:	910003fd 	mov	x29, sp
    1108:	a90153f3 	stp	x19, x20, [sp, #16]
    110c:	aa0003f3 	mov	x19, x0
/data3/home/yuanqiliang/code/arm-kernel/drivers/gpu/drm/scheduler/gpu_scheduler.c:735
	job->s_priority = entity->rq - sched->sched_rq;
    1110:	b202e7e4 	mov	x4, #0xcccccccccccccccc    	// #-3689348814741910324
/data3/home/yuanqiliang/code/arm-kernel/drivers/gpu/drm/scheduler/gpu_scheduler.c:731
	struct drm_gpu_scheduler *sched = entity->rq->sched;
    1114:	f9400862 	ldr	x2, [x3, #16]
/data3/home/yuanqiliang/code/arm-kernel/drivers/gpu/drm/scheduler/gpu_scheduler.c:735
	job->s_priority = entity->rq - sched->sched_rq;
    1118:	f29999a4 	movk	x4, #0xcccd
/data3/home/yuanqiliang/code/arm-kernel/drivers/gpu/drm/scheduler/gpu_scheduler.c:736
	job->s_fence = drm_sched_fence_create(entity, owner);
    111c:	aa0303e0 	mov	x0, x3
/data3/home/yuanqiliang/code/arm-kernel/drivers/gpu/drm/scheduler/gpu_scheduler.c:731
	struct drm_gpu_scheduler *sched = entity->rq->sched;
    1120:	f9400454 	ldr	x20, [x2, #8]
/data3/home/yuanqiliang/code/arm-kernel/drivers/gpu/drm/scheduler/gpu_scheduler.c:733
	job->sched = sched;
    1124:	f9000674 	str	x20, [x19, #8]
/data3/home/yuanqiliang/code/arm-kernel/drivers/gpu/drm/scheduler/gpu_scheduler.c:734
	job->entity = entity;
    1128:	f9006663 	str	x3, [x19, #200]
/data3/home/yuanqiliang/code/arm-kernel/drivers/gpu/drm/scheduler/gpu_scheduler.c:735
	job->s_priority = entity->rq - sched->sched_rq;
    112c:	91008285 	add	x5, x20, #0x20
    1130:	f9400862 	ldr	x2, [x3, #16]
    1134:	cb050042 	sub	x2, x2, x5
    1138:	9343fc42 	asr	x2, x2, #3
    113c:	9b047c42 	mul	x2, x2, x4
    1140:	b900c662 	str	w2, [x19, #196]
/data3/home/yuanqiliang/code/arm-kernel/drivers/gpu/drm/scheduler/gpu_scheduler.c:736
	job->s_fence = drm_sched_fence_create(entity, owner);
    1144:	94000000 	bl	1df8 <drm_sched_fence_create>
    1148:	f9000a60 	str	x0, [x19, #16]
/data3/home/yuanqiliang/code/arm-kernel/drivers/gpu/drm/scheduler/gpu_scheduler.c:737
	if (!job->s_fence)
    114c:	b4000460 	cbz	x0, 11d8 <drm_sched_job_init+0xe0>
atomic64_add_return():
/data3/home/yuanqiliang/code/arm-kernel/./arch/arm64/include/asm/atomic_ll_sc.h:196
ATOMIC64_OPS(add, add)
    1150:	91048281 	add	x1, x20, #0x120
    1154:	f9800031 	prfm	pstl1strm, [x1]
    1158:	c85f7c27 	ldxr	x7, [x1]
    115c:	910004e7 	add	x7, x7, #0x1
    1160:	c800fc27 	stlxr	w0, x7, [x1]
    1164:	35ffffa0 	cbnz	w0, 1158 <drm_sched_job_init+0x60>
    1168:	d5033bbf 	dmb	ish
drm_sched_job_init():
/data3/home/yuanqiliang/code/arm-kernel/drivers/gpu/drm/scheduler/gpu_scheduler.c:741
	INIT_WORK(&job->finish_work, drm_sched_job_finish);
    116c:	9100e261 	add	x1, x19, #0x38
__write_once_size():
/data3/home/yuanqiliang/code/arm-kernel/./include/linux/compiler.h:220
	case 8: *(volatile __u64 *)p = *(__u64 *)res; break;
    1170:	f9001e61 	str	x1, [x19, #56]
drm_sched_job_init():
/data3/home/yuanqiliang/code/arm-kernel/drivers/gpu/drm/scheduler/gpu_scheduler.c:742
	INIT_LIST_HEAD(&job->node);
    1174:	91014264 	add	x4, x19, #0x50
/data3/home/yuanqiliang/code/arm-kernel/drivers/gpu/drm/scheduler/gpu_scheduler.c:743
	INIT_DELAYED_WORK(&job->work_tdr, drm_sched_job_timedout);
    1178:	9101a266 	add	x6, x19, #0x68
    117c:	90000005 	adrp	x5, 0 <drm_sched_job_timedout>
    1180:	910000a5 	add	x5, x5, #0x0
__write_once_size():
/data3/home/yuanqiliang/code/arm-kernel/./include/linux/compiler.h:220
    1184:	f9002a64 	str	x4, [x19, #80]
drm_sched_job_init():
/data3/home/yuanqiliang/code/arm-kernel/drivers/gpu/drm/scheduler/gpu_scheduler.c:741
	INIT_WORK(&job->finish_work, drm_sched_job_finish);
    1188:	b27b7be3 	mov	x3, #0xfffffffe0           	// #68719476704
    118c:	90000002 	adrp	x2, 0 <drm_sched_job_timedout>
    1190:	91000042 	add	x2, x2, #0x0
    1194:	f9001a63 	str	x3, [x19, #48]
/data3/home/yuanqiliang/code/arm-kernel/drivers/gpu/drm/scheduler/gpu_scheduler.c:743
	INIT_DELAYED_WORK(&job->work_tdr, drm_sched_job_timedout);
    1198:	91020260 	add	x0, x19, #0x80
/data3/home/yuanqiliang/code/arm-kernel/drivers/gpu/drm/scheduler/gpu_scheduler.c:741
	INIT_WORK(&job->finish_work, drm_sched_job_finish);
    119c:	a9040a61 	stp	x1, x2, [x19, #64]
/data3/home/yuanqiliang/code/arm-kernel/drivers/gpu/drm/scheduler/gpu_scheduler.c:743
	INIT_DELAYED_WORK(&job->work_tdr, drm_sched_job_timedout);
    11a0:	90000001 	adrp	x1, 0 <delayed_work_timer_fn>
    11a4:	52a00402 	mov	w2, #0x200000              	// #2097152
    11a8:	a9058e64 	stp	x4, x3, [x19, #88]
    11ac:	91000021 	add	x1, x1, #0x0
    11b0:	d2800004 	mov	x4, #0x0                   	// #0
__write_once_size():
/data3/home/yuanqiliang/code/arm-kernel/./include/linux/compiler.h:220
    11b4:	f9003666 	str	x6, [x19, #104]
drm_sched_job_init():
/data3/home/yuanqiliang/code/arm-kernel/drivers/gpu/drm/scheduler/gpu_scheduler.c:743
    11b8:	d2800003 	mov	x3, #0x0                   	// #0
    11bc:	a9071666 	stp	x6, x5, [x19, #112]
/data3/home/yuanqiliang/code/arm-kernel/drivers/gpu/drm/scheduler/gpu_scheduler.c:739
	job->id = atomic64_inc_return(&sched->job_id_count);
    11c0:	f9005e67 	str	x7, [x19, #184]
/data3/home/yuanqiliang/code/arm-kernel/drivers/gpu/drm/scheduler/gpu_scheduler.c:743
	INIT_DELAYED_WORK(&job->work_tdr, drm_sched_job_timedout);
    11c4:	94000000 	bl	0 <init_timer_key>
/data3/home/yuanqiliang/code/arm-kernel/drivers/gpu/drm/scheduler/gpu_scheduler.c:745
	return 0;
    11c8:	52800000 	mov	w0, #0x0                   	// #0
/data3/home/yuanqiliang/code/arm-kernel/drivers/gpu/drm/scheduler/gpu_scheduler.c:746
}
    11cc:	a94153f3 	ldp	x19, x20, [sp, #16]
    11d0:	a8c27bfd 	ldp	x29, x30, [sp], #32
    11d4:	d65f03c0 	ret
/data3/home/yuanqiliang/code/arm-kernel/drivers/gpu/drm/scheduler/gpu_scheduler.c:738
		return -ENOMEM;
    11d8:	12800160 	mov	w0, #0xfffffff4            	// #-12
    11dc:	17fffffc 	b	11cc <drm_sched_job_init+0xd4>

00000000000011e0 <drm_sched_job_finish>:
drm_sched_job_finish():
/data3/home/yuanqiliang/code/arm-kernel/drivers/gpu/drm/scheduler/gpu_scheduler.c:547
{
    11e0:	a9bc7bfd 	stp	x29, x30, [sp, #-64]!
    11e4:	910003fd 	mov	x29, sp
    11e8:	a90153f3 	stp	x19, x20, [sp, #16]
    11ec:	aa0003f4 	mov	x20, x0
/data3/home/yuanqiliang/code/arm-kernel/drivers/gpu/drm/scheduler/gpu_scheduler.c:559
	cancel_delayed_work_sync(&s_job->work_tdr);
    11f0:	9100c000 	add	x0, x0, #0x30
/data3/home/yuanqiliang/code/arm-kernel/drivers/gpu/drm/scheduler/gpu_scheduler.c:547
{
    11f4:	a9025bf5 	stp	x21, x22, [sp, #32]
/data3/home/yuanqiliang/code/arm-kernel/drivers/gpu/drm/scheduler/gpu_scheduler.c:548
	struct drm_sched_job *s_job = container_of(work, struct drm_sched_job,
    11f8:	d100c296 	sub	x22, x20, #0x30
/data3/home/yuanqiliang/code/arm-kernel/drivers/gpu/drm/scheduler/gpu_scheduler.c:550
	struct drm_gpu_scheduler *sched = s_job->sched;
    11fc:	f85d8293 	ldur	x19, [x20, #-40]
/data3/home/yuanqiliang/code/arm-kernel/drivers/gpu/drm/scheduler/gpu_scheduler.c:559
	cancel_delayed_work_sync(&s_job->work_tdr);
    1200:	94000000 	bl	0 <cancel_delayed_work_sync>
__cmpxchg_case_acq_4():
/data3/home/yuanqiliang/code/arm-kernel/./arch/arm64/include/asm/atomic_ll_sc.h:272
__CMPXCHG_CASE(w,  , acq_4,        , a,  , "memory")
    1204:	d2800002 	mov	x2, #0x0                   	// #0
do_raw_spin_lock():
/data3/home/yuanqiliang/code/arm-kernel/./include/linux/spinlock.h:180
    1208:	91050260 	add	x0, x19, #0x140
__cmpxchg_case_acq_4():
/data3/home/yuanqiliang/code/arm-kernel/./arch/arm64/include/asm/atomic_ll_sc.h:272
    120c:	d2800023 	mov	x3, #0x1                   	// #1
    1210:	f9800011 	prfm	pstl1strm, [x0]
    1214:	885ffc01 	ldaxr	w1, [x0]
    1218:	4a020024 	eor	w4, w1, w2
    121c:	35000064 	cbnz	w4, 1228 <drm_sched_job_finish+0x48>
    1220:	88047c03 	stxr	w4, w3, [x0]
    1224:	35ffff84 	cbnz	w4, 1214 <drm_sched_job_finish+0x34>
queued_spin_lock():
/data3/home/yuanqiliang/code/arm-kernel/./include/asm-generic/qspinlock.h:86
	if (likely(val == 0))
    1228:	35000821 	cbnz	w1, 132c <drm_sched_job_finish+0x14c>
drm_sched_job_finish():
/data3/home/yuanqiliang/code/arm-kernel/drivers/gpu/drm/scheduler/gpu_scheduler.c:563
	if (sched->timeout != MAX_SCHEDULE_TIMEOUT &&
    122c:	f9400a63 	ldr	x3, [x19, #16]
    1230:	92f00000 	mov	x0, #0x7fffffffffffffff    	// #9223372036854775807
    1234:	f9401295 	ldr	x21, [x20, #32]
    1238:	eb00007f 	cmp	x3, x0
    123c:	54000300 	b.eq	129c <drm_sched_job_finish+0xbc>  // b.none
/data3/home/yuanqiliang/code/arm-kernel/drivers/gpu/drm/scheduler/gpu_scheduler.c:564 (discriminator 1)
	    !list_is_last(&s_job->node, &sched->ring_mirror_list)) {
    1240:	9104c260 	add	x0, x19, #0x130
/data3/home/yuanqiliang/code/arm-kernel/drivers/gpu/drm/scheduler/gpu_scheduler.c:563 (discriminator 1)
	if (sched->timeout != MAX_SCHEDULE_TIMEOUT &&
    1244:	eb0002bf 	cmp	x21, x0
    1248:	540002a0 	b.eq	129c <drm_sched_job_finish+0xbc>  // b.none
/data3/home/yuanqiliang/code/arm-kernel/drivers/gpu/drm/scheduler/gpu_scheduler.c:567
		if (!dma_fence_is_signaled(&next->s_fence->finished))
    124c:	f85c02a0 	ldur	x0, [x21, #-64]
test_bit():
/data3/home/yuanqiliang/code/arm-kernel/./include/asm-generic/bitops/non-atomic.h:106
    1250:	f9405401 	ldr	x1, [x0, #168]
dma_fence_is_signaled():
/data3/home/yuanqiliang/code/arm-kernel/./include/linux/dma-fence.h:398
	if (test_bit(DMA_FENCE_FLAG_SIGNALED_BIT, &fence->flags))
    1254:	37000241 	tbnz	w1, #0, 129c <drm_sched_job_finish+0xbc>
/data3/home/yuanqiliang/code/arm-kernel/./include/linux/dma-fence.h:401
	if (fence->ops->signaled && fence->ops->signaled(fence)) {
    1258:	f9001bf7 	str	x23, [sp, #48]
    125c:	91018017 	add	x23, x0, #0x60
    1260:	f94006e0 	ldr	x0, [x23, #8]
    1264:	f9400c01 	ldr	x1, [x0, #24]
    1268:	b40000c1 	cbz	x1, 1280 <drm_sched_job_finish+0xa0>
    126c:	aa1703e0 	mov	x0, x23
    1270:	d63f0020 	blr	x1
    1274:	72001c1f 	tst	w0, #0xff
    1278:	540005e1 	b.ne	1334 <drm_sched_job_finish+0x154>  // b.any
    127c:	f9400a63 	ldr	x3, [x19, #16]
schedule_delayed_work():
/data3/home/yuanqiliang/code/arm-kernel/./include/linux/workqueue.h:628
	return queue_delayed_work(system_wq, dwork, delay);
    1280:	90000001 	adrp	x1, 0 <system_wq>
queue_delayed_work():
/data3/home/yuanqiliang/code/arm-kernel/./include/linux/workqueue.h:527
	return queue_delayed_work_on(WORK_CPU_UNBOUND, wq, dwork, delay);
    1284:	910042a2 	add	x2, x21, #0x10
    1288:	52802000 	mov	w0, #0x100                 	// #256
    128c:	f9400021 	ldr	x1, [x1]
    1290:	94000000 	bl	0 <queue_delayed_work_on>
    1294:	f9401295 	ldr	x21, [x20, #32]
    1298:	f9401bf7 	ldr	x23, [sp, #48]
list_del():
/data3/home/yuanqiliang/code/arm-kernel/./include/linux/list.h:126
}

static inline void list_del(struct list_head *entry)
{
	__list_del_entry(entry);
	entry->next = LIST_POISON1;
    129c:	d2802003 	mov	x3, #0x100                 	// #256
__list_del_entry():
/data3/home/yuanqiliang/code/arm-kernel/./include/linux/list.h:120
	__list_del(entry->prev, entry->next);
    12a0:	f9401680 	ldr	x0, [x20, #40]
__list_del():
/data3/home/yuanqiliang/code/arm-kernel/./include/linux/list.h:105
	next->prev = prev;
    12a4:	f90006a0 	str	x0, [x21, #8]
list_del():
/data3/home/yuanqiliang/code/arm-kernel/./include/linux/list.h:127
	entry->prev = LIST_POISON2;
    12a8:	d2804002 	mov	x2, #0x200                 	// #512
/data3/home/yuanqiliang/code/arm-kernel/./include/linux/list.h:126
	entry->next = LIST_POISON1;
    12ac:	f2fbd5a3 	movk	x3, #0xdead, lsl #48
/data3/home/yuanqiliang/code/arm-kernel/./include/linux/list.h:127
	entry->prev = LIST_POISON2;
    12b0:	f2fbd5a2 	movk	x2, #0xdead, lsl #48
queued_spin_unlock():
/data3/home/yuanqiliang/code/arm-kernel/./include/asm-generic/qspinlock.h:101
	smp_store_release(&lock->locked, 0);
    12b4:	52800001 	mov	w1, #0x0                   	// #0
__write_once_size():
/data3/home/yuanqiliang/code/arm-kernel/./include/linux/compiler.h:220
    12b8:	f9000015 	str	x21, [x0]
queued_spin_unlock():
/data3/home/yuanqiliang/code/arm-kernel/./include/asm-generic/qspinlock.h:101
    12bc:	91050260 	add	x0, x19, #0x140
list_del():
/data3/home/yuanqiliang/code/arm-kernel/./include/linux/list.h:127
    12c0:	a9020a83 	stp	x3, x2, [x20, #32]
queued_spin_unlock():
/data3/home/yuanqiliang/code/arm-kernel/./include/asm-generic/qspinlock.h:101
    12c4:	089ffc01 	stlrb	w1, [x0]
drm_sched_job_finish():
/data3/home/yuanqiliang/code/arm-kernel/drivers/gpu/drm/scheduler/gpu_scheduler.c:574
	dma_fence_put(&s_job->s_fence->finished);
    12c8:	f85e0280 	ldur	x0, [x20, #-32]
dma_fence_put():
/data3/home/yuanqiliang/code/arm-kernel/./include/linux/dma-fence.h:258
	if (fence)
    12cc:	b1018014 	adds	x20, x0, #0x60
    12d0:	540000a0 	b.eq	12e4 <drm_sched_job_finish+0x104>  // b.none
kref_put():
/data3/home/yuanqiliang/code/arm-kernel/./include/linux/kref.h:69
	if (refcount_dec_and_test(&kref->refcount)) {
    12d4:	aa1403e0 	mov	x0, x20
    12d8:	94000000 	bl	0 <refcount_dec_and_test_checked>
    12dc:	72001c1f 	tst	w0, #0xff
    12e0:	54000121 	b.ne	1304 <drm_sched_job_finish+0x124>  // b.any
drm_sched_job_finish():
/data3/home/yuanqiliang/code/arm-kernel/drivers/gpu/drm/scheduler/gpu_scheduler.c:575
	sched->ops->free_job(s_job);
    12e4:	f9400261 	ldr	x1, [x19]
    12e8:	aa1603e0 	mov	x0, x22
    12ec:	f9400c21 	ldr	x1, [x1, #24]
    12f0:	d63f0020 	blr	x1
/data3/home/yuanqiliang/code/arm-kernel/drivers/gpu/drm/scheduler/gpu_scheduler.c:576
}
    12f4:	a94153f3 	ldp	x19, x20, [sp, #16]
    12f8:	a9425bf5 	ldp	x21, x22, [sp, #32]
    12fc:	a8c47bfd 	ldp	x29, x30, [sp], #64
    1300:	d65f03c0 	ret
kref_put():
/data3/home/yuanqiliang/code/arm-kernel/./include/linux/kref.h:70
		release(kref);
    1304:	aa1403e0 	mov	x0, x20
    1308:	94000000 	bl	0 <dma_fence_release>
drm_sched_job_finish():
/data3/home/yuanqiliang/code/arm-kernel/drivers/gpu/drm/scheduler/gpu_scheduler.c:575
	sched->ops->free_job(s_job);
    130c:	f9400261 	ldr	x1, [x19]
    1310:	aa1603e0 	mov	x0, x22
    1314:	f9400c21 	ldr	x1, [x1, #24]
    1318:	d63f0020 	blr	x1
/data3/home/yuanqiliang/code/arm-kernel/drivers/gpu/drm/scheduler/gpu_scheduler.c:576
}
    131c:	a94153f3 	ldp	x19, x20, [sp, #16]
    1320:	a9425bf5 	ldp	x21, x22, [sp, #32]
    1324:	a8c47bfd 	ldp	x29, x30, [sp], #64
    1328:	d65f03c0 	ret
queued_spin_lock():
/data3/home/yuanqiliang/code/arm-kernel/./include/asm-generic/qspinlock.h:88
	queued_spin_lock_slowpath(lock, val);
    132c:	94000000 	bl	0 <queued_spin_lock_slowpath>
    1330:	17ffffbf 	b	122c <drm_sched_job_finish+0x4c>
dma_fence_is_signaled():
/data3/home/yuanqiliang/code/arm-kernel/./include/linux/dma-fence.h:402
		dma_fence_signal(fence);
    1334:	aa1703e0 	mov	x0, x23
    1338:	94000000 	bl	0 <dma_fence_signal>
/data3/home/yuanqiliang/code/arm-kernel/./include/linux/dma-fence.h:403
		return true;
    133c:	f9401295 	ldr	x21, [x20, #32]
    1340:	f9401bf7 	ldr	x23, [sp, #48]
    1344:	17ffffd6 	b	129c <drm_sched_job_finish+0xbc>

0000000000001348 <drm_sched_init>:
drm_sched_init():
/data3/home/yuanqiliang/code/arm-kernel/drivers/gpu/drm/scheduler/gpu_scheduler.c:918
		   const struct drm_sched_backend_ops *ops,
		   unsigned hw_submission,
		   unsigned hang_limit,
		   long timeout,
		   const char *name)
{
    1348:	a9bd7bfd 	stp	x29, x30, [sp, #-48]!
    134c:	910003fd 	mov	x29, sp
    1350:	a90153f3 	stp	x19, x20, [sp, #16]
    1354:	aa0003f3 	mov	x19, x0
    1358:	9103e266 	add	x6, x19, #0xf8
    135c:	9100c000 	add	x0, x0, #0x30
    1360:	f90013f5 	str	x21, [sp, #32]
    1364:	aa0503f5 	mov	x21, x5
/data3/home/yuanqiliang/code/arm-kernel/drivers/gpu/drm/scheduler/gpu_scheduler.c:920
	int i;
	sched->ops = ops;
    1368:	f9000261 	str	x1, [x19]
/data3/home/yuanqiliang/code/arm-kernel/drivers/gpu/drm/scheduler/gpu_scheduler.c:921
	sched->hw_submission_limit = hw_submission;
    136c:	b9000a62 	str	w2, [x19, #8]
/data3/home/yuanqiliang/code/arm-kernel/drivers/gpu/drm/scheduler/gpu_scheduler.c:922
	sched->name = name;
    1370:	a9011664 	stp	x4, x5, [x19, #16]
/data3/home/yuanqiliang/code/arm-kernel/drivers/gpu/drm/scheduler/gpu_scheduler.c:924
	sched->timeout = timeout;
	sched->hang_limit = hang_limit;
    1374:	b9014663 	str	w3, [x19, #324]
drm_sched_rq_init():
/data3/home/yuanqiliang/code/arm-kernel/drivers/gpu/drm/scheduler/gpu_scheduler.c:75 (discriminator 3)
	spin_lock_init(&rq->lock);
    1378:	b81f001f 	stur	wzr, [x0, #-16]
/data3/home/yuanqiliang/code/arm-kernel/drivers/gpu/drm/scheduler/gpu_scheduler.c:78 (discriminator 3)
	rq->sched = sched;
    137c:	f81f8013 	stur	x19, [x0, #-8]
__write_once_size():
/data3/home/yuanqiliang/code/arm-kernel/./include/linux/compiler.h:220 (discriminator 3)
    1380:	f9000000 	str	x0, [x0]
drm_sched_rq_init():
/data3/home/yuanqiliang/code/arm-kernel/drivers/gpu/drm/scheduler/gpu_scheduler.c:77 (discriminator 3)
	rq->current_entity = NULL;
    1384:	a900fc00 	stp	x0, xzr, [x0, #8]
/data3/home/yuanqiliang/code/arm-kernel/drivers/gpu/drm/scheduler/gpu_scheduler.c:78 (discriminator 3)
	rq->sched = sched;
    1388:	9100a000 	add	x0, x0, #0x28
drm_sched_init():
/data3/home/yuanqiliang/code/arm-kernel/drivers/gpu/drm/scheduler/gpu_scheduler.c:925 (discriminator 3)
	for (i = DRM_SCHED_PRIORITY_MIN; i < DRM_SCHED_PRIORITY_MAX; i++)
    138c:	eb06001f 	cmp	x0, x6
    1390:	54ffff41 	b.ne	1378 <drm_sched_init+0x30>  // b.any
/data3/home/yuanqiliang/code/arm-kernel/drivers/gpu/drm/scheduler/gpu_scheduler.c:928
		drm_sched_rq_init(sched, &sched->sched_rq[i]);

	init_waitqueue_head(&sched->wake_up_worker);
    1394:	90000014 	adrp	x20, 0 <drm_sched_job_timedout>
    1398:	91000294 	add	x20, x20, #0x0
    139c:	aa1403e2 	mov	x2, x20
    13a0:	9103a260 	add	x0, x19, #0xe8
    13a4:	90000001 	adrp	x1, 0 <drm_sched_job_timedout>
    13a8:	91000021 	add	x1, x1, #0x0
    13ac:	94000000 	bl	0 <__init_waitqueue_head>
/data3/home/yuanqiliang/code/arm-kernel/drivers/gpu/drm/scheduler/gpu_scheduler.c:929
	init_waitqueue_head(&sched->job_scheduled);
    13b0:	aa1403e2 	mov	x2, x20
    13b4:	91040260 	add	x0, x19, #0x100
    13b8:	90000001 	adrp	x1, 0 <drm_sched_job_timedout>
    13bc:	91000021 	add	x1, x1, #0x0
    13c0:	94000000 	bl	0 <__init_waitqueue_head>
/data3/home/yuanqiliang/code/arm-kernel/drivers/gpu/drm/scheduler/gpu_scheduler.c:931
	INIT_LIST_HEAD(&sched->ring_mirror_list);
	spin_lock_init(&sched->job_list_lock);
    13c4:	b901427f 	str	wzr, [x19, #320]
/data3/home/yuanqiliang/code/arm-kernel/drivers/gpu/drm/scheduler/gpu_scheduler.c:930
	INIT_LIST_HEAD(&sched->ring_mirror_list);
    13c8:	9104c261 	add	x1, x19, #0x130
__write_once_size():
/data3/home/yuanqiliang/code/arm-kernel/./include/linux/compiler.h:220
    13cc:	f9009a61 	str	x1, [x19, #304]
drm_sched_init():
/data3/home/yuanqiliang/code/arm-kernel/drivers/gpu/drm/scheduler/gpu_scheduler.c:936
	atomic_set(&sched->hw_rq_count, 0);
	atomic64_set(&sched->job_id_count, 0);

	/* Each scheduler will run on a seperate kernel thread */
	sched->thread = kthread_run(drm_sched_main, sched, sched->name);
    13d0:	f9400e63 	ldr	x3, [x19, #24]
__write_once_size():
/data3/home/yuanqiliang/code/arm-kernel/./include/linux/compiler.h:219
	case 4: *(volatile __u32 *)p = *(__u32 *)res; break;
    13d4:	b9011a7f 	str	wzr, [x19, #280]
/data3/home/yuanqiliang/code/arm-kernel/./include/linux/compiler.h:220
	case 8: *(volatile __u64 *)p = *(__u64 *)res; break;
    13d8:	f900927f 	str	xzr, [x19, #288]
drm_sched_init():
/data3/home/yuanqiliang/code/arm-kernel/drivers/gpu/drm/scheduler/gpu_scheduler.c:936
    13dc:	90000000 	adrp	x0, 0 <drm_sched_job_timedout>
INIT_LIST_HEAD():
/data3/home/yuanqiliang/code/arm-kernel/./include/linux/list.h:29
	list->prev = list;
    13e0:	f9009e61 	str	x1, [x19, #312]
drm_sched_init():
/data3/home/yuanqiliang/code/arm-kernel/drivers/gpu/drm/scheduler/gpu_scheduler.c:936
    13e4:	91000000 	add	x0, x0, #0x0
    13e8:	12800002 	mov	w2, #0xffffffff            	// #-1
    13ec:	aa1303e1 	mov	x1, x19
    13f0:	94000000 	bl	0 <kthread_create_on_node>
    13f4:	aa0003f4 	mov	x20, x0
    13f8:	b140041f 	cmn	x0, #0x1, lsl #12
    13fc:	54000169 	b.ls	1428 <drm_sched_init+0xe0>  // b.plast
    1400:	f9009674 	str	x20, [x19, #296]
/data3/home/yuanqiliang/code/arm-kernel/drivers/gpu/drm/scheduler/gpu_scheduler.c:938
	if (IS_ERR(sched->thread)) {
		DRM_ERROR("Failed to create scheduler for %s.\n", name);
    1404:	aa1503e1 	mov	x1, x21
    1408:	90000000 	adrp	x0, 0 <drm_sched_job_timedout>
    140c:	91000000 	add	x0, x0, #0x0
    1410:	94000000 	bl	0 <drm_err>
/data3/home/yuanqiliang/code/arm-kernel/drivers/gpu/drm/scheduler/gpu_scheduler.c:939
		return PTR_ERR(sched->thread);
    1414:	b9412a60 	ldr	w0, [x19, #296]
/data3/home/yuanqiliang/code/arm-kernel/drivers/gpu/drm/scheduler/gpu_scheduler.c:943
	}

	return 0;
}
    1418:	a94153f3 	ldp	x19, x20, [sp, #16]
    141c:	f94013f5 	ldr	x21, [sp, #32]
    1420:	a8c37bfd 	ldp	x29, x30, [sp], #48
    1424:	d65f03c0 	ret
/data3/home/yuanqiliang/code/arm-kernel/drivers/gpu/drm/scheduler/gpu_scheduler.c:936 (discriminator 1)
	sched->thread = kthread_run(drm_sched_main, sched, sched->name);
    1428:	94000000 	bl	0 <wake_up_process>
    142c:	f9009674 	str	x20, [x19, #296]
/data3/home/yuanqiliang/code/arm-kernel/drivers/gpu/drm/scheduler/gpu_scheduler.c:942 (discriminator 1)
	return 0;
    1430:	52800000 	mov	w0, #0x0                   	// #0
/data3/home/yuanqiliang/code/arm-kernel/drivers/gpu/drm/scheduler/gpu_scheduler.c:943 (discriminator 1)
}
    1434:	a94153f3 	ldp	x19, x20, [sp, #16]
    1438:	f94013f5 	ldr	x21, [sp, #32]
    143c:	a8c37bfd 	ldp	x29, x30, [sp], #48
    1440:	d65f03c0 	ret
    1444:	d503201f 	nop

0000000000001448 <drm_sched_main>:
drm_sched_main():
/data3/home/yuanqiliang/code/arm-kernel/drivers/gpu/drm/scheduler/gpu_scheduler.c:848
{
    1448:	a9b67bfd 	stp	x29, x30, [sp, #-160]!
/data3/home/yuanqiliang/code/arm-kernel/drivers/gpu/drm/scheduler/gpu_scheduler.c:849
	struct sched_param sparam = {.sched_priority = 1};
    144c:	52800023 	mov	w3, #0x1                   	// #1
/data3/home/yuanqiliang/code/arm-kernel/drivers/gpu/drm/scheduler/gpu_scheduler.c:853
	sched_setscheduler(current, SCHED_FIFO, &sparam);
    1450:	2a0303e1 	mov	w1, w3
/data3/home/yuanqiliang/code/arm-kernel/drivers/gpu/drm/scheduler/gpu_scheduler.c:848
{
    1454:	910003fd 	mov	x29, sp
    1458:	a9025bf5 	stp	x21, x22, [sp, #32]
    145c:	aa0003f6 	mov	x22, x0
/data3/home/yuanqiliang/code/arm-kernel/drivers/gpu/drm/scheduler/gpu_scheduler.c:853
	sched_setscheduler(current, SCHED_FIFO, &sparam);
    1460:	9101d3e2 	add	x2, sp, #0x74
get_current():
/data3/home/yuanqiliang/code/arm-kernel/./arch/arm64/include/asm/current.h:19
    1464:	d5384100 	mrs	x0, sp_el0
drm_sched_main():
/data3/home/yuanqiliang/code/arm-kernel/drivers/gpu/drm/scheduler/gpu_scheduler.c:848
{
    1468:	a90153f3 	stp	x19, x20, [sp, #16]
    146c:	a90363f7 	stp	x23, x24, [sp, #48]
    1470:	a9046bf9 	stp	x25, x26, [sp, #64]
    1474:	a90573fb 	stp	x27, x28, [sp, #80]
    1478:	9103a2db 	add	x27, x22, #0xe8
/data3/home/yuanqiliang/code/arm-kernel/drivers/gpu/drm/scheduler/gpu_scheduler.c:849
	struct sched_param sparam = {.sched_priority = 1};
    147c:	b90077e3 	str	w3, [sp, #116]
/data3/home/yuanqiliang/code/arm-kernel/drivers/gpu/drm/scheduler/gpu_scheduler.c:853
	sched_setscheduler(current, SCHED_FIFO, &sparam);
    1480:	94000000 	bl	0 <sched_setscheduler>
/data3/home/yuanqiliang/code/arm-kernel/drivers/gpu/drm/scheduler/gpu_scheduler.c:855
	while (!kthread_should_stop()) {
    1484:	d503201f 	nop
    1488:	94000000 	bl	0 <kthread_should_stop>
    148c:	72001c1f 	tst	w0, #0xff
    1490:	54001681 	b.ne	1760 <drm_sched_main+0x318>  // b.any
/data3/home/yuanqiliang/code/arm-kernel/drivers/gpu/drm/scheduler/gpu_scheduler.c:861
		wait_event_interruptible(sched->wake_up_worker,
    1494:	94000000 	bl	0 <_cond_resched>
drm_sched_blocked():
/data3/home/yuanqiliang/code/arm-kernel/drivers/gpu/drm/scheduler/gpu_scheduler.c:832
	if (kthread_should_park()) {
    1498:	94000000 	bl	0 <kthread_should_park>
    149c:	72001c1f 	tst	w0, #0xff
    14a0:	54001701 	b.ne	1780 <drm_sched_main+0x338>  // b.any
drm_sched_main():
/data3/home/yuanqiliang/code/arm-kernel/drivers/gpu/drm/scheduler/gpu_scheduler.c:861
		wait_event_interruptible(sched->wake_up_worker,
    14a4:	aa1603e0 	mov	x0, x22
    14a8:	97fffcb8 	bl	788 <drm_sched_select_entity>
    14ac:	aa0003f3 	mov	x19, x0
    14b0:	b40016a0 	cbz	x0, 1784 <drm_sched_main+0x33c>
spsc_queue_peek():
/data3/home/yuanqiliang/code/arm-kernel/./include/drm/spsc_queue.h:57
	return queue->head;
    14b4:	f9401275 	ldr	x21, [x19, #32]
    14b8:	91008260 	add	x0, x19, #0x20
    14bc:	f90033e0 	str	x0, [sp, #96]
drm_sched_entity_pop_job():
/data3/home/yuanqiliang/code/arm-kernel/drivers/gpu/drm/scheduler/gpu_scheduler.c:487
	if (!sched_job)
    14c0:	b4fffe55 	cbz	x21, 1488 <drm_sched_main+0x40>
/data3/home/yuanqiliang/code/arm-kernel/drivers/gpu/drm/scheduler/gpu_scheduler.c:483
	struct drm_gpu_scheduler *sched = entity->rq->sched;
    14c4:	f9400a60 	ldr	x0, [x19, #16]
drm_sched_entity_add_dependency_cb():
/data3/home/yuanqiliang/code/arm-kernel/drivers/gpu/drm/scheduler/gpu_scheduler.c:472
	if (!dma_fence_add_callback(entity->dependency, &entity->cb,
    14c8:	90000017 	adrp	x23, 0 <drm_sched_job_timedout>
/data3/home/yuanqiliang/code/arm-kernel/drivers/gpu/drm/scheduler/gpu_scheduler.c:463
		if (!dma_fence_add_callback(fence, &entity->cb,
    14cc:	90000018 	adrp	x24, 0 <drm_sched_job_timedout>
/data3/home/yuanqiliang/code/arm-kernel/drivers/gpu/drm/scheduler/gpu_scheduler.c:472
	if (!dma_fence_add_callback(entity->dependency, &entity->cb,
    14d0:	910002f7 	add	x23, x23, #0x0
/data3/home/yuanqiliang/code/arm-kernel/drivers/gpu/drm/scheduler/gpu_scheduler.c:463
		if (!dma_fence_add_callback(fence, &entity->cb,
    14d4:	91000318 	add	x24, x24, #0x0
/data3/home/yuanqiliang/code/arm-kernel/drivers/gpu/drm/scheduler/gpu_scheduler.c:472
	if (!dma_fence_add_callback(entity->dependency, &entity->cb,
    14d8:	91014279 	add	x25, x19, #0x50
drm_sched_entity_pop_job():
/data3/home/yuanqiliang/code/arm-kernel/drivers/gpu/drm/scheduler/gpu_scheduler.c:483
	struct drm_gpu_scheduler *sched = entity->rq->sched;
    14dc:	f940041a 	ldr	x26, [x0, #8]
/data3/home/yuanqiliang/code/arm-kernel/drivers/gpu/drm/scheduler/gpu_scheduler.c:490
	while ((entity->dependency = sched->ops->dependency(sched_job, entity)))
    14e0:	aa1303e1 	mov	x1, x19
    14e4:	f9400342 	ldr	x2, [x26]
    14e8:	aa1503e0 	mov	x0, x21
    14ec:	f9400042 	ldr	x2, [x2]
    14f0:	d63f0040 	blr	x2
    14f4:	f9002660 	str	x0, [x19, #72]
    14f8:	aa0003f4 	mov	x20, x0
    14fc:	b40004a0 	cbz	x0, 1590 <drm_sched_main+0x148>
drm_sched_entity_add_dependency_cb():
/data3/home/yuanqiliang/code/arm-kernel/drivers/gpu/drm/scheduler/gpu_scheduler.c:442
	if (fence->context == entity->fence_context ||
    1500:	f9401e82 	ldr	x2, [x20, #56]
    1504:	f9402261 	ldr	x1, [x19, #64]
    1508:	eb01005f 	cmp	x2, x1
    150c:	54000260 	b.eq	1558 <drm_sched_main+0x110>  // b.none
/data3/home/yuanqiliang/code/arm-kernel/drivers/gpu/drm/scheduler/gpu_scheduler.c:443
            fence->context == entity->fence_context + 1) {
    1510:	91000421 	add	x1, x1, #0x1
/data3/home/yuanqiliang/code/arm-kernel/drivers/gpu/drm/scheduler/gpu_scheduler.c:442
	if (fence->context == entity->fence_context ||
    1514:	eb01005f 	cmp	x2, x1
    1518:	54000200 	b.eq	1558 <drm_sched_main+0x110>  // b.none
/data3/home/yuanqiliang/code/arm-kernel/drivers/gpu/drm/scheduler/gpu_scheduler.c:438
	struct drm_gpu_scheduler *sched = entity->rq->sched;
    151c:	f9400a61 	ldr	x1, [x19, #16]
    1520:	f940043c 	ldr	x28, [x1, #8]
/data3/home/yuanqiliang/code/arm-kernel/drivers/gpu/drm/scheduler/gpu_scheduler.c:453
	s_fence = to_drm_sched_fence(fence);
    1524:	94000000 	bl	1c50 <to_drm_sched_fence>
    1528:	aa0003f4 	mov	x20, x0
/data3/home/yuanqiliang/code/arm-kernel/drivers/gpu/drm/scheduler/gpu_scheduler.c:454
	if (s_fence && s_fence->sched == sched) {
    152c:	b4000080 	cbz	x0, 153c <drm_sched_main+0xf4>
    1530:	f9407001 	ldr	x1, [x0, #224]
    1534:	eb01039f 	cmp	x28, x1
    1538:	54001660 	b.eq	1804 <drm_sched_main+0x3bc>  // b.none
/data3/home/yuanqiliang/code/arm-kernel/drivers/gpu/drm/scheduler/gpu_scheduler.c:472
	if (!dma_fence_add_callback(entity->dependency, &entity->cb,
    153c:	f9402660 	ldr	x0, [x19, #72]
    1540:	aa1703e2 	mov	x2, x23
    1544:	aa1903e1 	mov	x1, x25
    1548:	94000000 	bl	0 <dma_fence_add_callback>
    154c:	34fff9e0 	cbz	w0, 1488 <drm_sched_main+0x40>
/data3/home/yuanqiliang/code/arm-kernel/drivers/gpu/drm/scheduler/gpu_scheduler.c:476
	dma_fence_put(entity->dependency);
    1550:	f9402674 	ldr	x20, [x19, #72]
dma_fence_put():
/data3/home/yuanqiliang/code/arm-kernel/./include/linux/dma-fence.h:258
	if (fence)
    1554:	b4fffc74 	cbz	x20, 14e0 <drm_sched_main+0x98>
kref_put():
/data3/home/yuanqiliang/code/arm-kernel/./include/linux/kref.h:69
	if (refcount_dec_and_test(&kref->refcount)) {
    1558:	aa1403e0 	mov	x0, x20
    155c:	94000000 	bl	0 <refcount_dec_and_test_checked>
    1560:	72001c1f 	tst	w0, #0xff
    1564:	54fffbe0 	b.eq	14e0 <drm_sched_main+0x98>  // b.none
/data3/home/yuanqiliang/code/arm-kernel/./include/linux/kref.h:70
		release(kref);
    1568:	aa1403e0 	mov	x0, x20
    156c:	94000000 	bl	0 <dma_fence_release>
drm_sched_entity_pop_job():
/data3/home/yuanqiliang/code/arm-kernel/drivers/gpu/drm/scheduler/gpu_scheduler.c:490
	while ((entity->dependency = sched->ops->dependency(sched_job, entity)))
    1570:	f9400342 	ldr	x2, [x26]
    1574:	aa1303e1 	mov	x1, x19
    1578:	aa1503e0 	mov	x0, x21
    157c:	f9400042 	ldr	x2, [x2]
    1580:	d63f0040 	blr	x2
    1584:	f9002660 	str	x0, [x19, #72]
    1588:	aa0003f4 	mov	x20, x0
    158c:	b5fffba0 	cbnz	x0, 1500 <drm_sched_main+0xb8>
/data3/home/yuanqiliang/code/arm-kernel/drivers/gpu/drm/scheduler/gpu_scheduler.c:495
	if (entity->guilty && atomic_read(entity->guilty))
    1590:	f9403660 	ldr	x0, [x19, #104]
    1594:	b40001a0 	cbz	x0, 15c8 <drm_sched_main+0x180>
__read_once_size():
/data3/home/yuanqiliang/code/arm-kernel/./include/linux/compiler.h:193
	__READ_ONCE_SIZE;
    1598:	b9400000 	ldr	w0, [x0]
drm_sched_entity_pop_job():
/data3/home/yuanqiliang/code/arm-kernel/drivers/gpu/drm/scheduler/gpu_scheduler.c:495
    159c:	34000160 	cbz	w0, 15c8 <drm_sched_main+0x180>
/data3/home/yuanqiliang/code/arm-kernel/drivers/gpu/drm/scheduler/gpu_scheduler.c:496
		dma_fence_set_error(&sched_job->s_fence->finished, -ECANCELED);
    15a0:	f9400ab4 	ldr	x20, [x21, #16]
test_bit():
/data3/home/yuanqiliang/code/arm-kernel/./include/asm-generic/bitops/non-atomic.h:106
    15a4:	f9405680 	ldr	x0, [x20, #168]
dma_fence_set_error():
/data3/home/yuanqiliang/code/arm-kernel/./include/linux/dma-fence.h:503
	WARN_ON(test_bit(DMA_FENCE_FLAG_SIGNALED_BIT, &fence->flags));
    15a8:	360000c0 	tbz	w0, #0, 15c0 <drm_sched_main+0x178>
    15ac:	90000000 	adrp	x0, 0 <drm_sched_job_timedout>
    15b0:	91000000 	add	x0, x0, #0x0
    15b4:	94000000 	bl	0 <printk>
    15b8:	d4210000 	brk	#0x800
    15bc:	d503201f 	nop
/data3/home/yuanqiliang/code/arm-kernel/./include/linux/dma-fence.h:506
	fence->error = error;
    15c0:	12800f80 	mov	w0, #0xffffff83            	// #-125
    15c4:	b900ba80 	str	w0, [x20, #184]
drm_sched_entity_pop_job():
/data3/home/yuanqiliang/code/arm-kernel/drivers/gpu/drm/scheduler/gpu_scheduler.c:498
	dma_fence_put(entity->last_scheduled);
    15c8:	f9403a74 	ldr	x20, [x19, #112]
dma_fence_put():
/data3/home/yuanqiliang/code/arm-kernel/./include/linux/dma-fence.h:258
	if (fence)
    15cc:	b40000f4 	cbz	x20, 15e8 <drm_sched_main+0x1a0>
kref_put():
/data3/home/yuanqiliang/code/arm-kernel/./include/linux/kref.h:69
	if (refcount_dec_and_test(&kref->refcount)) {
    15d0:	aa1403e0 	mov	x0, x20
    15d4:	94000000 	bl	0 <refcount_dec_and_test_checked>
    15d8:	72001c1f 	tst	w0, #0xff
    15dc:	54000060 	b.eq	15e8 <drm_sched_main+0x1a0>  // b.none
/data3/home/yuanqiliang/code/arm-kernel/./include/linux/kref.h:70
		release(kref);
    15e0:	aa1403e0 	mov	x0, x20
    15e4:	94000000 	bl	0 <dma_fence_release>
drm_sched_entity_pop_job():
/data3/home/yuanqiliang/code/arm-kernel/drivers/gpu/drm/scheduler/gpu_scheduler.c:499
	entity->last_scheduled = dma_fence_get(&sched_job->s_fence->finished);
    15e8:	f9400aa0 	ldr	x0, [x21, #16]
dma_fence_get():
/data3/home/yuanqiliang/code/arm-kernel/./include/linux/dma-fence.h:270
	if (fence)
    15ec:	b1018014 	adds	x20, x0, #0x60
    15f0:	54000060 	b.eq	15fc <drm_sched_main+0x1b4>  // b.none
kref_get():
/data3/home/yuanqiliang/code/arm-kernel/./include/linux/kref.h:47
	refcount_inc(&kref->refcount);
    15f4:	aa1403e0 	mov	x0, x20
    15f8:	94000000 	bl	0 <refcount_inc_checked>
drm_sched_entity_pop_job():
/data3/home/yuanqiliang/code/arm-kernel/drivers/gpu/drm/scheduler/gpu_scheduler.c:499
    15fc:	f9003a74 	str	x20, [x19, #112]
spsc_queue_pop():
/data3/home/yuanqiliang/code/arm-kernel/./include/drm/spsc_queue.h:94
	smp_rmb();
    1600:	d50339bf 	dmb	ishld
__read_once_size():
/data3/home/yuanqiliang/code/arm-kernel/./include/linux/compiler.h:193
    1604:	f9401260 	ldr	x0, [x19, #32]
spsc_queue_pop():
/data3/home/yuanqiliang/code/arm-kernel/./include/drm/spsc_queue.h:98
	if (!node)
    1608:	b4000140 	cbz	x0, 1630 <drm_sched_main+0x1e8>
__read_once_size():
/data3/home/yuanqiliang/code/arm-kernel/./include/linux/compiler.h:193
    160c:	f9400001 	ldr	x1, [x0]
__write_once_size():
/data3/home/yuanqiliang/code/arm-kernel/./include/linux/compiler.h:220
	case 8: *(volatile __u64 *)p = *(__u64 *)res; break;
    1610:	f9001261 	str	x1, [x19, #32]
spsc_queue_pop():
/data3/home/yuanqiliang/code/arm-kernel/./include/drm/spsc_queue.h:104
	if (unlikely(!next)) {
    1614:	b4001461 	cbz	x1, 18a0 <drm_sched_main+0x458>
atomic_sub():
/data3/home/yuanqiliang/code/arm-kernel/./arch/arm64/include/asm/atomic_ll_sc.h:103
ATOMIC_OPS(sub, sub)
    1618:	9100c262 	add	x2, x19, #0x30
    161c:	f9800051 	prfm	pstl1strm, [x2]
    1620:	885f7c40 	ldxr	w0, [x2]
    1624:	51000400 	sub	w0, w0, #0x1
    1628:	88017c40 	stxr	w1, w0, [x2]
    162c:	35ffffa1 	cbnz	w1, 1620 <drm_sched_main+0x1d8>
atomic_add():
/data3/home/yuanqiliang/code/arm-kernel/./arch/arm64/include/asm/atomic_ll_sc.h:102
ATOMIC_OPS(add, add)
    1630:	910462c2 	add	x2, x22, #0x118
drm_sched_main():
/data3/home/yuanqiliang/code/arm-kernel/drivers/gpu/drm/scheduler/gpu_scheduler.c:873
		s_fence = sched_job->s_fence;
    1634:	f9400ab4 	ldr	x20, [x21, #16]
atomic_add():
/data3/home/yuanqiliang/code/arm-kernel/./arch/arm64/include/asm/atomic_ll_sc.h:102
    1638:	f9800051 	prfm	pstl1strm, [x2]
    163c:	885f7c40 	ldxr	w0, [x2]
    1640:	11000400 	add	w0, w0, #0x1
    1644:	88017c40 	stxr	w1, w0, [x2]
    1648:	35ffffa1 	cbnz	w1, 163c <drm_sched_main+0x1f4>
drm_sched_job_begin():
/data3/home/yuanqiliang/code/arm-kernel/drivers/gpu/drm/scheduler/gpu_scheduler.c:590
	dma_fence_add_callback(&s_job->s_fence->finished, &s_job->finish_cb,
    164c:	a94082b3 	ldp	x19, x0, [x21, #8]
    1650:	910062a1 	add	x1, x21, #0x18
    1654:	90000002 	adrp	x2, 0 <drm_sched_job_timedout>
    1658:	91000042 	add	x2, x2, #0x0
    165c:	91018000 	add	x0, x0, #0x60
    1660:	94000000 	bl	0 <dma_fence_add_callback>
__cmpxchg_case_acq_4():
/data3/home/yuanqiliang/code/arm-kernel/./arch/arm64/include/asm/atomic_ll_sc.h:272
__CMPXCHG_CASE(w,  , acq_4,        , a,  , "memory")
    1664:	d2800002 	mov	x2, #0x0                   	// #0
do_raw_spin_lock():
/data3/home/yuanqiliang/code/arm-kernel/./include/linux/spinlock.h:180
    1668:	91050260 	add	x0, x19, #0x140
__cmpxchg_case_acq_4():
/data3/home/yuanqiliang/code/arm-kernel/./arch/arm64/include/asm/atomic_ll_sc.h:272
    166c:	d2800023 	mov	x3, #0x1                   	// #1
    1670:	f9800011 	prfm	pstl1strm, [x0]
    1674:	885ffc01 	ldaxr	w1, [x0]
    1678:	4a020024 	eor	w4, w1, w2
    167c:	35000064 	cbnz	w4, 1688 <drm_sched_main+0x240>
    1680:	88047c03 	stxr	w4, w3, [x0]
    1684:	35ffff84 	cbnz	w4, 1674 <drm_sched_main+0x22c>
queued_spin_lock():
/data3/home/yuanqiliang/code/arm-kernel/./include/asm-generic/qspinlock.h:86
	if (likely(val == 0))
    1688:	35001081 	cbnz	w1, 1898 <drm_sched_main+0x450>
list_add_tail():
/data3/home/yuanqiliang/code/arm-kernel/./include/linux/list.h:93
	__list_add(new, head->prev, head);
    168c:	f9409e60 	ldr	x0, [x19, #312]
drm_sched_job_begin():
/data3/home/yuanqiliang/code/arm-kernel/drivers/gpu/drm/scheduler/gpu_scheduler.c:594
	list_add_tail(&s_job->node, &sched->ring_mirror_list);
    1690:	910142a1 	add	x1, x21, #0x50
__list_add():
/data3/home/yuanqiliang/code/arm-kernel/./include/linux/list.h:63
	next->prev = new;
    1694:	f9009e61 	str	x1, [x19, #312]
drm_sched_job_begin():
/data3/home/yuanqiliang/code/arm-kernel/drivers/gpu/drm/scheduler/gpu_scheduler.c:594
    1698:	9104c264 	add	x4, x19, #0x130
__list_add():
/data3/home/yuanqiliang/code/arm-kernel/./include/linux/list.h:65
	new->prev = prev;
    169c:	a90502a4 	stp	x4, x0, [x21, #80]
drm_sched_job_begin():
/data3/home/yuanqiliang/code/arm-kernel/drivers/gpu/drm/scheduler/gpu_scheduler.c:595
	if (sched->timeout != MAX_SCHEDULE_TIMEOUT &&
    16a0:	92f00002 	mov	x2, #0x7fffffffffffffff    	// #9223372036854775807
__write_once_size():
/data3/home/yuanqiliang/code/arm-kernel/./include/linux/compiler.h:220
    16a4:	f9000001 	str	x1, [x0]
drm_sched_job_begin():
/data3/home/yuanqiliang/code/arm-kernel/drivers/gpu/drm/scheduler/gpu_scheduler.c:595
    16a8:	f9400a63 	ldr	x3, [x19, #16]
    16ac:	eb02007f 	cmp	x3, x2
    16b0:	540000e0 	b.eq	16cc <drm_sched_main+0x284>  // b.none
__read_once_size():
/data3/home/yuanqiliang/code/arm-kernel/./include/linux/compiler.h:193
	__READ_ONCE_SIZE;
    16b4:	f9409a62 	ldr	x2, [x19, #304]
drm_sched_job_begin():
/data3/home/yuanqiliang/code/arm-kernel/drivers/gpu/drm/scheduler/gpu_scheduler.c:596
	    list_first_entry_or_null(&sched->ring_mirror_list,
    16b8:	eb02009f 	cmp	x4, x2
    16bc:	54000080 	b.eq	16cc <drm_sched_main+0x284>  // b.none
    16c0:	d1014040 	sub	x0, x2, #0x50
/data3/home/yuanqiliang/code/arm-kernel/drivers/gpu/drm/scheduler/gpu_scheduler.c:595
	if (sched->timeout != MAX_SCHEDULE_TIMEOUT &&
    16c4:	eb0002bf 	cmp	x21, x0
    16c8:	54000dc0 	b.eq	1880 <drm_sched_main+0x438>  // b.none
queued_spin_unlock():
/data3/home/yuanqiliang/code/arm-kernel/./include/asm-generic/qspinlock.h:101
	smp_store_release(&lock->locked, 0);
    16cc:	52800000 	mov	w0, #0x0                   	// #0
    16d0:	91050261 	add	x1, x19, #0x140
    16d4:	089ffc20 	stlrb	w0, [x1]
drm_sched_main():
/data3/home/yuanqiliang/code/arm-kernel/drivers/gpu/drm/scheduler/gpu_scheduler.c:878
		fence = sched->ops->run_job(sched_job);
    16d8:	f94002c1 	ldr	x1, [x22]
    16dc:	aa1503e0 	mov	x0, x21
    16e0:	91030295 	add	x21, x20, #0xc0
    16e4:	f9400421 	ldr	x1, [x1, #8]
    16e8:	d63f0020 	blr	x1
    16ec:	aa0003f3 	mov	x19, x0
/data3/home/yuanqiliang/code/arm-kernel/drivers/gpu/drm/scheduler/gpu_scheduler.c:879
		drm_sched_fence_scheduled(s_fence);
    16f0:	aa1403e0 	mov	x0, x20
    16f4:	94000000 	bl	1dc8 <drm_sched_fence_scheduled>
/data3/home/yuanqiliang/code/arm-kernel/drivers/gpu/drm/scheduler/gpu_scheduler.c:881
		if (fence) {
    16f8:	b4000ab3 	cbz	x19, 184c <drm_sched_main+0x404>
kref_get():
/data3/home/yuanqiliang/code/arm-kernel/./include/linux/kref.h:47
    16fc:	aa1303e0 	mov	x0, x19
    1700:	94000000 	bl	0 <refcount_inc_checked>
drm_sched_main():
/data3/home/yuanqiliang/code/arm-kernel/drivers/gpu/drm/scheduler/gpu_scheduler.c:882
			s_fence->parent = dma_fence_get(fence);
    1704:	f9006e93 	str	x19, [x20, #216]
/data3/home/yuanqiliang/code/arm-kernel/drivers/gpu/drm/scheduler/gpu_scheduler.c:883
			r = dma_fence_add_callback(fence, &s_fence->cb,
    1708:	90000002 	adrp	x2, 0 <drm_sched_job_timedout>
    170c:	aa1503e1 	mov	x1, x21
    1710:	91000042 	add	x2, x2, #0x0
    1714:	aa1303e0 	mov	x0, x19
    1718:	94000000 	bl	0 <dma_fence_add_callback>
/data3/home/yuanqiliang/code/arm-kernel/drivers/gpu/drm/scheduler/gpu_scheduler.c:885
			if (r == -ENOENT)
    171c:	3100081f 	cmn	w0, #0x2
    1720:	54000a80 	b.eq	1870 <drm_sched_main+0x428>  // b.none
/data3/home/yuanqiliang/code/arm-kernel/drivers/gpu/drm/scheduler/gpu_scheduler.c:887
			else if (r)
    1724:	350009c0 	cbnz	w0, 185c <drm_sched_main+0x414>
kref_put():
/data3/home/yuanqiliang/code/arm-kernel/./include/linux/kref.h:69
	if (refcount_dec_and_test(&kref->refcount)) {
    1728:	aa1303e0 	mov	x0, x19
    172c:	94000000 	bl	0 <refcount_dec_and_test_checked>
    1730:	72001c1f 	tst	w0, #0xff
    1734:	54000060 	b.eq	1740 <drm_sched_main+0x2f8>  // b.none
/data3/home/yuanqiliang/code/arm-kernel/./include/linux/kref.h:70
		release(kref);
    1738:	aa1303e0 	mov	x0, x19
    173c:	94000000 	bl	0 <dma_fence_release>
drm_sched_main():
/data3/home/yuanqiliang/code/arm-kernel/drivers/gpu/drm/scheduler/gpu_scheduler.c:895
		wake_up(&sched->job_scheduled);
    1740:	910402c0 	add	x0, x22, #0x100
    1744:	d2800003 	mov	x3, #0x0                   	// #0
    1748:	52800022 	mov	w2, #0x1                   	// #1
    174c:	52800061 	mov	w1, #0x3                   	// #3
    1750:	94000000 	bl	0 <__wake_up>
/data3/home/yuanqiliang/code/arm-kernel/drivers/gpu/drm/scheduler/gpu_scheduler.c:855
	while (!kthread_should_stop()) {
    1754:	94000000 	bl	0 <kthread_should_stop>
    1758:	72001c1f 	tst	w0, #0xff
    175c:	54ffe9c0 	b.eq	1494 <drm_sched_main+0x4c>  // b.none
/data3/home/yuanqiliang/code/arm-kernel/drivers/gpu/drm/scheduler/gpu_scheduler.c:898
}
    1760:	52800000 	mov	w0, #0x0                   	// #0
    1764:	a94153f3 	ldp	x19, x20, [sp, #16]
    1768:	a9425bf5 	ldp	x21, x22, [sp, #32]
    176c:	a94363f7 	ldp	x23, x24, [sp, #48]
    1770:	a9446bf9 	ldp	x25, x26, [sp, #64]
    1774:	a94573fb 	ldp	x27, x28, [sp, #80]
    1778:	a8ca7bfd 	ldp	x29, x30, [sp], #160
    177c:	d65f03c0 	ret
drm_sched_blocked():
/data3/home/yuanqiliang/code/arm-kernel/drivers/gpu/drm/scheduler/gpu_scheduler.c:833
		kthread_parkme();
    1780:	94000000 	bl	0 <kthread_parkme>
drm_sched_main():
/data3/home/yuanqiliang/code/arm-kernel/drivers/gpu/drm/scheduler/gpu_scheduler.c:861
		wait_event_interruptible(sched->wake_up_worker,
    1784:	94000000 	bl	0 <kthread_should_stop>
    1788:	72001c1f 	tst	w0, #0xff
    178c:	54ffe7e1 	b.ne	1488 <drm_sched_main+0x40>  // b.any
    1790:	52800001 	mov	w1, #0x0                   	// #0
    1794:	9101e3e0 	add	x0, sp, #0x78
    1798:	94000000 	bl	0 <init_wait_entry>
    179c:	1400000a 	b	17c4 <drm_sched_main+0x37c>
    17a0:	aa1603e0 	mov	x0, x22
    17a4:	97fffbf9 	bl	788 <drm_sched_select_entity>
    17a8:	aa0003f3 	mov	x19, x0
    17ac:	b50009c0 	cbnz	x0, 18e4 <drm_sched_main+0x49c>
/data3/home/yuanqiliang/code/arm-kernel/drivers/gpu/drm/scheduler/gpu_scheduler.c:861 (discriminator 11)
    17b0:	94000000 	bl	0 <kthread_should_stop>
    17b4:	72001c1f 	tst	w0, #0xff
    17b8:	540001e1 	b.ne	17f4 <drm_sched_main+0x3ac>  // b.any
/data3/home/yuanqiliang/code/arm-kernel/drivers/gpu/drm/scheduler/gpu_scheduler.c:861 (discriminator 13)
    17bc:	b5ffe674 	cbnz	x20, 1488 <drm_sched_main+0x40>
/data3/home/yuanqiliang/code/arm-kernel/drivers/gpu/drm/scheduler/gpu_scheduler.c:861 (discriminator 15)
    17c0:	94000000 	bl	0 <schedule>
/data3/home/yuanqiliang/code/arm-kernel/drivers/gpu/drm/scheduler/gpu_scheduler.c:861 (discriminator 17)
    17c4:	9101e3e1 	add	x1, sp, #0x78
    17c8:	52800022 	mov	w2, #0x1                   	// #1
    17cc:	aa1b03e0 	mov	x0, x27
    17d0:	94000000 	bl	0 <prepare_to_wait_event>
    17d4:	aa0003f4 	mov	x20, x0
drm_sched_blocked():
/data3/home/yuanqiliang/code/arm-kernel/drivers/gpu/drm/scheduler/gpu_scheduler.c:832 (discriminator 17)
	if (kthread_should_park()) {
    17d8:	94000000 	bl	0 <kthread_should_park>
    17dc:	72001c1f 	tst	w0, #0xff
    17e0:	54fffe00 	b.eq	17a0 <drm_sched_main+0x358>  // b.none
/data3/home/yuanqiliang/code/arm-kernel/drivers/gpu/drm/scheduler/gpu_scheduler.c:833
		kthread_parkme();
    17e4:	94000000 	bl	0 <kthread_parkme>
drm_sched_main():
/data3/home/yuanqiliang/code/arm-kernel/drivers/gpu/drm/scheduler/gpu_scheduler.c:861
		wait_event_interruptible(sched->wake_up_worker,
    17e8:	94000000 	bl	0 <kthread_should_stop>
    17ec:	72001c1f 	tst	w0, #0xff
    17f0:	54fffe60 	b.eq	17bc <drm_sched_main+0x374>  // b.none
    17f4:	9101e3e1 	add	x1, sp, #0x78
    17f8:	aa1b03e0 	mov	x0, x27
    17fc:	94000000 	bl	0 <finish_wait>
/data3/home/yuanqiliang/code/arm-kernel/drivers/gpu/drm/scheduler/gpu_scheduler.c:866
		if (!entity)
    1800:	17ffff22 	b	1488 <drm_sched_main+0x40>
kref_get():
/data3/home/yuanqiliang/code/arm-kernel/./include/linux/kref.h:47
	refcount_inc(&kref->refcount);
    1804:	94000000 	bl	0 <refcount_inc_checked>
drm_sched_entity_add_dependency_cb():
/data3/home/yuanqiliang/code/arm-kernel/drivers/gpu/drm/scheduler/gpu_scheduler.c:461
		dma_fence_put(entity->dependency);
    1808:	f9402661 	ldr	x1, [x19, #72]
dma_fence_put():
/data3/home/yuanqiliang/code/arm-kernel/./include/linux/dma-fence.h:258
	if (fence)
    180c:	b4000121 	cbz	x1, 1830 <drm_sched_main+0x3e8>
kref_put():
/data3/home/yuanqiliang/code/arm-kernel/./include/linux/kref.h:69
	if (refcount_dec_and_test(&kref->refcount)) {
    1810:	aa0103e0 	mov	x0, x1
    1814:	f90037e1 	str	x1, [sp, #104]
    1818:	94000000 	bl	0 <refcount_dec_and_test_checked>
    181c:	72001c1f 	tst	w0, #0xff
    1820:	f94037e1 	ldr	x1, [sp, #104]
    1824:	54000060 	b.eq	1830 <drm_sched_main+0x3e8>  // b.none
/data3/home/yuanqiliang/code/arm-kernel/./include/linux/kref.h:70
		release(kref);
    1828:	aa0103e0 	mov	x0, x1
    182c:	94000000 	bl	0 <dma_fence_release>
drm_sched_entity_add_dependency_cb():
/data3/home/yuanqiliang/code/arm-kernel/drivers/gpu/drm/scheduler/gpu_scheduler.c:462
		entity->dependency = fence;
    1830:	f9002674 	str	x20, [x19, #72]
/data3/home/yuanqiliang/code/arm-kernel/drivers/gpu/drm/scheduler/gpu_scheduler.c:463
		if (!dma_fence_add_callback(fence, &entity->cb,
    1834:	aa1803e2 	mov	x2, x24
    1838:	aa1903e1 	mov	x1, x25
    183c:	aa1403e0 	mov	x0, x20
    1840:	94000000 	bl	0 <dma_fence_add_callback>
    1844:	34ffe220 	cbz	w0, 1488 <drm_sched_main+0x40>
    1848:	17ffff44 	b	1558 <drm_sched_main+0x110>
drm_sched_main():
/data3/home/yuanqiliang/code/arm-kernel/drivers/gpu/drm/scheduler/gpu_scheduler.c:892
			drm_sched_process_job(NULL, &s_fence->cb);
    184c:	aa1503e1 	mov	x1, x21
    1850:	d2800000 	mov	x0, #0x0                   	// #0
    1854:	97fffd61 	bl	dd8 <drm_sched_process_job>
    1858:	17ffffba 	b	1740 <drm_sched_main+0x2f8>
/data3/home/yuanqiliang/code/arm-kernel/drivers/gpu/drm/scheduler/gpu_scheduler.c:888
				DRM_ERROR("fence add callback failed (%d)\n",
    185c:	2a0003e1 	mov	w1, w0
    1860:	90000000 	adrp	x0, 0 <drm_sched_job_timedout>
    1864:	91000000 	add	x0, x0, #0x0
    1868:	94000000 	bl	0 <drm_err>
    186c:	17ffffaf 	b	1728 <drm_sched_main+0x2e0>
/data3/home/yuanqiliang/code/arm-kernel/drivers/gpu/drm/scheduler/gpu_scheduler.c:886
				drm_sched_process_job(fence, &s_fence->cb);
    1870:	aa1503e1 	mov	x1, x21
    1874:	aa1303e0 	mov	x0, x19
    1878:	97fffd58 	bl	dd8 <drm_sched_process_job>
    187c:	17ffffab 	b	1728 <drm_sched_main+0x2e0>
schedule_delayed_work():
/data3/home/yuanqiliang/code/arm-kernel/./include/linux/workqueue.h:628
	return queue_delayed_work(system_wq, dwork, delay);
    1880:	90000001 	adrp	x1, 0 <system_wq>
queue_delayed_work():
/data3/home/yuanqiliang/code/arm-kernel/./include/linux/workqueue.h:527
	return queue_delayed_work_on(WORK_CPU_UNBOUND, wq, dwork, delay);
    1884:	91004042 	add	x2, x2, #0x10
    1888:	52802000 	mov	w0, #0x100                 	// #256
    188c:	f9400021 	ldr	x1, [x1]
    1890:	94000000 	bl	0 <queue_delayed_work_on>
    1894:	17ffff8e 	b	16cc <drm_sched_main+0x284>
queued_spin_lock():
/data3/home/yuanqiliang/code/arm-kernel/./include/asm-generic/qspinlock.h:88
	queued_spin_lock_slowpath(lock, val);
    1898:	94000000 	bl	0 <queued_spin_lock_slowpath>
    189c:	17ffff7c 	b	168c <drm_sched_main+0x244>
__cmpxchg_case_mb_8():
/data3/home/yuanqiliang/code/arm-kernel/./arch/arm64/include/asm/atomic_ll_sc.h:281
__CMPXCHG_CASE( ,  ,  mb_8, dmb ish,  , l, "memory")
    18a0:	9100a263 	add	x3, x19, #0x28
    18a4:	f94033e4 	ldr	x4, [sp, #96]
    18a8:	f9800071 	prfm	pstl1strm, [x3]
    18ac:	c85f7c61 	ldxr	x1, [x3]
    18b0:	ca000022 	eor	x2, x1, x0
    18b4:	b5000082 	cbnz	x2, 18c4 <drm_sched_main+0x47c>
    18b8:	c802fc64 	stlxr	w2, x4, [x3]
    18bc:	35ffff82 	cbnz	w2, 18ac <drm_sched_main+0x464>
    18c0:	d5033bbf 	dmb	ish
spsc_queue_pop():
/data3/home/yuanqiliang/code/arm-kernel/./include/drm/spsc_queue.h:107
		if (atomic_long_cmpxchg(&queue->tail,
    18c4:	eb01001f 	cmp	x0, x1
    18c8:	54ffea80 	b.eq	1618 <drm_sched_main+0x1d0>  // b.none
/data3/home/yuanqiliang/code/arm-kernel/./include/drm/spsc_queue.h:111
				smp_rmb();
    18cc:	d50339bf 	dmb	ishld
/data3/home/yuanqiliang/code/arm-kernel/./include/drm/spsc_queue.h:112
			} while (unlikely(!(queue->head = READ_ONCE(node->next))));
    18d0:	f94033e2 	ldr	x2, [sp, #96]
__read_once_size():
/data3/home/yuanqiliang/code/arm-kernel/./include/linux/compiler.h:193
    18d4:	f9400001 	ldr	x1, [x0]
spsc_queue_pop():
/data3/home/yuanqiliang/code/arm-kernel/./include/drm/spsc_queue.h:112
    18d8:	f9000041 	str	x1, [x2]
    18dc:	b5ffe9e1 	cbnz	x1, 1618 <drm_sched_main+0x1d0>
    18e0:	17fffffb 	b	18cc <drm_sched_main+0x484>
drm_sched_main():
/data3/home/yuanqiliang/code/arm-kernel/drivers/gpu/drm/scheduler/gpu_scheduler.c:861
		wait_event_interruptible(sched->wake_up_worker,
    18e4:	9101e3e1 	add	x1, sp, #0x78
    18e8:	aa1b03e0 	mov	x0, x27
    18ec:	94000000 	bl	0 <finish_wait>
/data3/home/yuanqiliang/code/arm-kernel/drivers/gpu/drm/scheduler/gpu_scheduler.c:866
		if (!entity)
    18f0:	17fffef1 	b	14b4 <drm_sched_main+0x6c>
    18f4:	d503201f 	nop

00000000000018f8 <drm_sched_job_finish_cb>:
drm_sched_job_finish_cb():
/data3/home/yuanqiliang/code/arm-kernel/drivers/gpu/drm/scheduler/gpu_scheduler.c:580
{
    18f8:	a9bf7bfd 	stp	x29, x30, [sp, #-16]!
schedule_work():
/data3/home/yuanqiliang/code/arm-kernel/./include/linux/workqueue.h:570
	return queue_work(system_wq, work);
    18fc:	90000003 	adrp	x3, 0 <system_wq>
queue_work():
/data3/home/yuanqiliang/code/arm-kernel/./include/linux/workqueue.h:512
	return queue_work_on(WORK_CPU_UNBOUND, wq, work);
    1900:	91006022 	add	x2, x1, #0x18
drm_sched_job_finish_cb():
/data3/home/yuanqiliang/code/arm-kernel/drivers/gpu/drm/scheduler/gpu_scheduler.c:580
    1904:	910003fd 	mov	x29, sp
queue_work():
/data3/home/yuanqiliang/code/arm-kernel/./include/linux/workqueue.h:512
    1908:	f9400061 	ldr	x1, [x3]
    190c:	52802000 	mov	w0, #0x100                 	// #256
    1910:	94000000 	bl	0 <queue_work_on>
drm_sched_job_finish_cb():
/data3/home/yuanqiliang/code/arm-kernel/drivers/gpu/drm/scheduler/gpu_scheduler.c:584
}
    1914:	a8c17bfd 	ldp	x29, x30, [sp], #16
    1918:	d65f03c0 	ret
    191c:	d503201f 	nop

0000000000001920 <drm_sched_fini>:
drm_sched_fini():
/data3/home/yuanqiliang/code/arm-kernel/drivers/gpu/drm/scheduler/gpu_scheduler.c:955
 *
 * Tears down and cleans up the scheduler.
 */
void drm_sched_fini(struct drm_gpu_scheduler *sched)
{
	if (sched->thread)
    1920:	f9409400 	ldr	x0, [x0, #296]
    1924:	b40000c0 	cbz	x0, 193c <drm_sched_fini+0x1c>
/data3/home/yuanqiliang/code/arm-kernel/drivers/gpu/drm/scheduler/gpu_scheduler.c:954
{
    1928:	a9bf7bfd 	stp	x29, x30, [sp, #-16]!
    192c:	910003fd 	mov	x29, sp
/data3/home/yuanqiliang/code/arm-kernel/drivers/gpu/drm/scheduler/gpu_scheduler.c:956
		kthread_stop(sched->thread);
    1930:	94000000 	bl	0 <kthread_stop>
/data3/home/yuanqiliang/code/arm-kernel/drivers/gpu/drm/scheduler/gpu_scheduler.c:957
}
    1934:	a8c17bfd 	ldp	x29, x30, [sp], #16
    1938:	d65f03c0 	ret
    193c:	d65f03c0 	ret

0000000000001940 <drm_sched_entity_clear_dep>:
drm_sched_entity_clear_dep():
/data3/home/yuanqiliang/code/arm-kernel/drivers/gpu/drm/scheduler/gpu_scheduler.c:381
	entity->dependency = NULL;
    1940:	f81f803f 	stur	xzr, [x1, #-8]
dma_fence_put():
/data3/home/yuanqiliang/code/arm-kernel/./include/linux/dma-fence.h:258
    1944:	b4000160 	cbz	x0, 1970 <drm_sched_entity_clear_dep+0x30>
drm_sched_entity_clear_dep():
/data3/home/yuanqiliang/code/arm-kernel/drivers/gpu/drm/scheduler/gpu_scheduler.c:378
{
    1948:	a9be7bfd 	stp	x29, x30, [sp, #-32]!
    194c:	910003fd 	mov	x29, sp
    1950:	f9000bf3 	str	x19, [sp, #16]
    1954:	aa0003f3 	mov	x19, x0
kref_put():
/data3/home/yuanqiliang/code/arm-kernel/./include/linux/kref.h:69
	if (refcount_dec_and_test(&kref->refcount)) {
    1958:	94000000 	bl	0 <refcount_dec_and_test_checked>
    195c:	72001c1f 	tst	w0, #0xff
    1960:	540000a1 	b.ne	1974 <drm_sched_entity_clear_dep+0x34>  // b.any
drm_sched_entity_clear_dep():
/data3/home/yuanqiliang/code/arm-kernel/drivers/gpu/drm/scheduler/gpu_scheduler.c:383
}
    1964:	f9400bf3 	ldr	x19, [sp, #16]
    1968:	a8c27bfd 	ldp	x29, x30, [sp], #32
    196c:	d65f03c0 	ret
    1970:	d65f03c0 	ret
kref_put():
/data3/home/yuanqiliang/code/arm-kernel/./include/linux/kref.h:70
		release(kref);
    1974:	aa1303e0 	mov	x0, x19
    1978:	94000000 	bl	0 <dma_fence_release>
drm_sched_entity_clear_dep():
/data3/home/yuanqiliang/code/arm-kernel/drivers/gpu/drm/scheduler/gpu_scheduler.c:383
    197c:	f9400bf3 	ldr	x19, [sp, #16]
    1980:	a8c27bfd 	ldp	x29, x30, [sp], #32
    1984:	d65f03c0 	ret

0000000000001988 <drm_sched_entity_set_rq>:
drm_sched_entity_set_rq():
/data3/home/yuanqiliang/code/arm-kernel/drivers/gpu/drm/scheduler/gpu_scheduler.c:397
	if (entity->rq == rq)
    1988:	f9400802 	ldr	x2, [x0, #16]
    198c:	eb01005f 	cmp	x2, x1
    1990:	540003c0 	b.eq	1a08 <drm_sched_entity_set_rq+0x80>  // b.none
/data3/home/yuanqiliang/code/arm-kernel/drivers/gpu/drm/scheduler/gpu_scheduler.c:396
{
    1994:	a9be7bfd 	stp	x29, x30, [sp, #-32]!
    1998:	910003fd 	mov	x29, sp
    199c:	a90153f3 	stp	x19, x20, [sp, #16]
/data3/home/yuanqiliang/code/arm-kernel/drivers/gpu/drm/scheduler/gpu_scheduler.c:400
	BUG_ON(!rq);
    19a0:	b4000361 	cbz	x1, 1a0c <drm_sched_entity_set_rq+0x84>
__raw_spin_lock():
/data3/home/yuanqiliang/code/arm-kernel/./include/linux/spinlock_api_smp.h:141
	LOCK_CONTENDED(lock, do_raw_spin_trylock, do_raw_spin_lock);
}

static inline void __raw_spin_lock(raw_spinlock_t *lock)
{
	preempt_disable();
    19a4:	aa0103f4 	mov	x20, x1
    19a8:	aa0003f3 	mov	x19, x0
__cmpxchg_case_acq_4():
/data3/home/yuanqiliang/code/arm-kernel/./arch/arm64/include/asm/atomic_ll_sc.h:272
__CMPXCHG_CASE(w,  , acq_4,        , a,  , "memory")
    19ac:	d2800002 	mov	x2, #0x0                   	// #0
do_raw_spin_lock():
/data3/home/yuanqiliang/code/arm-kernel/./include/linux/spinlock.h:180
    19b0:	91006000 	add	x0, x0, #0x18
__cmpxchg_case_acq_4():
/data3/home/yuanqiliang/code/arm-kernel/./arch/arm64/include/asm/atomic_ll_sc.h:272
    19b4:	d2800023 	mov	x3, #0x1                   	// #1
    19b8:	f9800011 	prfm	pstl1strm, [x0]
    19bc:	885ffc01 	ldaxr	w1, [x0]
    19c0:	4a020024 	eor	w4, w1, w2
    19c4:	35000064 	cbnz	w4, 19d0 <drm_sched_entity_set_rq+0x48>
    19c8:	88047c03 	stxr	w4, w3, [x0]
    19cc:	35ffff84 	cbnz	w4, 19bc <drm_sched_entity_set_rq+0x34>
queued_spin_lock():
/data3/home/yuanqiliang/code/arm-kernel/./include/asm-generic/qspinlock.h:86
	if (likely(val == 0))
    19d0:	35000201 	cbnz	w1, 1a10 <drm_sched_entity_set_rq+0x88>
drm_sched_entity_set_rq():
/data3/home/yuanqiliang/code/arm-kernel/drivers/gpu/drm/scheduler/gpu_scheduler.c:403
	drm_sched_rq_remove_entity(entity->rq, entity);
    19d4:	f9400a60 	ldr	x0, [x19, #16]
    19d8:	aa1303e1 	mov	x1, x19
    19dc:	97fffad1 	bl	520 <drm_sched_rq_remove_entity>
/data3/home/yuanqiliang/code/arm-kernel/drivers/gpu/drm/scheduler/gpu_scheduler.c:404
	entity->rq = rq;
    19e0:	f9000a74 	str	x20, [x19, #16]
/data3/home/yuanqiliang/code/arm-kernel/drivers/gpu/drm/scheduler/gpu_scheduler.c:405
	drm_sched_rq_add_entity(rq, entity);
    19e4:	aa1403e0 	mov	x0, x20
    19e8:	aa1303e1 	mov	x1, x19
    19ec:	97fffaaf 	bl	4a8 <drm_sched_rq_add_entity>
queued_spin_unlock():
/data3/home/yuanqiliang/code/arm-kernel/./include/asm-generic/qspinlock.h:101
	smp_store_release(&lock->locked, 0);
    19f0:	52800000 	mov	w0, #0x0                   	// #0
    19f4:	91006261 	add	x1, x19, #0x18
    19f8:	089ffc20 	stlrb	w0, [x1]
drm_sched_entity_set_rq():
/data3/home/yuanqiliang/code/arm-kernel/drivers/gpu/drm/scheduler/gpu_scheduler.c:407
}
    19fc:	a94153f3 	ldp	x19, x20, [sp, #16]
    1a00:	a8c27bfd 	ldp	x29, x30, [sp], #32
    1a04:	d65f03c0 	ret
    1a08:	d65f03c0 	ret
/data3/home/yuanqiliang/code/arm-kernel/drivers/gpu/drm/scheduler/gpu_scheduler.c:400
	BUG_ON(!rq);
    1a0c:	d4210000 	brk	#0x800
queued_spin_lock():
/data3/home/yuanqiliang/code/arm-kernel/./include/asm-generic/qspinlock.h:88
	queued_spin_lock_slowpath(lock, val);
    1a10:	94000000 	bl	0 <queued_spin_lock_slowpath>
    1a14:	17fffff0 	b	19d4 <drm_sched_entity_set_rq+0x4c>

0000000000001a18 <drm_sched_entity_push_job>:
drm_sched_entity_push_job():
/data3/home/yuanqiliang/code/arm-kernel/drivers/gpu/drm/scheduler/gpu_scheduler.c:519
{
    1a18:	a9bd7bfd 	stp	x29, x30, [sp, #-48]!
    1a1c:	910003fd 	mov	x29, sp
    1a20:	a90153f3 	stp	x19, x20, [sp, #16]
    1a24:	aa0003f4 	mov	x20, x0
    1a28:	aa0103f3 	mov	x19, x1
    1a2c:	a9025bf5 	stp	x21, x22, [sp, #32]
/data3/home/yuanqiliang/code/arm-kernel/drivers/gpu/drm/scheduler/gpu_scheduler.c:520
	struct drm_gpu_scheduler *sched = sched_job->sched;
    1a30:	f9400416 	ldr	x22, [x0, #8]
arch_static_branch():
/data3/home/yuanqiliang/code/arm-kernel/./arch/arm64/include/asm/jump_label.h:20
    1a34:	d503201f 	nop
get_current():
/data3/home/yuanqiliang/code/arm-kernel/./arch/arm64/include/asm/current.h:19
    1a38:	d5384100 	mrs	x0, sp_el0
drm_sched_entity_push_job():
/data3/home/yuanqiliang/code/arm-kernel/drivers/gpu/drm/scheduler/gpu_scheduler.c:525
	WRITE_ONCE(entity->last_user, current->group_leader);
    1a3c:	f9423800 	ldr	x0, [x0, #1136]
__write_once_size():
/data3/home/yuanqiliang/code/arm-kernel/./include/linux/compiler.h:220
	case 8: *(volatile __u64 *)p = *(__u64 *)res; break;
    1a40:	f9003e60 	str	x0, [x19, #120]
spsc_queue_push():
/data3/home/yuanqiliang/code/arm-kernel/./include/drm/spsc_queue.h:69
	node->next = NULL;
    1a44:	f900029f 	str	xzr, [x20]
__xchg_case_mb_8():
/data3/home/yuanqiliang/code/arm-kernel/./arch/arm64/include/asm/cmpxchg.h:61
__XCHG_CASE(w,  , rel_4,        ,    ,  ,  , l, "memory")
__XCHG_CASE( ,  , rel_8,        ,    ,  ,  , l, "memory")
__XCHG_CASE(w, b,  mb_1, dmb ish, nop,  , a, l, "memory")
__XCHG_CASE(w, h,  mb_2, dmb ish, nop,  , a, l, "memory")
__XCHG_CASE(w,  ,  mb_4, dmb ish, nop,  , a, l, "memory")
__XCHG_CASE( ,  ,  mb_8, dmb ish, nop,  , a, l, "memory")
    1a48:	9100a262 	add	x2, x19, #0x28
    1a4c:	f9800051 	prfm	pstl1strm, [x2]
    1a50:	c85f7c41 	ldxr	x1, [x2]
    1a54:	c800fc54 	stlxr	w0, x20, [x2]
    1a58:	35ffffc0 	cbnz	w0, 1a50 <drm_sched_entity_push_job+0x38>
    1a5c:	d5033bbf 	dmb	ish
spsc_queue_push():
/data3/home/yuanqiliang/code/arm-kernel/./include/drm/spsc_queue.h:75
	atomic_inc(&queue->job_count);
    1a60:	91008260 	add	x0, x19, #0x20
atomic_add():
/data3/home/yuanqiliang/code/arm-kernel/./arch/arm64/include/asm/atomic_ll_sc.h:102
ATOMIC_OPS(add, add)
    1a64:	9100c264 	add	x4, x19, #0x30
__write_once_size():
/data3/home/yuanqiliang/code/arm-kernel/./include/linux/compiler.h:220
    1a68:	f9000034 	str	x20, [x1]
atomic_add():
/data3/home/yuanqiliang/code/arm-kernel/./arch/arm64/include/asm/atomic_ll_sc.h:102
    1a6c:	f9800091 	prfm	pstl1strm, [x4]
    1a70:	885f7c82 	ldxr	w2, [x4]
    1a74:	11000442 	add	w2, w2, #0x1
    1a78:	88037c82 	stxr	w3, w2, [x4]
    1a7c:	35ffffa3 	cbnz	w3, 1a70 <drm_sched_entity_push_job+0x58>
spsc_queue_push():
/data3/home/yuanqiliang/code/arm-kernel/./include/drm/spsc_queue.h:81
	smp_wmb();
    1a80:	d5033abf 	dmb	ishst
drm_sched_entity_push_job():
/data3/home/yuanqiliang/code/arm-kernel/drivers/gpu/drm/scheduler/gpu_scheduler.c:529
	if (first) {
    1a84:	eb00003f 	cmp	x1, x0
    1a88:	540003e0 	b.eq	1b04 <drm_sched_entity_push_job+0xec>  // b.none
/data3/home/yuanqiliang/code/arm-kernel/drivers/gpu/drm/scheduler/gpu_scheduler.c:541
}
    1a8c:	a94153f3 	ldp	x19, x20, [sp, #16]
    1a90:	a9425bf5 	ldp	x21, x22, [sp, #32]
    1a94:	a8c37bfd 	ldp	x29, x30, [sp], #48
    1a98:	d65f03c0 	ret
trace_drm_sched_job():
/data3/home/yuanqiliang/code/arm-kernel/drivers/gpu/drm/scheduler/gpu_scheduler_trace.h:37
TRACE_EVENT(drm_sched_job,
    1a9c:	90000000 	adrp	x0, 0 <cpu_number>
    1aa0:	91000000 	add	x0, x0, #0x0
__my_cpu_offset():
/data3/home/yuanqiliang/code/arm-kernel/./arch/arm64/include/asm/percpu.h:30
    1aa4:	d538d081 	mrs	x1, tpidr_el1
trace_drm_sched_job():
/data3/home/yuanqiliang/code/arm-kernel/drivers/gpu/drm/scheduler/gpu_scheduler_trace.h:37
    1aa8:	b8616801 	ldr	w1, [x0, x1]
test_bit():
/data3/home/yuanqiliang/code/arm-kernel/./include/asm-generic/bitops/non-atomic.h:106
    1aac:	90000002 	adrp	x2, 0 <__cpu_online_mask>
    1ab0:	91000042 	add	x2, x2, #0x0
    1ab4:	7100003f 	cmp	w1, #0x0
    1ab8:	1100fc20 	add	w0, w1, #0x3f
    1abc:	1a81b000 	csel	w0, w0, w1, lt  // lt = tstop
    1ac0:	13067c00 	asr	w0, w0, #6
    1ac4:	93407c00 	sxtw	x0, w0
    1ac8:	f8607840 	ldr	x0, [x2, x0, lsl #3]
    1acc:	9ac12401 	lsr	x1, x0, x1
trace_drm_sched_job():
/data3/home/yuanqiliang/code/arm-kernel/drivers/gpu/drm/scheduler/gpu_scheduler_trace.h:37
    1ad0:	3607fb41 	tbz	w1, #0, 1a38 <drm_sched_entity_push_job+0x20>
__read_once_size():
/data3/home/yuanqiliang/code/arm-kernel/./include/linux/compiler.h:193
	__READ_ONCE_SIZE;
    1ad4:	90000000 	adrp	x0, 0 <drm_sched_job_timedout>
    1ad8:	91000000 	add	x0, x0, #0x0
    1adc:	f9402c15 	ldr	x21, [x0, #88]
trace_drm_sched_job():
/data3/home/yuanqiliang/code/arm-kernel/drivers/gpu/drm/scheduler/gpu_scheduler_trace.h:37
    1ae0:	b4000115 	cbz	x21, 1b00 <drm_sched_entity_push_job+0xe8>
    1ae4:	f94002a3 	ldr	x3, [x21]
    1ae8:	aa1303e2 	mov	x2, x19
    1aec:	f94006a0 	ldr	x0, [x21, #8]
    1af0:	aa1403e1 	mov	x1, x20
    1af4:	d63f0060 	blr	x3
    1af8:	f8418ea3 	ldr	x3, [x21, #24]!
    1afc:	b5ffff63 	cbnz	x3, 1ae8 <drm_sched_entity_push_job+0xd0>
    1b00:	17ffffce 	b	1a38 <drm_sched_entity_push_job+0x20>
__cmpxchg_case_acq_4():
/data3/home/yuanqiliang/code/arm-kernel/./arch/arm64/include/asm/atomic_ll_sc.h:272
__CMPXCHG_CASE(w,  , acq_4,        , a,  , "memory")
    1b04:	d2800002 	mov	x2, #0x0                   	// #0
do_raw_spin_lock():
/data3/home/yuanqiliang/code/arm-kernel/./include/linux/spinlock.h:180
    1b08:	91006260 	add	x0, x19, #0x18
__cmpxchg_case_acq_4():
/data3/home/yuanqiliang/code/arm-kernel/./arch/arm64/include/asm/atomic_ll_sc.h:272
    1b0c:	d2800023 	mov	x3, #0x1                   	// #1
    1b10:	f9800011 	prfm	pstl1strm, [x0]
    1b14:	885ffc01 	ldaxr	w1, [x0]
    1b18:	4a020024 	eor	w4, w1, w2
    1b1c:	35000064 	cbnz	w4, 1b28 <drm_sched_entity_push_job+0x110>
    1b20:	88047c03 	stxr	w4, w3, [x0]
    1b24:	35ffff84 	cbnz	w4, 1b14 <drm_sched_entity_push_job+0xfc>
queued_spin_lock():
/data3/home/yuanqiliang/code/arm-kernel/./include/asm-generic/qspinlock.h:86
	if (likely(val == 0))
    1b28:	35000321 	cbnz	w1, 1b8c <drm_sched_entity_push_job+0x174>
drm_sched_entity_push_job():
/data3/home/yuanqiliang/code/arm-kernel/drivers/gpu/drm/scheduler/gpu_scheduler.c:532
		if (!entity->rq) {
    1b2c:	f9400a60 	ldr	x0, [x19, #16]
    1b30:	b4000200 	cbz	x0, 1b70 <drm_sched_entity_push_job+0x158>
/data3/home/yuanqiliang/code/arm-kernel/drivers/gpu/drm/scheduler/gpu_scheduler.c:537
		drm_sched_rq_add_entity(entity->rq, entity);
    1b34:	aa1303e1 	mov	x1, x19
    1b38:	97fffa5c 	bl	4a8 <drm_sched_rq_add_entity>
queued_spin_unlock():
/data3/home/yuanqiliang/code/arm-kernel/./include/asm-generic/qspinlock.h:101
	smp_store_release(&lock->locked, 0);
    1b3c:	52800000 	mov	w0, #0x0                   	// #0
    1b40:	91006261 	add	x1, x19, #0x18
    1b44:	089ffc20 	stlrb	w0, [x1]
__read_once_size():
/data3/home/yuanqiliang/code/arm-kernel/./include/linux/compiler.h:193
    1b48:	b9411ac1 	ldr	w1, [x22, #280]
drm_sched_wakeup():
/data3/home/yuanqiliang/code/arm-kernel/drivers/gpu/drm/scheduler/gpu_scheduler.c:770
	if (drm_sched_ready(sched))
    1b4c:	b9400ac0 	ldr	w0, [x22, #8]
    1b50:	6b00003f 	cmp	w1, w0
    1b54:	54fff9c2 	b.cs	1a8c <drm_sched_entity_push_job+0x74>  // b.hs, b.nlast
/data3/home/yuanqiliang/code/arm-kernel/drivers/gpu/drm/scheduler/gpu_scheduler.c:771
		wake_up_interruptible(&sched->wake_up_worker);
    1b58:	52800022 	mov	w2, #0x1                   	// #1
    1b5c:	9103a2c0 	add	x0, x22, #0xe8
    1b60:	d2800003 	mov	x3, #0x0                   	// #0
    1b64:	2a0203e1 	mov	w1, w2
    1b68:	94000000 	bl	0 <__wake_up>
    1b6c:	17ffffc8 	b	1a8c <drm_sched_entity_push_job+0x74>
drm_sched_entity_push_job():
/data3/home/yuanqiliang/code/arm-kernel/drivers/gpu/drm/scheduler/gpu_scheduler.c:533
			DRM_ERROR("Trying to push to a killed entity\n");
    1b70:	90000000 	adrp	x0, 0 <drm_sched_job_timedout>
    1b74:	91000000 	add	x0, x0, #0x0
    1b78:	94000000 	bl	0 <drm_err>
queued_spin_unlock():
/data3/home/yuanqiliang/code/arm-kernel/./include/asm-generic/qspinlock.h:101
    1b7c:	52800000 	mov	w0, #0x0                   	// #0
    1b80:	91006261 	add	x1, x19, #0x18
    1b84:	089ffc20 	stlrb	w0, [x1]
drm_sched_entity_push_job():
/data3/home/yuanqiliang/code/arm-kernel/drivers/gpu/drm/scheduler/gpu_scheduler.c:535
			return;
    1b88:	17ffffc1 	b	1a8c <drm_sched_entity_push_job+0x74>
queued_spin_lock():
/data3/home/yuanqiliang/code/arm-kernel/./include/asm-generic/qspinlock.h:88
	queued_spin_lock_slowpath(lock, val);
    1b8c:	94000000 	bl	0 <queued_spin_lock_slowpath>
    1b90:	17ffffe7 	b	1b2c <drm_sched_entity_push_job+0x114>
drm_sched_entity_push_job():
/data3/home/yuanqiliang/code/arm-kernel/./include/asm-generic/qspinlock.h:88
    1b94:	d503201f 	nop

0000000000001b98 <drm_sched_entity_wakeup>:
drm_sched_entity_wakeup():
/data3/home/yuanqiliang/code/arm-kernel/drivers/gpu/drm/scheduler/gpu_scheduler.c:369
{
    1b98:	a9be7bfd 	stp	x29, x30, [sp, #-32]!
    1b9c:	910003fd 	mov	x29, sp
    1ba0:	a90153f3 	stp	x19, x20, [sp, #16]
    1ba4:	aa0103f3 	mov	x19, x1
/data3/home/yuanqiliang/code/arm-kernel/drivers/gpu/drm/scheduler/gpu_scheduler.c:372
	entity->dependency = NULL;
    1ba8:	f81f803f 	stur	xzr, [x1, #-8]
dma_fence_put():
/data3/home/yuanqiliang/code/arm-kernel/./include/linux/dma-fence.h:258
    1bac:	b40000a0 	cbz	x0, 1bc0 <drm_sched_entity_wakeup+0x28>
kref_put():
/data3/home/yuanqiliang/code/arm-kernel/./include/linux/kref.h:69
	if (refcount_dec_and_test(&kref->refcount)) {
    1bb0:	aa0003f4 	mov	x20, x0
    1bb4:	94000000 	bl	0 <refcount_dec_and_test_checked>
    1bb8:	72001c1f 	tst	w0, #0xff
    1bbc:	54000241 	b.ne	1c04 <drm_sched_entity_wakeup+0x6c>  // b.any
drm_sched_entity_wakeup():
/data3/home/yuanqiliang/code/arm-kernel/drivers/gpu/drm/scheduler/gpu_scheduler.c:374
	drm_sched_wakeup(entity->rq->sched);
    1bc0:	f85c0260 	ldur	x0, [x19, #-64]
    1bc4:	f9400400 	ldr	x0, [x0, #8]
__read_once_size():
/data3/home/yuanqiliang/code/arm-kernel/./include/linux/compiler.h:193
    1bc8:	b9411802 	ldr	w2, [x0, #280]
drm_sched_wakeup():
/data3/home/yuanqiliang/code/arm-kernel/drivers/gpu/drm/scheduler/gpu_scheduler.c:770
	if (drm_sched_ready(sched))
    1bcc:	b9400801 	ldr	w1, [x0, #8]
    1bd0:	6b01005f 	cmp	w2, w1
    1bd4:	54000083 	b.cc	1be4 <drm_sched_entity_wakeup+0x4c>  // b.lo, b.ul, b.last
drm_sched_entity_wakeup():
/data3/home/yuanqiliang/code/arm-kernel/drivers/gpu/drm/scheduler/gpu_scheduler.c:375
}
    1bd8:	a94153f3 	ldp	x19, x20, [sp, #16]
    1bdc:	a8c27bfd 	ldp	x29, x30, [sp], #32
    1be0:	d65f03c0 	ret
drm_sched_wakeup():
/data3/home/yuanqiliang/code/arm-kernel/drivers/gpu/drm/scheduler/gpu_scheduler.c:771
		wake_up_interruptible(&sched->wake_up_worker);
    1be4:	52800022 	mov	w2, #0x1                   	// #1
    1be8:	9103a000 	add	x0, x0, #0xe8
    1bec:	d2800003 	mov	x3, #0x0                   	// #0
    1bf0:	2a0203e1 	mov	w1, w2
    1bf4:	94000000 	bl	0 <__wake_up>
drm_sched_entity_wakeup():
/data3/home/yuanqiliang/code/arm-kernel/drivers/gpu/drm/scheduler/gpu_scheduler.c:375
}
    1bf8:	a94153f3 	ldp	x19, x20, [sp, #16]
    1bfc:	a8c27bfd 	ldp	x29, x30, [sp], #32
    1c00:	d65f03c0 	ret
kref_put():
/data3/home/yuanqiliang/code/arm-kernel/./include/linux/kref.h:70
		release(kref);
    1c04:	aa1403e0 	mov	x0, x20
    1c08:	94000000 	bl	0 <dma_fence_release>
/data3/home/yuanqiliang/code/arm-kernel/./include/linux/kref.h:71
		return 1;
    1c0c:	17ffffed 	b	1bc0 <drm_sched_entity_wakeup+0x28>

0000000000001c10 <drm_sched_fence_get_driver_name>:
drm_sched_fence_get_driver_name():
/data3/home/yuanqiliang/code/arm-kernel/drivers/gpu/drm/scheduler/sched_fence.c:75
				"was already signaled\n");
}

static const char *drm_sched_fence_get_driver_name(struct dma_fence *fence)
{
	return "drm_sched";
    1c10:	90000000 	adrp	x0, 0 <drm_sched_job_timedout>
/data3/home/yuanqiliang/code/arm-kernel/drivers/gpu/drm/scheduler/sched_fence.c:76
}
    1c14:	91000000 	add	x0, x0, #0x0
    1c18:	d65f03c0 	ret
    1c1c:	d503201f 	nop

0000000000001c20 <drm_sched_fence_get_timeline_name>:
to_drm_sched_fence():
/data3/home/yuanqiliang/code/arm-kernel/drivers/gpu/drm/scheduler/sched_fence.c:143
	.release = drm_sched_fence_release_finished,
};

struct drm_sched_fence *to_drm_sched_fence(struct dma_fence *f)
{
	if (f->ops == &drm_sched_fence_ops_scheduled)
    1c20:	f9400402 	ldr	x2, [x0, #8]
    1c24:	90000001 	adrp	x1, 0 <drm_sched_job_timedout>
    1c28:	91000021 	add	x1, x1, #0x0
    1c2c:	eb01005f 	cmp	x2, x1
    1c30:	540000a0 	b.eq	1c44 <drm_sched_fence_get_timeline_name+0x24>  // b.none
/data3/home/yuanqiliang/code/arm-kernel/drivers/gpu/drm/scheduler/sched_fence.c:146
		return container_of(f, struct drm_sched_fence, scheduled);

	if (f->ops == &drm_sched_fence_ops_finished)
    1c34:	91010021 	add	x1, x1, #0x40
/data3/home/yuanqiliang/code/arm-kernel/drivers/gpu/drm/scheduler/sched_fence.c:147
		return container_of(f, struct drm_sched_fence, finished);
    1c38:	d1018000 	sub	x0, x0, #0x60
    1c3c:	eb01005f 	cmp	x2, x1
    1c40:	9a9f0000 	csel	x0, x0, xzr, eq  // eq = none
drm_sched_fence_get_timeline_name():
/data3/home/yuanqiliang/code/arm-kernel/drivers/gpu/drm/scheduler/sched_fence.c:81
	return (const char *)fence->sched->name;
    1c44:	f9407000 	ldr	x0, [x0, #224]
/data3/home/yuanqiliang/code/arm-kernel/drivers/gpu/drm/scheduler/sched_fence.c:82
}
    1c48:	f9400c00 	ldr	x0, [x0, #24]
    1c4c:	d65f03c0 	ret

0000000000001c50 <to_drm_sched_fence>:
to_drm_sched_fence():
/data3/home/yuanqiliang/code/arm-kernel/drivers/gpu/drm/scheduler/sched_fence.c:143
	if (f->ops == &drm_sched_fence_ops_scheduled)
    1c50:	f9400402 	ldr	x2, [x0, #8]
    1c54:	90000001 	adrp	x1, 0 <drm_sched_job_timedout>
    1c58:	91000021 	add	x1, x1, #0x0
    1c5c:	eb01005f 	cmp	x2, x1
    1c60:	540000a0 	b.eq	1c74 <to_drm_sched_fence+0x24>  // b.none
/data3/home/yuanqiliang/code/arm-kernel/drivers/gpu/drm/scheduler/sched_fence.c:146
	if (f->ops == &drm_sched_fence_ops_finished)
    1c64:	91010021 	add	x1, x1, #0x40
/data3/home/yuanqiliang/code/arm-kernel/drivers/gpu/drm/scheduler/sched_fence.c:147
		return container_of(f, struct drm_sched_fence, finished);
    1c68:	d1018000 	sub	x0, x0, #0x60
    1c6c:	eb01005f 	cmp	x2, x1
    1c70:	9a9f0000 	csel	x0, x0, xzr, eq  // eq = none
/data3/home/yuanqiliang/code/arm-kernel/drivers/gpu/drm/scheduler/sched_fence.c:150

	return NULL;
}
    1c74:	d65f03c0 	ret

0000000000001c78 <drm_sched_fence_free>:
drm_sched_fence_free():
/data3/home/yuanqiliang/code/arm-kernel/drivers/gpu/drm/scheduler/sched_fence.c:92
{
    1c78:	a9bf7bfd 	stp	x29, x30, [sp, #-16]!
to_drm_sched_fence():
/data3/home/yuanqiliang/code/arm-kernel/drivers/gpu/drm/scheduler/sched_fence.c:143
	if (f->ops == &drm_sched_fence_ops_scheduled)
    1c7c:	90000002 	adrp	x2, 0 <drm_sched_job_timedout>
    1c80:	91000042 	add	x2, x2, #0x0
drm_sched_fence_free():
/data3/home/yuanqiliang/code/arm-kernel/drivers/gpu/drm/scheduler/sched_fence.c:92
{
    1c84:	910003fd 	mov	x29, sp
to_drm_sched_fence():
/data3/home/yuanqiliang/code/arm-kernel/drivers/gpu/drm/scheduler/sched_fence.c:143
	if (f->ops == &drm_sched_fence_ops_scheduled)
    1c88:	f85f8003 	ldur	x3, [x0, #-8]
    1c8c:	eb02007f 	cmp	x3, x2
    1c90:	54000140 	b.eq	1cb8 <drm_sched_fence_free+0x40>  // b.none
/data3/home/yuanqiliang/code/arm-kernel/drivers/gpu/drm/scheduler/sched_fence.c:146
	if (f->ops == &drm_sched_fence_ops_finished)
    1c94:	91010042 	add	x2, x2, #0x40
/data3/home/yuanqiliang/code/arm-kernel/drivers/gpu/drm/scheduler/sched_fence.c:147
		return container_of(f, struct drm_sched_fence, finished);
    1c98:	d101c000 	sub	x0, x0, #0x70
    1c9c:	eb02007f 	cmp	x3, x2
    1ca0:	9a9f0001 	csel	x1, x0, xzr, eq  // eq = none
drm_sched_fence_free():
/data3/home/yuanqiliang/code/arm-kernel/drivers/gpu/drm/scheduler/sched_fence.c:96
	kmem_cache_free(sched_fence_slab, fence);
    1ca4:	90000000 	adrp	x0, 0 <drm_sched_job_timedout>
    1ca8:	f9400000 	ldr	x0, [x0]
    1cac:	94000000 	bl	0 <kmem_cache_free>
/data3/home/yuanqiliang/code/arm-kernel/drivers/gpu/drm/scheduler/sched_fence.c:97
}
    1cb0:	a8c17bfd 	ldp	x29, x30, [sp], #16
    1cb4:	d65f03c0 	ret
    1cb8:	d1004001 	sub	x1, x0, #0x10
/data3/home/yuanqiliang/code/arm-kernel/drivers/gpu/drm/scheduler/sched_fence.c:96
	kmem_cache_free(sched_fence_slab, fence);
    1cbc:	90000000 	adrp	x0, 0 <drm_sched_job_timedout>
    1cc0:	f9400000 	ldr	x0, [x0]
    1cc4:	94000000 	bl	0 <kmem_cache_free>
/data3/home/yuanqiliang/code/arm-kernel/drivers/gpu/drm/scheduler/sched_fence.c:97
}
    1cc8:	a8c17bfd 	ldp	x29, x30, [sp], #16
    1ccc:	d65f03c0 	ret

0000000000001cd0 <drm_sched_fence_release_finished>:
drm_sched_fence_release_finished():
/data3/home/yuanqiliang/code/arm-kernel/drivers/gpu/drm/scheduler/sched_fence.c:123
{
    1cd0:	a9be7bfd 	stp	x29, x30, [sp, #-32]!
    1cd4:	910003fd 	mov	x29, sp
    1cd8:	f9000bf3 	str	x19, [sp, #16]
    1cdc:	aa0003f3 	mov	x19, x0
to_drm_sched_fence():
/data3/home/yuanqiliang/code/arm-kernel/drivers/gpu/drm/scheduler/sched_fence.c:143
	if (f->ops == &drm_sched_fence_ops_scheduled)
    1ce0:	90000000 	adrp	x0, 0 <drm_sched_job_timedout>
    1ce4:	91000000 	add	x0, x0, #0x0
    1ce8:	f9400661 	ldr	x1, [x19, #8]
    1cec:	eb00003f 	cmp	x1, x0
    1cf0:	54000100 	b.eq	1d10 <drm_sched_fence_release_finished+0x40>  // b.none
/data3/home/yuanqiliang/code/arm-kernel/drivers/gpu/drm/scheduler/sched_fence.c:146
	if (f->ops == &drm_sched_fence_ops_finished)
    1cf4:	91010000 	add	x0, x0, #0x40
    1cf8:	eb00003f 	cmp	x1, x0
    1cfc:	54000080 	b.eq	1d0c <drm_sched_fence_release_finished+0x3c>  // b.none
drm_sched_fence_release_finished():
/data3/home/yuanqiliang/code/arm-kernel/drivers/gpu/drm/scheduler/sched_fence.c:127
}
    1d00:	f9400bf3 	ldr	x19, [sp, #16]
    1d04:	a8c27bfd 	ldp	x29, x30, [sp], #32
    1d08:	d65f03c0 	ret
to_drm_sched_fence():
/data3/home/yuanqiliang/code/arm-kernel/drivers/gpu/drm/scheduler/sched_fence.c:147
		return container_of(f, struct drm_sched_fence, finished);
    1d0c:	d1018273 	sub	x19, x19, #0x60
dma_fence_put():
/data3/home/yuanqiliang/code/arm-kernel/./include/linux/dma-fence.h:258
    1d10:	b4ffff93 	cbz	x19, 1d00 <drm_sched_fence_release_finished+0x30>
kref_put():
/data3/home/yuanqiliang/code/arm-kernel/./include/linux/kref.h:69
	if (refcount_dec_and_test(&kref->refcount)) {
    1d14:	aa1303e0 	mov	x0, x19
    1d18:	94000000 	bl	0 <refcount_dec_and_test_checked>
    1d1c:	72001c1f 	tst	w0, #0xff
    1d20:	54ffff00 	b.eq	1d00 <drm_sched_fence_release_finished+0x30>  // b.none
/data3/home/yuanqiliang/code/arm-kernel/./include/linux/kref.h:70
		release(kref);
    1d24:	aa1303e0 	mov	x0, x19
    1d28:	94000000 	bl	0 <dma_fence_release>
drm_sched_fence_release_finished():
/data3/home/yuanqiliang/code/arm-kernel/drivers/gpu/drm/scheduler/sched_fence.c:127
}
    1d2c:	f9400bf3 	ldr	x19, [sp, #16]
    1d30:	a8c27bfd 	ldp	x29, x30, [sp], #32
    1d34:	d65f03c0 	ret

0000000000001d38 <drm_sched_fence_release_scheduled>:
drm_sched_fence_release_scheduled():
/data3/home/yuanqiliang/code/arm-kernel/drivers/gpu/drm/scheduler/sched_fence.c:108
{
    1d38:	a9be7bfd 	stp	x29, x30, [sp, #-32]!
    1d3c:	910003fd 	mov	x29, sp
    1d40:	a90153f3 	stp	x19, x20, [sp, #16]
    1d44:	aa0003f3 	mov	x19, x0
to_drm_sched_fence():
/data3/home/yuanqiliang/code/arm-kernel/drivers/gpu/drm/scheduler/sched_fence.c:143
	if (f->ops == &drm_sched_fence_ops_scheduled)
    1d48:	90000000 	adrp	x0, 0 <drm_sched_job_timedout>
    1d4c:	91000000 	add	x0, x0, #0x0
    1d50:	f9400661 	ldr	x1, [x19, #8]
    1d54:	eb00003f 	cmp	x1, x0
    1d58:	540000a0 	b.eq	1d6c <drm_sched_fence_release_scheduled+0x34>  // b.none
/data3/home/yuanqiliang/code/arm-kernel/drivers/gpu/drm/scheduler/sched_fence.c:146
	if (f->ops == &drm_sched_fence_ops_finished)
    1d5c:	91010000 	add	x0, x0, #0x40
/data3/home/yuanqiliang/code/arm-kernel/drivers/gpu/drm/scheduler/sched_fence.c:147
		return container_of(f, struct drm_sched_fence, finished);
    1d60:	d1018273 	sub	x19, x19, #0x60
    1d64:	eb00003f 	cmp	x1, x0
    1d68:	9a9f0273 	csel	x19, x19, xzr, eq  // eq = none
drm_sched_fence_release_scheduled():
/data3/home/yuanqiliang/code/arm-kernel/drivers/gpu/drm/scheduler/sched_fence.c:111
	dma_fence_put(fence->parent);
    1d6c:	f9406e74 	ldr	x20, [x19, #216]
dma_fence_put():
/data3/home/yuanqiliang/code/arm-kernel/./include/linux/dma-fence.h:258
    1d70:	b40000b4 	cbz	x20, 1d84 <drm_sched_fence_release_scheduled+0x4c>
kref_put():
/data3/home/yuanqiliang/code/arm-kernel/./include/linux/kref.h:69
	if (refcount_dec_and_test(&kref->refcount)) {
    1d74:	aa1403e0 	mov	x0, x20
    1d78:	94000000 	bl	0 <refcount_dec_and_test_checked>
    1d7c:	72001c1f 	tst	w0, #0xff
    1d80:	54000101 	b.ne	1da0 <drm_sched_fence_release_scheduled+0x68>  // b.any
drm_sched_fence_release_scheduled():
/data3/home/yuanqiliang/code/arm-kernel/drivers/gpu/drm/scheduler/sched_fence.c:112
	call_rcu(&fence->finished.rcu, drm_sched_fence_free);
    1d84:	9101c260 	add	x0, x19, #0x70
    1d88:	90000001 	adrp	x1, 0 <drm_sched_job_timedout>
    1d8c:	91000021 	add	x1, x1, #0x0
    1d90:	94000000 	bl	0 <call_rcu_sched>
/data3/home/yuanqiliang/code/arm-kernel/drivers/gpu/drm/scheduler/sched_fence.c:113
}
    1d94:	a94153f3 	ldp	x19, x20, [sp, #16]
    1d98:	a8c27bfd 	ldp	x29, x30, [sp], #32
    1d9c:	d65f03c0 	ret
kref_put():
/data3/home/yuanqiliang/code/arm-kernel/./include/linux/kref.h:70
		release(kref);
    1da0:	aa1403e0 	mov	x0, x20
    1da4:	94000000 	bl	0 <dma_fence_release>
drm_sched_fence_release_scheduled():
/data3/home/yuanqiliang/code/arm-kernel/drivers/gpu/drm/scheduler/sched_fence.c:112
	call_rcu(&fence->finished.rcu, drm_sched_fence_free);
    1da8:	9101c260 	add	x0, x19, #0x70
    1dac:	90000001 	adrp	x1, 0 <drm_sched_job_timedout>
    1db0:	91000021 	add	x1, x1, #0x0
    1db4:	94000000 	bl	0 <call_rcu_sched>
/data3/home/yuanqiliang/code/arm-kernel/drivers/gpu/drm/scheduler/sched_fence.c:113
}
    1db8:	a94153f3 	ldp	x19, x20, [sp, #16]
    1dbc:	a8c27bfd 	ldp	x29, x30, [sp], #32
    1dc0:	d65f03c0 	ret
    1dc4:	d503201f 	nop

0000000000001dc8 <drm_sched_fence_scheduled>:
drm_sched_fence_scheduled():
/data3/home/yuanqiliang/code/arm-kernel/drivers/gpu/drm/scheduler/sched_fence.c:50
{
    1dc8:	a9bf7bfd 	stp	x29, x30, [sp, #-16]!
    1dcc:	910003fd 	mov	x29, sp
/data3/home/yuanqiliang/code/arm-kernel/drivers/gpu/drm/scheduler/sched_fence.c:51
	int ret = dma_fence_signal(&fence->scheduled);
    1dd0:	94000000 	bl	0 <dma_fence_signal>
/data3/home/yuanqiliang/code/arm-kernel/drivers/gpu/drm/scheduler/sched_fence.c:59
}
    1dd4:	a8c17bfd 	ldp	x29, x30, [sp], #16
    1dd8:	d65f03c0 	ret
    1ddc:	d503201f 	nop

0000000000001de0 <drm_sched_fence_finished>:
drm_sched_fence_finished():
/data3/home/yuanqiliang/code/arm-kernel/drivers/gpu/drm/scheduler/sched_fence.c:62
{
    1de0:	a9bf7bfd 	stp	x29, x30, [sp, #-16]!
/data3/home/yuanqiliang/code/arm-kernel/drivers/gpu/drm/scheduler/sched_fence.c:63
	int ret = dma_fence_signal(&fence->finished);
    1de4:	91018000 	add	x0, x0, #0x60
/data3/home/yuanqiliang/code/arm-kernel/drivers/gpu/drm/scheduler/sched_fence.c:62
{
    1de8:	910003fd 	mov	x29, sp
/data3/home/yuanqiliang/code/arm-kernel/drivers/gpu/drm/scheduler/sched_fence.c:63
	int ret = dma_fence_signal(&fence->finished);
    1dec:	94000000 	bl	0 <dma_fence_signal>
/data3/home/yuanqiliang/code/arm-kernel/drivers/gpu/drm/scheduler/sched_fence.c:71
}
    1df0:	a8c17bfd 	ldp	x29, x30, [sp], #16
    1df4:	d65f03c0 	ret

0000000000001df8 <drm_sched_fence_create>:
drm_sched_fence_create():
/data3/home/yuanqiliang/code/arm-kernel/drivers/gpu/drm/scheduler/sched_fence.c:155
EXPORT_SYMBOL(to_drm_sched_fence);

struct drm_sched_fence *drm_sched_fence_create(struct drm_sched_entity *entity,
					       void *owner)
{
    1df8:	a9bc7bfd 	stp	x29, x30, [sp, #-64]!
/data3/home/yuanqiliang/code/arm-kernel/drivers/gpu/drm/scheduler/sched_fence.c:159
	struct drm_sched_fence *fence = NULL;
	unsigned seq;

	fence = kmem_cache_zalloc(sched_fence_slab, GFP_KERNEL);
    1dfc:	90000002 	adrp	x2, 0 <drm_sched_job_timedout>
/data3/home/yuanqiliang/code/arm-kernel/drivers/gpu/drm/scheduler/sched_fence.c:155
{
    1e00:	910003fd 	mov	x29, sp
    1e04:	a90153f3 	stp	x19, x20, [sp, #16]
    1e08:	aa0003f3 	mov	x19, x0
kmem_cache_zalloc():
/data3/home/yuanqiliang/code/arm-kernel/./include/linux/slab.h:699
/*
 * Shortcuts
 */
static inline void *kmem_cache_zalloc(struct kmem_cache *k, gfp_t flags)
{
	return kmem_cache_alloc(k, flags | __GFP_ZERO);
    1e0c:	f9400040 	ldr	x0, [x2]
drm_sched_fence_create():
/data3/home/yuanqiliang/code/arm-kernel/drivers/gpu/drm/scheduler/sched_fence.c:155
    1e10:	a9025bf5 	stp	x21, x22, [sp, #32]
    1e14:	aa0103f5 	mov	x21, x1
kmem_cache_zalloc():
/data3/home/yuanqiliang/code/arm-kernel/./include/linux/slab.h:699
    1e18:	52901801 	mov	w1, #0x80c0                	// #32960
    1e1c:	72a00c01 	movk	w1, #0x60, lsl #16
    1e20:	94000000 	bl	0 <kmem_cache_alloc>
    1e24:	aa0003f4 	mov	x20, x0
drm_sched_fence_create():
/data3/home/yuanqiliang/code/arm-kernel/drivers/gpu/drm/scheduler/sched_fence.c:160
	if (fence == NULL)
    1e28:	b40003c0 	cbz	x0, 1ea0 <drm_sched_fence_create+0xa8>
/data3/home/yuanqiliang/code/arm-kernel/drivers/gpu/drm/scheduler/sched_fence.c:163
		return NULL;

	fence->owner = owner;
    1e2c:	f9007815 	str	x21, [x0, #240]
/data3/home/yuanqiliang/code/arm-kernel/drivers/gpu/drm/scheduler/sched_fence.c:165
	fence->sched = entity->rq->sched;
	spin_lock_init(&fence->lock);
    1e30:	aa0003f6 	mov	x22, x0
    1e34:	f9001bf7 	str	x23, [sp, #48]
atomic_add_return():
/data3/home/yuanqiliang/code/arm-kernel/./arch/arm64/include/asm/atomic_ll_sc.h:102
ATOMIC_OPS(add, add)
    1e38:	9100e262 	add	x2, x19, #0x38
drm_sched_fence_create():
/data3/home/yuanqiliang/code/arm-kernel/drivers/gpu/drm/scheduler/sched_fence.c:164
	fence->sched = entity->rq->sched;
    1e3c:	f9400a61 	ldr	x1, [x19, #16]
    1e40:	f9400421 	ldr	x1, [x1, #8]
    1e44:	f9007001 	str	x1, [x0, #224]
/data3/home/yuanqiliang/code/arm-kernel/drivers/gpu/drm/scheduler/sched_fence.c:165
	spin_lock_init(&fence->lock);
    1e48:	b80e8edf 	str	wzr, [x22, #232]!
atomic_add_return():
/data3/home/yuanqiliang/code/arm-kernel/./arch/arm64/include/asm/atomic_ll_sc.h:102
    1e4c:	f9800051 	prfm	pstl1strm, [x2]
    1e50:	885f7c57 	ldxr	w23, [x2]
    1e54:	110006f7 	add	w23, w23, #0x1
    1e58:	8801fc57 	stlxr	w1, w23, [x2]
    1e5c:	35ffffa1 	cbnz	w1, 1e50 <drm_sched_fence_create+0x58>
    1e60:	d5033bbf 	dmb	ish
drm_sched_fence_create():
/data3/home/yuanqiliang/code/arm-kernel/drivers/gpu/drm/scheduler/sched_fence.c:168

	seq = atomic_inc_return(&entity->fence_seq);
	dma_fence_init(&fence->scheduled, &drm_sched_fence_ops_scheduled,
    1e64:	f9402263 	ldr	x3, [x19, #64]
    1e68:	90000015 	adrp	x21, 0 <drm_sched_job_timedout>
    1e6c:	910002b5 	add	x21, x21, #0x0
    1e70:	2a1703e4 	mov	w4, w23
    1e74:	aa1603e2 	mov	x2, x22
    1e78:	aa1503e1 	mov	x1, x21
    1e7c:	94000000 	bl	0 <dma_fence_init>
/data3/home/yuanqiliang/code/arm-kernel/drivers/gpu/drm/scheduler/sched_fence.c:170
		       &fence->lock, entity->fence_context, seq);
	dma_fence_init(&fence->finished, &drm_sched_fence_ops_finished,
    1e80:	f9402263 	ldr	x3, [x19, #64]
    1e84:	2a1703e4 	mov	w4, w23
    1e88:	aa1603e2 	mov	x2, x22
    1e8c:	910102a1 	add	x1, x21, #0x40
    1e90:	91018280 	add	x0, x20, #0x60
    1e94:	91000463 	add	x3, x3, #0x1
    1e98:	94000000 	bl	0 <dma_fence_init>
    1e9c:	f9401bf7 	ldr	x23, [sp, #48]
/data3/home/yuanqiliang/code/arm-kernel/drivers/gpu/drm/scheduler/sched_fence.c:174
		       &fence->lock, entity->fence_context + 1, seq);

	return fence;
}
    1ea0:	aa1403e0 	mov	x0, x20
    1ea4:	a94153f3 	ldp	x19, x20, [sp, #16]
    1ea8:	a9425bf5 	ldp	x21, x22, [sp, #32]
    1eac:	a8c47bfd 	ldp	x29, x30, [sp], #64
    1eb0:	d65f03c0 	ret

Disassembly of section .init.text:

0000000000000000 <trace_event_define_fields_drm_sched_job>:
trace_event_define_fields_drm_sched_job():
/data3/home/yuanqiliang/code/arm-kernel/./include/trace/../../drivers/gpu/drm/scheduler/gpu_scheduler_trace.h:37
TRACE_EVENT(drm_sched_job,
   0:	a9be7bfd 	stp	x29, x30, [sp, #-32]!
   4:	90000002 	adrp	x2, 0 <trace_event_define_fields_drm_sched_job>
   8:	90000001 	adrp	x1, 0 <trace_event_define_fields_drm_sched_job>
   c:	910003fd 	mov	x29, sp
  10:	52800104 	mov	w4, #0x8                   	// #8
  14:	91000042 	add	x2, x2, #0x0
  18:	91000021 	add	x1, x1, #0x0
  1c:	2a0403e3 	mov	w3, w4
  20:	52800006 	mov	w6, #0x0                   	// #0
  24:	52800005 	mov	w5, #0x0                   	// #0
  28:	f9000bf3 	str	x19, [sp, #16]
  2c:	aa0003f3 	mov	x19, x0
  30:	94000000 	bl	0 <trace_define_field>
  34:	350006e0 	cbnz	w0, 110 <trace_event_define_fields_drm_sched_job+0x110>
/data3/home/yuanqiliang/code/arm-kernel/./include/trace/../../drivers/gpu/drm/scheduler/gpu_scheduler_trace.h:37 (discriminator 2)
  38:	90000002 	adrp	x2, 0 <trace_event_define_fields_drm_sched_job>
  3c:	90000001 	adrp	x1, 0 <trace_event_define_fields_drm_sched_job>
  40:	91000042 	add	x2, x2, #0x0
  44:	91000021 	add	x1, x1, #0x0
  48:	52800006 	mov	w6, #0x0                   	// #0
  4c:	52800005 	mov	w5, #0x0                   	// #0
  50:	52800104 	mov	w4, #0x8                   	// #8
  54:	52800203 	mov	w3, #0x10                  	// #16
  58:	aa1303e0 	mov	x0, x19
  5c:	94000000 	bl	0 <trace_define_field>
  60:	35000580 	cbnz	w0, 110 <trace_event_define_fields_drm_sched_job+0x110>
/data3/home/yuanqiliang/code/arm-kernel/./include/trace/../../drivers/gpu/drm/scheduler/gpu_scheduler_trace.h:37 (discriminator 4)
  64:	90000002 	adrp	x2, 0 <trace_event_define_fields_drm_sched_job>
  68:	90000001 	adrp	x1, 0 <trace_event_define_fields_drm_sched_job>
  6c:	91000042 	add	x2, x2, #0x0
  70:	91000021 	add	x1, x1, #0x0
  74:	52800006 	mov	w6, #0x0                   	// #0
  78:	52800005 	mov	w5, #0x0                   	// #0
  7c:	52800104 	mov	w4, #0x8                   	// #8
  80:	52800303 	mov	w3, #0x18                  	// #24
  84:	aa1303e0 	mov	x0, x19
  88:	94000000 	bl	0 <trace_define_field>
  8c:	35000420 	cbnz	w0, 110 <trace_event_define_fields_drm_sched_job+0x110>
/data3/home/yuanqiliang/code/arm-kernel/./include/trace/../../drivers/gpu/drm/scheduler/gpu_scheduler_trace.h:37 (discriminator 6)
  90:	90000002 	adrp	x2, 0 <trace_event_define_fields_drm_sched_job>
  94:	90000001 	adrp	x1, 0 <trace_event_define_fields_drm_sched_job>
  98:	91000042 	add	x2, x2, #0x0
  9c:	91000021 	add	x1, x1, #0x0
  a0:	52800006 	mov	w6, #0x0                   	// #0
  a4:	52800005 	mov	w5, #0x0                   	// #0
  a8:	52800104 	mov	w4, #0x8                   	// #8
  ac:	52800403 	mov	w3, #0x20                  	// #32
  b0:	aa1303e0 	mov	x0, x19
  b4:	94000000 	bl	0 <trace_define_field>
  b8:	350002c0 	cbnz	w0, 110 <trace_event_define_fields_drm_sched_job+0x110>
/data3/home/yuanqiliang/code/arm-kernel/./include/trace/../../drivers/gpu/drm/scheduler/gpu_scheduler_trace.h:37 (discriminator 8)
  bc:	90000002 	adrp	x2, 0 <trace_event_define_fields_drm_sched_job>
  c0:	90000001 	adrp	x1, 0 <trace_event_define_fields_drm_sched_job>
  c4:	91000042 	add	x2, x2, #0x0
  c8:	91000021 	add	x1, x1, #0x0
  cc:	52800006 	mov	w6, #0x0                   	// #0
  d0:	52800005 	mov	w5, #0x0                   	// #0
  d4:	52800084 	mov	w4, #0x4                   	// #4
  d8:	52800503 	mov	w3, #0x28                  	// #40
  dc:	aa1303e0 	mov	x0, x19
  e0:	94000000 	bl	0 <trace_define_field>
  e4:	35000160 	cbnz	w0, 110 <trace_event_define_fields_drm_sched_job+0x110>
/data3/home/yuanqiliang/code/arm-kernel/./include/trace/../../drivers/gpu/drm/scheduler/gpu_scheduler_trace.h:37 (discriminator 10)
  e8:	90000002 	adrp	x2, 0 <trace_event_define_fields_drm_sched_job>
  ec:	90000001 	adrp	x1, 0 <trace_event_define_fields_drm_sched_job>
  f0:	aa1303e0 	mov	x0, x19
  f4:	91000042 	add	x2, x2, #0x0
  f8:	91000021 	add	x1, x1, #0x0
  fc:	52800006 	mov	w6, #0x0                   	// #0
 100:	52800025 	mov	w5, #0x1                   	// #1
 104:	52800084 	mov	w4, #0x4                   	// #4
 108:	52800583 	mov	w3, #0x2c                  	// #44
 10c:	94000000 	bl	0 <trace_define_field>
/data3/home/yuanqiliang/code/arm-kernel/./include/trace/../../drivers/gpu/drm/scheduler/gpu_scheduler_trace.h:37
 110:	f9400bf3 	ldr	x19, [sp, #16]
 114:	a8c27bfd 	ldp	x29, x30, [sp], #32
 118:	d65f03c0 	ret

000000000000011c <trace_event_define_fields_drm_sched_process_job>:
trace_event_define_fields_drm_sched_process_job():
/data3/home/yuanqiliang/code/arm-kernel/./include/trace/../../drivers/gpu/drm/scheduler/gpu_scheduler_trace.h:64
TRACE_EVENT(drm_sched_process_job,
 11c:	a9bf7bfd 	stp	x29, x30, [sp, #-16]!
 120:	52800104 	mov	w4, #0x8                   	// #8
 124:	52800006 	mov	w6, #0x0                   	// #0
 128:	910003fd 	mov	x29, sp
 12c:	2a0403e3 	mov	w3, w4
 130:	52800005 	mov	w5, #0x0                   	// #0
 134:	90000002 	adrp	x2, 0 <trace_event_define_fields_drm_sched_job>
 138:	90000001 	adrp	x1, 0 <trace_event_define_fields_drm_sched_job>
 13c:	91000042 	add	x2, x2, #0x0
 140:	91000021 	add	x1, x1, #0x0
 144:	94000000 	bl	0 <trace_define_field>
 148:	a8c17bfd 	ldp	x29, x30, [sp], #16
 14c:	d65f03c0 	ret

0000000000000150 <init_module>:
drm_sched_fence_slab_init():
/data3/home/yuanqiliang/code/arm-kernel/drivers/gpu/drm/scheduler/sched_fence.c:33
{
 150:	a9bf7bfd 	stp	x29, x30, [sp, #-16]!
/data3/home/yuanqiliang/code/arm-kernel/drivers/gpu/drm/scheduler/sched_fence.c:34
	sched_fence_slab = kmem_cache_create(
 154:	d2800004 	mov	x4, #0x0                   	// #0
 158:	52840003 	mov	w3, #0x2000                	// #8192
/data3/home/yuanqiliang/code/arm-kernel/drivers/gpu/drm/scheduler/sched_fence.c:33
{
 15c:	910003fd 	mov	x29, sp
/data3/home/yuanqiliang/code/arm-kernel/drivers/gpu/drm/scheduler/sched_fence.c:34
	sched_fence_slab = kmem_cache_create(
 160:	52800002 	mov	w2, #0x0                   	// #0
 164:	52801f01 	mov	w1, #0xf8                  	// #248
 168:	90000000 	adrp	x0, 0 <trace_event_define_fields_drm_sched_job>
 16c:	91000000 	add	x0, x0, #0x0
 170:	94000000 	bl	0 <kmem_cache_create>
/data3/home/yuanqiliang/code/arm-kernel/drivers/gpu/drm/scheduler/sched_fence.c:38
		return -ENOMEM;
 174:	f100001f 	cmp	x0, #0x0
/data3/home/yuanqiliang/code/arm-kernel/drivers/gpu/drm/scheduler/sched_fence.c:34
	sched_fence_slab = kmem_cache_create(
 178:	90000002 	adrp	x2, 0 <trace_event_define_fields_drm_sched_job>
 17c:	aa0003e1 	mov	x1, x0
/data3/home/yuanqiliang/code/arm-kernel/drivers/gpu/drm/scheduler/sched_fence.c:41
}
 180:	a8c17bfd 	ldp	x29, x30, [sp], #16
/data3/home/yuanqiliang/code/arm-kernel/drivers/gpu/drm/scheduler/sched_fence.c:38
		return -ENOMEM;
 184:	12800160 	mov	w0, #0xfffffff4            	// #-12
/data3/home/yuanqiliang/code/arm-kernel/drivers/gpu/drm/scheduler/sched_fence.c:34
	sched_fence_slab = kmem_cache_create(
 188:	f9000041 	str	x1, [x2]
/data3/home/yuanqiliang/code/arm-kernel/drivers/gpu/drm/scheduler/sched_fence.c:41
}
 18c:	1a9f0000 	csel	w0, w0, wzr, eq  // eq = none
 190:	d65f03c0 	ret

Disassembly of section .exit.text:

0000000000000000 <cleanup_module>:
drm_sched_fence_slab_fini():
/data3/home/yuanqiliang/code/arm-kernel/drivers/gpu/drm/scheduler/sched_fence.c:44
{
   0:	a9bf7bfd 	stp	x29, x30, [sp, #-16]!
   4:	910003fd 	mov	x29, sp
/data3/home/yuanqiliang/code/arm-kernel/drivers/gpu/drm/scheduler/sched_fence.c:45
	rcu_barrier();
   8:	94000000 	bl	0 <rcu_barrier>
/data3/home/yuanqiliang/code/arm-kernel/drivers/gpu/drm/scheduler/sched_fence.c:46
	kmem_cache_destroy(sched_fence_slab);
   c:	90000000 	adrp	x0, 0 <cleanup_module>
  10:	f9400000 	ldr	x0, [x0]
  14:	94000000 	bl	0 <kmem_cache_destroy>
/data3/home/yuanqiliang/code/arm-kernel/drivers/gpu/drm/scheduler/sched_fence.c:47
}
  18:	a8c17bfd 	ldp	x29, x30, [sp], #16
  1c:	d65f03c0 	ret
