
timer.o：     文件格式 elf64-littleaarch64


Disassembly of section .text:

0000000000000000 <__round_jiffies>:
round_jiffies_common():
/data3/home/yuanqiliang/code/arm-kernel/kernel/time/timer.c:285
	 * 3 jiffies. This 3 jiffies came originally from the mm/ code which
	 * already did this.
	 * The skew is done by adding 3*cpunr, then round, then subtract this
	 * extra offset again.
	 */
	j += cpu * 3;
       0:	0b010421 	add	w1, w1, w1, lsl #1
/data3/home/yuanqiliang/code/arm-kernel/kernel/time/timer.c:308

	/*
	 * Make sure j is still in the future. Otherwise return the
	 * unmodified value.
	 */
	return time_is_after_jiffies(j) ? j : original;
       4:	90000002 	adrp	x2, 0 <jiffies>
/data3/home/yuanqiliang/code/arm-kernel/kernel/time/timer.c:287
	rem = j % HZ;
       8:	d29ef9e6 	mov	x6, #0xf7cf                	// #63439
/data3/home/yuanqiliang/code/arm-kernel/kernel/time/timer.c:285
	j += cpu * 3;
       c:	93407c21 	sxtw	x1, w1
/data3/home/yuanqiliang/code/arm-kernel/kernel/time/timer.c:287
	rem = j % HZ;
      10:	f2bc6a66 	movk	x6, #0xe353, lsl #16
/data3/home/yuanqiliang/code/arm-kernel/kernel/time/timer.c:285
	j += cpu * 3;
      14:	8b010004 	add	x4, x0, x1
/data3/home/yuanqiliang/code/arm-kernel/kernel/time/timer.c:287
	rem = j % HZ;
      18:	f2d374a6 	movk	x6, #0x9ba5, lsl #32
/data3/home/yuanqiliang/code/arm-kernel/kernel/time/timer.c:308
	return time_is_after_jiffies(j) ? j : original;
      1c:	f9400045 	ldr	x5, [x2]
/data3/home/yuanqiliang/code/arm-kernel/kernel/time/timer.c:287
	rem = j % HZ;
      20:	d341fc82 	lsr	x2, x4, #1
      24:	f2e41886 	movk	x6, #0x20c4, lsl #48
/data3/home/yuanqiliang/code/arm-kernel/kernel/time/timer.c:297
		j = j - rem;
      28:	9103e883 	add	x3, x4, #0xfa
/data3/home/yuanqiliang/code/arm-kernel/kernel/time/timer.c:308
	return time_is_after_jiffies(j) ? j : original;
      2c:	8b050025 	add	x5, x1, x5
/data3/home/yuanqiliang/code/arm-kernel/kernel/time/timer.c:287
	rem = j % HZ;
      30:	9bc67c42 	umulh	x2, x2, x6
      34:	d344fc42 	lsr	x2, x2, #4
      38:	d37be846 	lsl	x6, x2, #5
      3c:	cb0200c6 	sub	x6, x6, x2
      40:	8b060842 	add	x2, x2, x6, lsl #2
      44:	cb020482 	sub	x2, x4, x2, lsl #1
/data3/home/yuanqiliang/code/arm-kernel/kernel/time/timer.c:297
		j = j - rem;
      48:	f100f45f 	cmp	x2, #0x3d
      4c:	cb020084 	sub	x4, x4, x2
      50:	cb020062 	sub	x2, x3, x2
      54:	9a848042 	csel	x2, x2, x4, hi  // hi = pmore
/data3/home/yuanqiliang/code/arm-kernel/kernel/time/timer.c:302
	j -= cpu * 3;
      58:	eb0200bf 	cmp	x5, x2
      5c:	cb010042 	sub	x2, x2, x1
__round_jiffies():
/data3/home/yuanqiliang/code/arm-kernel/kernel/time/timer.c:334
 * The return value is the rounded version of the @j parameter.
 */
unsigned long __round_jiffies(unsigned long j, int cpu)
{
	return round_jiffies_common(j, cpu, false);
}
      60:	9a804040 	csel	x0, x2, x0, mi  // mi = first
      64:	d65f03c0 	ret

0000000000000068 <__round_jiffies_relative>:
__round_jiffies_relative():
/data3/home/yuanqiliang/code/arm-kernel/kernel/time/timer.c:359
 *
 * The return value is the rounded version of the @j parameter.
 */
unsigned long __round_jiffies_relative(unsigned long j, int cpu)
{
	unsigned long j0 = jiffies;
      68:	90000003 	adrp	x3, 0 <jiffies>
round_jiffies_common():
/data3/home/yuanqiliang/code/arm-kernel/kernel/time/timer.c:285
	j += cpu * 3;
      6c:	0b010421 	add	w1, w1, w1, lsl #1
/data3/home/yuanqiliang/code/arm-kernel/kernel/time/timer.c:287
	rem = j % HZ;
      70:	d29ef9e6 	mov	x6, #0xf7cf                	// #63439
__round_jiffies_relative():
/data3/home/yuanqiliang/code/arm-kernel/kernel/time/timer.c:359
	unsigned long j0 = jiffies;
      74:	f9400062 	ldr	x2, [x3]
round_jiffies_common():
/data3/home/yuanqiliang/code/arm-kernel/kernel/time/timer.c:285
	j += cpu * 3;
      78:	93407c21 	sxtw	x1, w1
/data3/home/yuanqiliang/code/arm-kernel/kernel/time/timer.c:287
	rem = j % HZ;
      7c:	f2bc6a66 	movk	x6, #0xe353, lsl #16
__round_jiffies_relative():
/data3/home/yuanqiliang/code/arm-kernel/kernel/time/timer.c:362

	/* Use j0 because jiffies might change while we run */
	return round_jiffies_common(j + j0, cpu, false) - j0;
      80:	8b000044 	add	x4, x2, x0
      84:	8b010045 	add	x5, x2, x1
round_jiffies_common():
/data3/home/yuanqiliang/code/arm-kernel/kernel/time/timer.c:285
	j += cpu * 3;
      88:	8b010084 	add	x4, x4, x1
/data3/home/yuanqiliang/code/arm-kernel/kernel/time/timer.c:287
	rem = j % HZ;
      8c:	f2d374a6 	movk	x6, #0x9ba5, lsl #32
      90:	f2e41886 	movk	x6, #0x20c4, lsl #48
      94:	d341fc82 	lsr	x2, x4, #1
/data3/home/yuanqiliang/code/arm-kernel/kernel/time/timer.c:308
	return time_is_after_jiffies(j) ? j : original;
      98:	f9400067 	ldr	x7, [x3]
/data3/home/yuanqiliang/code/arm-kernel/kernel/time/timer.c:297
		j = j - rem;
      9c:	9103e883 	add	x3, x4, #0xfa
/data3/home/yuanqiliang/code/arm-kernel/kernel/time/timer.c:287
	rem = j % HZ;
      a0:	9bc67c42 	umulh	x2, x2, x6
/data3/home/yuanqiliang/code/arm-kernel/kernel/time/timer.c:308
	return time_is_after_jiffies(j) ? j : original;
      a4:	8b070021 	add	x1, x1, x7
/data3/home/yuanqiliang/code/arm-kernel/kernel/time/timer.c:287
	rem = j % HZ;
      a8:	d344fc42 	lsr	x2, x2, #4
      ac:	d37be846 	lsl	x6, x2, #5
      b0:	cb0200c6 	sub	x6, x6, x2
      b4:	8b060842 	add	x2, x2, x6, lsl #2
      b8:	cb020482 	sub	x2, x4, x2, lsl #1
/data3/home/yuanqiliang/code/arm-kernel/kernel/time/timer.c:297
		j = j - rem;
      bc:	f100f45f 	cmp	x2, #0x3d
      c0:	cb020084 	sub	x4, x4, x2
      c4:	cb020062 	sub	x2, x3, x2
      c8:	9a848042 	csel	x2, x2, x4, hi  // hi = pmore
__round_jiffies_relative():
/data3/home/yuanqiliang/code/arm-kernel/kernel/time/timer.c:308
	return time_is_after_jiffies(j) ? j : original;
      cc:	eb02003f 	cmp	x1, x2
      d0:	cb050042 	sub	x2, x2, x5
/data3/home/yuanqiliang/code/arm-kernel/kernel/time/timer.c:363
}
      d4:	9a804040 	csel	x0, x2, x0, mi  // mi = first
      d8:	d65f03c0 	ret
      dc:	d503201f 	nop

00000000000000e0 <round_jiffies>:
__my_cpu_offset():
/data3/home/yuanqiliang/code/arm-kernel/./arch/arm64/include/asm/percpu.h:30

	/*
	 * We want to allow caching the value, so avoid using volatile and
	 * instead use a fake stack read to hazard against barrier().
	 */
	asm(ALTERNATIVE("mrs %0, tpidr_el1",
      e0:	d538d082 	mrs	x2, tpidr_el1
round_jiffies():
/data3/home/yuanqiliang/code/arm-kernel/kernel/time/timer.c:383
 *
 * The return value is the rounded version of the @j parameter.
 */
unsigned long round_jiffies(unsigned long j)
{
	return round_jiffies_common(j, raw_smp_processor_id(), false);
      e4:	90000001 	adrp	x1, 0 <cpu_number>
      e8:	91000021 	add	x1, x1, #0x0
round_jiffies_common():
/data3/home/yuanqiliang/code/arm-kernel/kernel/time/timer.c:285
	j += cpu * 3;
      ec:	b8626823 	ldr	w3, [x1, x2]
/data3/home/yuanqiliang/code/arm-kernel/kernel/time/timer.c:287
	rem = j % HZ;
      f0:	d29ef9e6 	mov	x6, #0xf7cf                	// #63439
/data3/home/yuanqiliang/code/arm-kernel/kernel/time/timer.c:308
	return time_is_after_jiffies(j) ? j : original;
      f4:	90000001 	adrp	x1, 0 <jiffies>
/data3/home/yuanqiliang/code/arm-kernel/kernel/time/timer.c:287
	rem = j % HZ;
      f8:	f2bc6a66 	movk	x6, #0xe353, lsl #16
      fc:	f2d374a6 	movk	x6, #0x9ba5, lsl #32
/data3/home/yuanqiliang/code/arm-kernel/kernel/time/timer.c:285
	j += cpu * 3;
     100:	0b030463 	add	w3, w3, w3, lsl #1
/data3/home/yuanqiliang/code/arm-kernel/kernel/time/timer.c:287
	rem = j % HZ;
     104:	f2e41886 	movk	x6, #0x20c4, lsl #48
/data3/home/yuanqiliang/code/arm-kernel/kernel/time/timer.c:308
	return time_is_after_jiffies(j) ? j : original;
     108:	f9400025 	ldr	x5, [x1]
/data3/home/yuanqiliang/code/arm-kernel/kernel/time/timer.c:285
	j += cpu * 3;
     10c:	93407c63 	sxtw	x3, w3
     110:	8b030004 	add	x4, x0, x3
/data3/home/yuanqiliang/code/arm-kernel/kernel/time/timer.c:297
		j = j - rem;
     114:	9103e882 	add	x2, x4, #0xfa
/data3/home/yuanqiliang/code/arm-kernel/kernel/time/timer.c:308
	return time_is_after_jiffies(j) ? j : original;
     118:	8b050065 	add	x5, x3, x5
/data3/home/yuanqiliang/code/arm-kernel/kernel/time/timer.c:287
	rem = j % HZ;
     11c:	d341fc81 	lsr	x1, x4, #1
     120:	9bc67c21 	umulh	x1, x1, x6
     124:	d344fc21 	lsr	x1, x1, #4
     128:	d37be826 	lsl	x6, x1, #5
     12c:	cb0100c6 	sub	x6, x6, x1
     130:	8b060821 	add	x1, x1, x6, lsl #2
     134:	cb010481 	sub	x1, x4, x1, lsl #1
/data3/home/yuanqiliang/code/arm-kernel/kernel/time/timer.c:297
		j = j - rem;
     138:	f100f43f 	cmp	x1, #0x3d
     13c:	cb010084 	sub	x4, x4, x1
     140:	cb010041 	sub	x1, x2, x1
     144:	9a848021 	csel	x1, x1, x4, hi  // hi = pmore
/data3/home/yuanqiliang/code/arm-kernel/kernel/time/timer.c:302
	j -= cpu * 3;
     148:	eb0100bf 	cmp	x5, x1
     14c:	cb030021 	sub	x1, x1, x3
round_jiffies():
/data3/home/yuanqiliang/code/arm-kernel/kernel/time/timer.c:384
}
     150:	9a804020 	csel	x0, x1, x0, mi  // mi = first
     154:	d65f03c0 	ret

0000000000000158 <round_jiffies_relative>:
__round_jiffies_relative():
/data3/home/yuanqiliang/code/arm-kernel/kernel/time/timer.c:359
	unsigned long j0 = jiffies;
     158:	90000003 	adrp	x3, 0 <jiffies>
round_jiffies_relative():
/data3/home/yuanqiliang/code/arm-kernel/kernel/time/timer.c:404
 *
 * The return value is the rounded version of the @j parameter.
 */
unsigned long round_jiffies_relative(unsigned long j)
{
	return __round_jiffies_relative(j, raw_smp_processor_id());
     15c:	90000001 	adrp	x1, 0 <cpu_number>
__my_cpu_offset():
/data3/home/yuanqiliang/code/arm-kernel/./arch/arm64/include/asm/percpu.h:30
     160:	d538d082 	mrs	x2, tpidr_el1
round_jiffies_relative():
/data3/home/yuanqiliang/code/arm-kernel/kernel/time/timer.c:404
     164:	91000021 	add	x1, x1, #0x0
round_jiffies_common():
/data3/home/yuanqiliang/code/arm-kernel/kernel/time/timer.c:287
	rem = j % HZ;
     168:	d29ef9e6 	mov	x6, #0xf7cf                	// #63439
/data3/home/yuanqiliang/code/arm-kernel/kernel/time/timer.c:285
	j += cpu * 3;
     16c:	b8626822 	ldr	w2, [x1, x2]
/data3/home/yuanqiliang/code/arm-kernel/kernel/time/timer.c:287
	rem = j % HZ;
     170:	f2bc6a66 	movk	x6, #0xe353, lsl #16
__round_jiffies_relative():
/data3/home/yuanqiliang/code/arm-kernel/kernel/time/timer.c:359
	unsigned long j0 = jiffies;
     174:	f9400061 	ldr	x1, [x3]
round_jiffies_common():
/data3/home/yuanqiliang/code/arm-kernel/kernel/time/timer.c:287
	rem = j % HZ;
     178:	f2d374a6 	movk	x6, #0x9ba5, lsl #32
/data3/home/yuanqiliang/code/arm-kernel/kernel/time/timer.c:285
	j += cpu * 3;
     17c:	0b020442 	add	w2, w2, w2, lsl #1
/data3/home/yuanqiliang/code/arm-kernel/kernel/time/timer.c:287
	rem = j % HZ;
     180:	f2e41886 	movk	x6, #0x20c4, lsl #48
__round_jiffies_relative():
/data3/home/yuanqiliang/code/arm-kernel/kernel/time/timer.c:362
	return round_jiffies_common(j + j0, cpu, false) - j0;
     184:	8b010004 	add	x4, x0, x1
round_jiffies_common():
/data3/home/yuanqiliang/code/arm-kernel/kernel/time/timer.c:285
	j += cpu * 3;
     188:	93407c42 	sxtw	x2, w2
     18c:	8b020084 	add	x4, x4, x2
/data3/home/yuanqiliang/code/arm-kernel/kernel/time/timer.c:287
	rem = j % HZ;
     190:	8b020025 	add	x5, x1, x2
/data3/home/yuanqiliang/code/arm-kernel/kernel/time/timer.c:308
	return time_is_after_jiffies(j) ? j : original;
     194:	f9400067 	ldr	x7, [x3]
/data3/home/yuanqiliang/code/arm-kernel/kernel/time/timer.c:287
	rem = j % HZ;
     198:	d341fc81 	lsr	x1, x4, #1
/data3/home/yuanqiliang/code/arm-kernel/kernel/time/timer.c:297
		j = j - rem;
     19c:	9103e883 	add	x3, x4, #0xfa
/data3/home/yuanqiliang/code/arm-kernel/kernel/time/timer.c:308
	return time_is_after_jiffies(j) ? j : original;
     1a0:	8b070042 	add	x2, x2, x7
/data3/home/yuanqiliang/code/arm-kernel/kernel/time/timer.c:287
	rem = j % HZ;
     1a4:	9bc67c21 	umulh	x1, x1, x6
     1a8:	d344fc21 	lsr	x1, x1, #4
     1ac:	d37be826 	lsl	x6, x1, #5
     1b0:	cb0100c6 	sub	x6, x6, x1
     1b4:	8b060821 	add	x1, x1, x6, lsl #2
     1b8:	cb010481 	sub	x1, x4, x1, lsl #1
/data3/home/yuanqiliang/code/arm-kernel/kernel/time/timer.c:297
		j = j - rem;
     1bc:	f100f43f 	cmp	x1, #0x3d
     1c0:	cb010084 	sub	x4, x4, x1
     1c4:	cb010061 	sub	x1, x3, x1
     1c8:	9a848021 	csel	x1, x1, x4, hi  // hi = pmore
round_jiffies_relative():
/data3/home/yuanqiliang/code/arm-kernel/kernel/time/timer.c:308
	return time_is_after_jiffies(j) ? j : original;
     1cc:	eb01005f 	cmp	x2, x1
     1d0:	cb050021 	sub	x1, x1, x5
/data3/home/yuanqiliang/code/arm-kernel/kernel/time/timer.c:405
}
     1d4:	9a804020 	csel	x0, x1, x0, mi  // mi = first
     1d8:	d65f03c0 	ret
     1dc:	d503201f 	nop

00000000000001e0 <__round_jiffies_up>:
round_jiffies_common():
/data3/home/yuanqiliang/code/arm-kernel/kernel/time/timer.c:285
	j += cpu * 3;
     1e0:	0b010421 	add	w1, w1, w1, lsl #1
/data3/home/yuanqiliang/code/arm-kernel/kernel/time/timer.c:308
	return time_is_after_jiffies(j) ? j : original;
     1e4:	90000002 	adrp	x2, 0 <jiffies>
/data3/home/yuanqiliang/code/arm-kernel/kernel/time/timer.c:287
	rem = j % HZ;
     1e8:	d29ef9e6 	mov	x6, #0xf7cf                	// #63439
/data3/home/yuanqiliang/code/arm-kernel/kernel/time/timer.c:285
	j += cpu * 3;
     1ec:	93407c21 	sxtw	x1, w1
/data3/home/yuanqiliang/code/arm-kernel/kernel/time/timer.c:287
	rem = j % HZ;
     1f0:	f2bc6a66 	movk	x6, #0xe353, lsl #16
/data3/home/yuanqiliang/code/arm-kernel/kernel/time/timer.c:285
	j += cpu * 3;
     1f4:	8b010005 	add	x5, x0, x1
/data3/home/yuanqiliang/code/arm-kernel/kernel/time/timer.c:287
	rem = j % HZ;
     1f8:	f2d374a6 	movk	x6, #0x9ba5, lsl #32
/data3/home/yuanqiliang/code/arm-kernel/kernel/time/timer.c:308
	return time_is_after_jiffies(j) ? j : original;
     1fc:	f9400047 	ldr	x7, [x2]
/data3/home/yuanqiliang/code/arm-kernel/kernel/time/timer.c:287
	rem = j % HZ;
     200:	d341fca2 	lsr	x2, x5, #1
     204:	f2e41886 	movk	x6, #0x20c4, lsl #48
     208:	9103e8a3 	add	x3, x5, #0xfa
/data3/home/yuanqiliang/code/arm-kernel/kernel/time/timer.c:302
	j -= cpu * 3;
     20c:	cb010064 	sub	x4, x3, x1
/data3/home/yuanqiliang/code/arm-kernel/kernel/time/timer.c:308
	return time_is_after_jiffies(j) ? j : original;
     210:	8b070021 	add	x1, x1, x7
/data3/home/yuanqiliang/code/arm-kernel/kernel/time/timer.c:287
	rem = j % HZ;
     214:	9bc67c42 	umulh	x2, x2, x6
     218:	d344fc42 	lsr	x2, x2, #4
     21c:	d37be846 	lsl	x6, x2, #5
     220:	cb0200c6 	sub	x6, x6, x2
     224:	8b060842 	add	x2, x2, x6, lsl #2
     228:	cb0204a2 	sub	x2, x5, x2, lsl #1
/data3/home/yuanqiliang/code/arm-kernel/kernel/time/timer.c:308
	return time_is_after_jiffies(j) ? j : original;
     22c:	cb030043 	sub	x3, x2, x3
/data3/home/yuanqiliang/code/arm-kernel/kernel/time/timer.c:302
	j -= cpu * 3;
     230:	cb020082 	sub	x2, x4, x2
     234:	ab03003f 	cmn	x1, x3
__round_jiffies_up():
/data3/home/yuanqiliang/code/arm-kernel/kernel/time/timer.c:421
 * early.
 */
unsigned long __round_jiffies_up(unsigned long j, int cpu)
{
	return round_jiffies_common(j, cpu, true);
}
     238:	9a804040 	csel	x0, x2, x0, mi  // mi = first
     23c:	d65f03c0 	ret

0000000000000240 <__round_jiffies_up_relative>:
__round_jiffies_up_relative():
/data3/home/yuanqiliang/code/arm-kernel/kernel/time/timer.c:436
 * of firing does not matter too much, as long as they don't fire too
 * early.
 */
unsigned long __round_jiffies_up_relative(unsigned long j, int cpu)
{
	unsigned long j0 = jiffies;
     240:	90000004 	adrp	x4, 0 <jiffies>
round_jiffies_common():
/data3/home/yuanqiliang/code/arm-kernel/kernel/time/timer.c:285
	j += cpu * 3;
     244:	0b010421 	add	w1, w1, w1, lsl #1
/data3/home/yuanqiliang/code/arm-kernel/kernel/time/timer.c:287
	rem = j % HZ;
     248:	d29ef9e6 	mov	x6, #0xf7cf                	// #63439
__round_jiffies_up_relative():
/data3/home/yuanqiliang/code/arm-kernel/kernel/time/timer.c:436
	unsigned long j0 = jiffies;
     24c:	f9400083 	ldr	x3, [x4]
round_jiffies_common():
/data3/home/yuanqiliang/code/arm-kernel/kernel/time/timer.c:285
	j += cpu * 3;
     250:	93407c21 	sxtw	x1, w1
/data3/home/yuanqiliang/code/arm-kernel/kernel/time/timer.c:308
	return time_is_after_jiffies(j) ? j : original;
     254:	f9400082 	ldr	x2, [x4]
__round_jiffies_up_relative():
/data3/home/yuanqiliang/code/arm-kernel/kernel/time/timer.c:439

	/* Use j0 because jiffies might change while we run */
	return round_jiffies_common(j + j0, cpu, true) - j0;
     258:	8b000064 	add	x4, x3, x0
round_jiffies_common():
/data3/home/yuanqiliang/code/arm-kernel/kernel/time/timer.c:285
	j += cpu * 3;
     25c:	8b010084 	add	x4, x4, x1
/data3/home/yuanqiliang/code/arm-kernel/kernel/time/timer.c:287
	rem = j % HZ;
     260:	f2bc6a66 	movk	x6, #0xe353, lsl #16
     264:	8b010065 	add	x5, x3, x1
     268:	f2d374a6 	movk	x6, #0x9ba5, lsl #32
/data3/home/yuanqiliang/code/arm-kernel/kernel/time/timer.c:308
	return time_is_after_jiffies(j) ? j : original;
     26c:	8b020021 	add	x1, x1, x2
/data3/home/yuanqiliang/code/arm-kernel/kernel/time/timer.c:287
	rem = j % HZ;
     270:	d341fc82 	lsr	x2, x4, #1
     274:	f2e41886 	movk	x6, #0x20c4, lsl #48
     278:	9103e883 	add	x3, x4, #0xfa
     27c:	9bc67c42 	umulh	x2, x2, x6
     280:	d344fc42 	lsr	x2, x2, #4
     284:	d37be846 	lsl	x6, x2, #5
     288:	cb0200c6 	sub	x6, x6, x2
     28c:	8b060842 	add	x2, x2, x6, lsl #2
     290:	cb020482 	sub	x2, x4, x2, lsl #1
/data3/home/yuanqiliang/code/arm-kernel/kernel/time/timer.c:308
	return time_is_after_jiffies(j) ? j : original;
     294:	cb030044 	sub	x4, x2, x3
     298:	cb020062 	sub	x2, x3, x2
     29c:	ab04003f 	cmn	x1, x4
     2a0:	cb050042 	sub	x2, x2, x5
__round_jiffies_up_relative():
/data3/home/yuanqiliang/code/arm-kernel/kernel/time/timer.c:440
}
     2a4:	9a804040 	csel	x0, x2, x0, mi  // mi = first
     2a8:	d65f03c0 	ret
     2ac:	d503201f 	nop

00000000000002b0 <round_jiffies_up>:
__my_cpu_offset():
/data3/home/yuanqiliang/code/arm-kernel/./arch/arm64/include/asm/percpu.h:30
     2b0:	d538d082 	mrs	x2, tpidr_el1
round_jiffies_up():
/data3/home/yuanqiliang/code/arm-kernel/kernel/time/timer.c:454
 * of firing does not matter too much, as long as they don't fire too
 * early.
 */
unsigned long round_jiffies_up(unsigned long j)
{
	return round_jiffies_common(j, raw_smp_processor_id(), true);
     2b4:	90000001 	adrp	x1, 0 <cpu_number>
     2b8:	91000021 	add	x1, x1, #0x0
round_jiffies_common():
/data3/home/yuanqiliang/code/arm-kernel/kernel/time/timer.c:285
	j += cpu * 3;
     2bc:	b8626821 	ldr	w1, [x1, x2]
/data3/home/yuanqiliang/code/arm-kernel/kernel/time/timer.c:287
	rem = j % HZ;
     2c0:	d29ef9e6 	mov	x6, #0xf7cf                	// #63439
/data3/home/yuanqiliang/code/arm-kernel/kernel/time/timer.c:308
	return time_is_after_jiffies(j) ? j : original;
     2c4:	90000002 	adrp	x2, 0 <jiffies>
/data3/home/yuanqiliang/code/arm-kernel/kernel/time/timer.c:287
	rem = j % HZ;
     2c8:	f2bc6a66 	movk	x6, #0xe353, lsl #16
     2cc:	f2d374a6 	movk	x6, #0x9ba5, lsl #32
/data3/home/yuanqiliang/code/arm-kernel/kernel/time/timer.c:285
	j += cpu * 3;
     2d0:	0b010421 	add	w1, w1, w1, lsl #1
/data3/home/yuanqiliang/code/arm-kernel/kernel/time/timer.c:287
	rem = j % HZ;
     2d4:	f2e41886 	movk	x6, #0x20c4, lsl #48
/data3/home/yuanqiliang/code/arm-kernel/kernel/time/timer.c:308
	return time_is_after_jiffies(j) ? j : original;
     2d8:	f9400044 	ldr	x4, [x2]
/data3/home/yuanqiliang/code/arm-kernel/kernel/time/timer.c:285
	j += cpu * 3;
     2dc:	93407c21 	sxtw	x1, w1
     2e0:	8b010005 	add	x5, x0, x1
/data3/home/yuanqiliang/code/arm-kernel/kernel/time/timer.c:287
	rem = j % HZ;
     2e4:	9103e8a3 	add	x3, x5, #0xfa
/data3/home/yuanqiliang/code/arm-kernel/kernel/time/timer.c:308
	return time_is_after_jiffies(j) ? j : original;
     2e8:	8b040024 	add	x4, x1, x4
/data3/home/yuanqiliang/code/arm-kernel/kernel/time/timer.c:287
	rem = j % HZ;
     2ec:	d341fca2 	lsr	x2, x5, #1
/data3/home/yuanqiliang/code/arm-kernel/kernel/time/timer.c:302
	j -= cpu * 3;
     2f0:	cb010061 	sub	x1, x3, x1
/data3/home/yuanqiliang/code/arm-kernel/kernel/time/timer.c:287
	rem = j % HZ;
     2f4:	9bc67c42 	umulh	x2, x2, x6
     2f8:	d344fc42 	lsr	x2, x2, #4
     2fc:	d37be846 	lsl	x6, x2, #5
     300:	cb0200c6 	sub	x6, x6, x2
     304:	8b060842 	add	x2, x2, x6, lsl #2
     308:	cb0204a2 	sub	x2, x5, x2, lsl #1
/data3/home/yuanqiliang/code/arm-kernel/kernel/time/timer.c:308
	return time_is_after_jiffies(j) ? j : original;
     30c:	cb030043 	sub	x3, x2, x3
/data3/home/yuanqiliang/code/arm-kernel/kernel/time/timer.c:302
	j -= cpu * 3;
     310:	cb020021 	sub	x1, x1, x2
     314:	ab03009f 	cmn	x4, x3
round_jiffies_up():
/data3/home/yuanqiliang/code/arm-kernel/kernel/time/timer.c:455
}
     318:	9a804020 	csel	x0, x1, x0, mi  // mi = first
     31c:	d65f03c0 	ret

0000000000000320 <round_jiffies_up_relative>:
__round_jiffies_up_relative():
/data3/home/yuanqiliang/code/arm-kernel/kernel/time/timer.c:436
	unsigned long j0 = jiffies;
     320:	90000005 	adrp	x5, 0 <jiffies>
round_jiffies_up_relative():
/data3/home/yuanqiliang/code/arm-kernel/kernel/time/timer.c:469
 * of firing does not matter too much, as long as they don't fire too
 * early.
 */
unsigned long round_jiffies_up_relative(unsigned long j)
{
	return __round_jiffies_up_relative(j, raw_smp_processor_id());
     324:	90000001 	adrp	x1, 0 <cpu_number>
__my_cpu_offset():
/data3/home/yuanqiliang/code/arm-kernel/./arch/arm64/include/asm/percpu.h:30
     328:	d538d082 	mrs	x2, tpidr_el1
round_jiffies_up_relative():
/data3/home/yuanqiliang/code/arm-kernel/kernel/time/timer.c:469
     32c:	91000021 	add	x1, x1, #0x0
round_jiffies_common():
/data3/home/yuanqiliang/code/arm-kernel/kernel/time/timer.c:287
	rem = j % HZ;
     330:	d29ef9e7 	mov	x7, #0xf7cf                	// #63439
/data3/home/yuanqiliang/code/arm-kernel/kernel/time/timer.c:285
	j += cpu * 3;
     334:	b8626822 	ldr	w2, [x1, x2]
/data3/home/yuanqiliang/code/arm-kernel/kernel/time/timer.c:287
	rem = j % HZ;
     338:	f2bc6a67 	movk	x7, #0xe353, lsl #16
__round_jiffies_up_relative():
/data3/home/yuanqiliang/code/arm-kernel/kernel/time/timer.c:436
	unsigned long j0 = jiffies;
     33c:	f94000a4 	ldr	x4, [x5]
round_jiffies_common():
/data3/home/yuanqiliang/code/arm-kernel/kernel/time/timer.c:287
	rem = j % HZ;
     340:	f2d374a7 	movk	x7, #0x9ba5, lsl #32
/data3/home/yuanqiliang/code/arm-kernel/kernel/time/timer.c:285
	j += cpu * 3;
     344:	0b020442 	add	w2, w2, w2, lsl #1
/data3/home/yuanqiliang/code/arm-kernel/kernel/time/timer.c:287
	rem = j % HZ;
     348:	f2e41887 	movk	x7, #0x20c4, lsl #48
__round_jiffies_up_relative():
/data3/home/yuanqiliang/code/arm-kernel/kernel/time/timer.c:439
	return round_jiffies_common(j + j0, cpu, true) - j0;
     34c:	8b040003 	add	x3, x0, x4
round_jiffies_common():
/data3/home/yuanqiliang/code/arm-kernel/kernel/time/timer.c:285
	j += cpu * 3;
     350:	93407c42 	sxtw	x2, w2
     354:	8b020063 	add	x3, x3, x2
/data3/home/yuanqiliang/code/arm-kernel/kernel/time/timer.c:287
	rem = j % HZ;
     358:	8b020084 	add	x4, x4, x2
/data3/home/yuanqiliang/code/arm-kernel/kernel/time/timer.c:308
	return time_is_after_jiffies(j) ? j : original;
     35c:	f94000a5 	ldr	x5, [x5]
/data3/home/yuanqiliang/code/arm-kernel/kernel/time/timer.c:287
	rem = j % HZ;
     360:	d341fc61 	lsr	x1, x3, #1
     364:	9103e866 	add	x6, x3, #0xfa
/data3/home/yuanqiliang/code/arm-kernel/kernel/time/timer.c:308
	return time_is_after_jiffies(j) ? j : original;
     368:	8b050042 	add	x2, x2, x5
/data3/home/yuanqiliang/code/arm-kernel/kernel/time/timer.c:287
	rem = j % HZ;
     36c:	9bc77c21 	umulh	x1, x1, x7
     370:	d344fc21 	lsr	x1, x1, #4
     374:	d37be825 	lsl	x5, x1, #5
     378:	cb0100a5 	sub	x5, x5, x1
     37c:	8b050821 	add	x1, x1, x5, lsl #2
     380:	cb010461 	sub	x1, x3, x1, lsl #1
round_jiffies_up_relative():
/data3/home/yuanqiliang/code/arm-kernel/kernel/time/timer.c:308
	return time_is_after_jiffies(j) ? j : original;
     384:	cb0100c3 	sub	x3, x6, x1
round_jiffies_common():
/data3/home/yuanqiliang/code/arm-kernel/kernel/time/timer.c:308
     388:	cb060021 	sub	x1, x1, x6
     38c:	cb040064 	sub	x4, x3, x4
     390:	ab01005f 	cmn	x2, x1
round_jiffies_up_relative():
/data3/home/yuanqiliang/code/arm-kernel/kernel/time/timer.c:470
}
     394:	9a804080 	csel	x0, x4, x0, mi  // mi = first
     398:	d65f03c0 	ret
     39c:	d503201f 	nop

00000000000003a0 <calc_wheel_index>:
calc_wheel_index():
/data3/home/yuanqiliang/code/arm-kernel/kernel/time/timer.c:497
	return LVL_OFFS(lvl) + (expires & LVL_MASK);
}

static int calc_wheel_index(unsigned long expires, unsigned long clk)
{
	unsigned long delta = expires - clk;
     3a0:	cb010002 	sub	x2, x0, x1
/data3/home/yuanqiliang/code/arm-kernel/kernel/time/timer.c:500
	unsigned int idx;

	if (delta < LVL_START(1)) {
     3a4:	f100f85f 	cmp	x2, #0x3e
     3a8:	54000088 	b.hi	3b8 <calc_wheel_index+0x18>  // b.pmore
calc_index():
/data3/home/yuanqiliang/code/arm-kernel/kernel/time/timer.c:491
	expires = (expires + LVL_GRAN(lvl)) >> LVL_SHIFT(lvl);
     3ac:	11000400 	add	w0, w0, #0x1
/data3/home/yuanqiliang/code/arm-kernel/kernel/time/timer.c:492
	return LVL_OFFS(lvl) + (expires & LVL_MASK);
     3b0:	12001400 	and	w0, w0, #0x3f
calc_wheel_index():
/data3/home/yuanqiliang/code/arm-kernel/kernel/time/timer.c:529
			expires = WHEEL_TIMEOUT_MAX;

		idx = calc_index(expires, LVL_DEPTH - 1);
	}
	return idx;
}
     3b4:	d65f03c0 	ret
/data3/home/yuanqiliang/code/arm-kernel/kernel/time/timer.c:502
	} else if (delta < LVL_START(2)) {
     3b8:	f107dc5f 	cmp	x2, #0x1f7
     3bc:	540000c8 	b.hi	3d4 <calc_wheel_index+0x34>  // b.pmore
calc_index():
/data3/home/yuanqiliang/code/arm-kernel/kernel/time/timer.c:491
	expires = (expires + LVL_GRAN(lvl)) >> LVL_SHIFT(lvl);
     3c0:	92407c00 	and	x0, x0, #0xffffffff
     3c4:	91002000 	add	x0, x0, #0x8
/data3/home/yuanqiliang/code/arm-kernel/kernel/time/timer.c:492
	return LVL_OFFS(lvl) + (expires & LVL_MASK);
     3c8:	53032000 	ubfx	w0, w0, #3, #6
     3cc:	11010000 	add	w0, w0, #0x40
calc_wheel_index():
/data3/home/yuanqiliang/code/arm-kernel/kernel/time/timer.c:529
}
     3d0:	d65f03c0 	ret
/data3/home/yuanqiliang/code/arm-kernel/kernel/time/timer.c:504
	} else if (delta < LVL_START(3)) {
     3d4:	f13efc5f 	cmp	x2, #0xfbf
     3d8:	54000129 	b.ls	3fc <calc_wheel_index+0x5c>  // b.plast
/data3/home/yuanqiliang/code/arm-kernel/kernel/time/timer.c:506
	} else if (delta < LVL_START(4)) {
     3dc:	d28fbfe3 	mov	x3, #0x7dff                	// #32255
     3e0:	eb03005f 	cmp	x2, x3
     3e4:	54000168 	b.hi	410 <calc_wheel_index+0x70>  // b.pmore
calc_index():
/data3/home/yuanqiliang/code/arm-kernel/kernel/time/timer.c:491
	expires = (expires + LVL_GRAN(lvl)) >> LVL_SHIFT(lvl);
     3e8:	92407c00 	and	x0, x0, #0xffffffff
     3ec:	91080000 	add	x0, x0, #0x200
/data3/home/yuanqiliang/code/arm-kernel/kernel/time/timer.c:492
	return LVL_OFFS(lvl) + (expires & LVL_MASK);
     3f0:	53093800 	ubfx	w0, w0, #9, #6
     3f4:	11030000 	add	w0, w0, #0xc0
calc_wheel_index():
/data3/home/yuanqiliang/code/arm-kernel/kernel/time/timer.c:529
}
     3f8:	d65f03c0 	ret
calc_index():
/data3/home/yuanqiliang/code/arm-kernel/kernel/time/timer.c:491
	expires = (expires + LVL_GRAN(lvl)) >> LVL_SHIFT(lvl);
     3fc:	92407c00 	and	x0, x0, #0xffffffff
     400:	91010000 	add	x0, x0, #0x40
/data3/home/yuanqiliang/code/arm-kernel/kernel/time/timer.c:492
	return LVL_OFFS(lvl) + (expires & LVL_MASK);
     404:	53062c00 	ubfx	w0, w0, #6, #6
     408:	11020000 	add	w0, w0, #0x80
calc_wheel_index():
/data3/home/yuanqiliang/code/arm-kernel/kernel/time/timer.c:529
}
     40c:	d65f03c0 	ret
/data3/home/yuanqiliang/code/arm-kernel/kernel/time/timer.c:508
	} else if (delta < LVL_START(5)) {
     410:	d29dffe3 	mov	x3, #0xefff                	// #61439
     414:	f2a00063 	movk	x3, #0x3, lsl #16
     418:	eb03005f 	cmp	x2, x3
     41c:	54000149 	b.ls	444 <calc_wheel_index+0xa4>  // b.plast
/data3/home/yuanqiliang/code/arm-kernel/kernel/time/timer.c:510
	} else if (delta < LVL_START(6)) {
     420:	d28fffe3 	mov	x3, #0x7fff                	// #32767
     424:	f2a003e3 	movk	x3, #0x1f, lsl #16
     428:	eb03005f 	cmp	x2, x3
     42c:	54000168 	b.hi	458 <calc_wheel_index+0xb8>  // b.pmore
calc_index():
/data3/home/yuanqiliang/code/arm-kernel/kernel/time/timer.c:491
	expires = (expires + LVL_GRAN(lvl)) >> LVL_SHIFT(lvl);
     430:	92407c00 	and	x0, x0, #0xffffffff
     434:	91402000 	add	x0, x0, #0x8, lsl #12
/data3/home/yuanqiliang/code/arm-kernel/kernel/time/timer.c:492
	return LVL_OFFS(lvl) + (expires & LVL_MASK);
     438:	530f5000 	ubfx	w0, w0, #15, #6
     43c:	11050000 	add	w0, w0, #0x140
calc_wheel_index():
/data3/home/yuanqiliang/code/arm-kernel/kernel/time/timer.c:529
}
     440:	d65f03c0 	ret
calc_index():
/data3/home/yuanqiliang/code/arm-kernel/kernel/time/timer.c:491
	expires = (expires + LVL_GRAN(lvl)) >> LVL_SHIFT(lvl);
     444:	92407c00 	and	x0, x0, #0xffffffff
     448:	91400400 	add	x0, x0, #0x1, lsl #12
/data3/home/yuanqiliang/code/arm-kernel/kernel/time/timer.c:492
	return LVL_OFFS(lvl) + (expires & LVL_MASK);
     44c:	530c4400 	ubfx	w0, w0, #12, #6
     450:	11040000 	add	w0, w0, #0x100
calc_wheel_index():
/data3/home/yuanqiliang/code/arm-kernel/kernel/time/timer.c:529
}
     454:	d65f03c0 	ret
/data3/home/yuanqiliang/code/arm-kernel/kernel/time/timer.c:512
	} else if (delta < LVL_START(7)) {
     458:	12bfe083 	mov	w3, #0xfbffff              	// #16515071
     45c:	eb03005f 	cmp	x2, x3
     460:	540000c8 	b.hi	478 <calc_wheel_index+0xd8>  // b.pmore
calc_index():
/data3/home/yuanqiliang/code/arm-kernel/kernel/time/timer.c:491
	expires = (expires + LVL_GRAN(lvl)) >> LVL_SHIFT(lvl);
     464:	92407c00 	and	x0, x0, #0xffffffff
     468:	91410000 	add	x0, x0, #0x40, lsl #12
/data3/home/yuanqiliang/code/arm-kernel/kernel/time/timer.c:492
	return LVL_OFFS(lvl) + (expires & LVL_MASK);
     46c:	53125c00 	ubfx	w0, w0, #18, #6
     470:	11060000 	add	w0, w0, #0x180
calc_wheel_index():
/data3/home/yuanqiliang/code/arm-kernel/kernel/time/timer.c:529
}
     474:	d65f03c0 	ret
/data3/home/yuanqiliang/code/arm-kernel/kernel/time/timer.c:514
	} else if (LVL_DEPTH > 8 && delta < LVL_START(8)) {
     478:	12bf0403 	mov	w3, #0x7dfffff             	// #132120575
     47c:	eb03005f 	cmp	x2, x3
     480:	540000c8 	b.hi	498 <calc_wheel_index+0xf8>  // b.pmore
calc_index():
/data3/home/yuanqiliang/code/arm-kernel/kernel/time/timer.c:491
	expires = (expires + LVL_GRAN(lvl)) >> LVL_SHIFT(lvl);
     484:	92407c00 	and	x0, x0, #0xffffffff
     488:	91480000 	add	x0, x0, #0x200, lsl #12
/data3/home/yuanqiliang/code/arm-kernel/kernel/time/timer.c:492
	return LVL_OFFS(lvl) + (expires & LVL_MASK);
     48c:	53156800 	ubfx	w0, w0, #21, #6
     490:	11070000 	add	w0, w0, #0x1c0
calc_wheel_index():
/data3/home/yuanqiliang/code/arm-kernel/kernel/time/timer.c:529
}
     494:	d65f03c0 	ret
/data3/home/yuanqiliang/code/arm-kernel/kernel/time/timer.c:516
	} else if ((long) delta < 0) {
     498:	b7f80142 	tbnz	x2, #63, 4c0 <calc_wheel_index+0x120>
/data3/home/yuanqiliang/code/arm-kernel/kernel/time/timer.c:523
		if (expires >= WHEEL_TIMEOUT_CUTOFF)
     49c:	d2a02001 	mov	x1, #0x1000000             	// #16777216
     4a0:	8b010001 	add	x1, x0, x1
     4a4:	12b82002 	mov	w2, #0x3effffff            	// #1056964607
     4a8:	eb02001f 	cmp	x0, x2
     4ac:	d358fc21 	lsr	x1, x1, #24
     4b0:	528047e0 	mov	w0, #0x23f                 	// #575
     4b4:	11080021 	add	w1, w1, #0x200
     4b8:	1a809020 	csel	w0, w1, w0, ls  // ls = plast
/data3/home/yuanqiliang/code/arm-kernel/kernel/time/timer.c:529
}
     4bc:	d65f03c0 	ret
/data3/home/yuanqiliang/code/arm-kernel/kernel/time/timer.c:517
		idx = clk & LVL_MASK;
     4c0:	12001420 	and	w0, w1, #0x3f
/data3/home/yuanqiliang/code/arm-kernel/kernel/time/timer.c:529
}
     4c4:	d65f03c0 	ret

00000000000004c8 <enqueue_timer>:
enqueue_timer():
/data3/home/yuanqiliang/code/arm-kernel/kernel/time/timer.c:538
 * the bitmap and store the index in the timer flags.
 */
static void enqueue_timer(struct timer_base *base, struct timer_list *timer,
			  unsigned int idx)
{
	hlist_add_head(&timer->entry, base->vectors + idx);
     4c8:	9101c004 	add	x4, x0, #0x70
     4cc:	2a0203e5 	mov	w5, w2
     4d0:	8b050c86 	add	x6, x4, x5, lsl #3
hlist_add_head():
/data3/home/yuanqiliang/code/arm-kernel/./include/linux/list.h:701
	}
}

static inline void hlist_add_head(struct hlist_node *n, struct hlist_head *h)
{
	struct hlist_node *first = h->first;
     4d4:	f8657883 	ldr	x3, [x4, x5, lsl #3]
/data3/home/yuanqiliang/code/arm-kernel/./include/linux/list.h:702
	n->next = first;
     4d8:	f9000023 	str	x3, [x1]
/data3/home/yuanqiliang/code/arm-kernel/./include/linux/list.h:703
	if (first)
     4dc:	b4000043 	cbz	x3, 4e4 <enqueue_timer+0x1c>
/data3/home/yuanqiliang/code/arm-kernel/./include/linux/list.h:704
		first->pprev = &n->next;
     4e0:	f9000461 	str	x1, [x3, #8]
__set_bit():
/data3/home/yuanqiliang/code/arm-kernel/./include/asm-generic/bitops/non-atomic.h:19
 * may be that only one operation succeeds.
 */
static inline void __set_bit(int nr, volatile unsigned long *addr)
{
	unsigned long mask = BIT_MASK(nr);
	unsigned long *p = ((unsigned long *)addr) + BIT_WORD(nr);
     4e4:	7100005f 	cmp	w2, #0x0
     4e8:	1100fc43 	add	w3, w2, #0x3f
     4ec:	1a82b063 	csel	w3, w3, w2, lt  // lt = tstop
__write_once_size():
/data3/home/yuanqiliang/code/arm-kernel/./include/linux/compiler.h:220
{
	switch (size) {
	case 1: *(volatile __u8 *)p = *(__u8 *)res; break;
	case 2: *(volatile __u16 *)p = *(__u16 *)res; break;
	case 4: *(volatile __u32 *)p = *(__u32 *)res; break;
	case 8: *(volatile __u64 *)p = *(__u64 *)res; break;
     4f0:	f8257881 	str	x1, [x4, x5, lsl #3]
__set_bit():
/data3/home/yuanqiliang/code/arm-kernel/./include/asm-generic/bitops/non-atomic.h:18
	unsigned long mask = BIT_MASK(nr);
     4f4:	6b0203e4 	negs	w4, w2
enqueue_timer():
/data3/home/yuanqiliang/code/arm-kernel/kernel/time/timer.c:539
	__set_bit(idx, base->pending_map);
     4f8:	9100a000 	add	x0, x0, #0x28
__set_bit():
/data3/home/yuanqiliang/code/arm-kernel/./include/asm-generic/bitops/non-atomic.h:19
	unsigned long *p = ((unsigned long *)addr) + BIT_WORD(nr);
     4fc:	13067c63 	asr	w3, w3, #6
/data3/home/yuanqiliang/code/arm-kernel/./include/asm-generic/bitops/non-atomic.h:18
	unsigned long mask = BIT_MASK(nr);
     500:	12001445 	and	w5, w2, #0x3f
     504:	12001484 	and	w4, w4, #0x3f
hlist_add_head():
/data3/home/yuanqiliang/code/arm-kernel/./include/linux/list.h:706
	WRITE_ONCE(h->first, n);
	n->pprev = &h->first;
     508:	f9000426 	str	x6, [x1, #8]
__set_bit():
/data3/home/yuanqiliang/code/arm-kernel/./include/asm-generic/bitops/non-atomic.h:19
	unsigned long *p = ((unsigned long *)addr) + BIT_WORD(nr);
     50c:	93407c63 	sxtw	x3, w3
/data3/home/yuanqiliang/code/arm-kernel/./include/asm-generic/bitops/non-atomic.h:18
	unsigned long mask = BIT_MASK(nr);
     510:	5a8444a4 	csneg	w4, w5, w4, mi  // mi = first
     514:	d2800025 	mov	x5, #0x1                   	// #1
     518:	9ac420a5 	lsl	x5, x5, x4
/data3/home/yuanqiliang/code/arm-kernel/./include/asm-generic/bitops/non-atomic.h:21

	*p  |= mask;
     51c:	f8637804 	ldr	x4, [x0, x3, lsl #3]
     520:	aa050084 	orr	x4, x4, x5
     524:	f8237804 	str	x4, [x0, x3, lsl #3]
timer_set_idx():
/data3/home/yuanqiliang/code/arm-kernel/kernel/time/timer.c:481
	timer->flags = (timer->flags & ~TIMER_ARRAYMASK) |
     528:	b9402020 	ldr	w0, [x1, #32]
     52c:	12005400 	and	w0, w0, #0x3fffff
     530:	2a025802 	orr	w2, w0, w2, lsl #22
     534:	b9002022 	str	w2, [x1, #32]
enqueue_timer():
/data3/home/yuanqiliang/code/arm-kernel/kernel/time/timer.c:541
	timer_set_idx(timer, idx);
}
     538:	d65f03c0 	ret
     53c:	d503201f 	nop

0000000000000540 <__internal_add_timer>:
__internal_add_timer():
/data3/home/yuanqiliang/code/arm-kernel/kernel/time/timer.c:545

static void
__internal_add_timer(struct timer_base *base, struct timer_list *timer)
{
     540:	aa0103e5 	mov	x5, x1
     544:	a9bf7bfd 	stp	x29, x30, [sp, #-16]!
     548:	aa0003e4 	mov	x4, x0
     54c:	910003fd 	mov	x29, sp
/data3/home/yuanqiliang/code/arm-kernel/kernel/time/timer.c:548
	unsigned int idx;

	idx = calc_wheel_index(timer->expires, base->clk);
     550:	f9400801 	ldr	x1, [x0, #16]
     554:	f94008a0 	ldr	x0, [x5, #16]
     558:	97ffff92 	bl	3a0 <calc_wheel_index>
/data3/home/yuanqiliang/code/arm-kernel/kernel/time/timer.c:549
	enqueue_timer(base, timer, idx);
     55c:	2a0003e2 	mov	w2, w0
     560:	aa0503e1 	mov	x1, x5
     564:	aa0403e0 	mov	x0, x4
     568:	97ffffd8 	bl	4c8 <enqueue_timer>
/data3/home/yuanqiliang/code/arm-kernel/kernel/time/timer.c:550
}
     56c:	a8c17bfd 	ldp	x29, x30, [sp], #16
     570:	d65f03c0 	ret
     574:	d503201f 	nop

0000000000000578 <detach_if_pending>:
timer_pending():
/data3/home/yuanqiliang/code/arm-kernel/./include/linux/timer.h:156
 *
 * return value: 1 if the timer is pending, 0 if not.
 */
static inline int timer_pending(const struct timer_list * timer)
{
	return timer->entry.pprev != NULL;
     578:	f9400403 	ldr	x3, [x0, #8]
detach_if_pending():
/data3/home/yuanqiliang/code/arm-kernel/kernel/time/timer.c:829
static int detach_if_pending(struct timer_list *timer, struct timer_base *base,
			     bool clear_pending)
{
	unsigned idx = timer_get_idx(timer);

	if (!timer_pending(timer))
     57c:	b4000803 	cbz	x3, 67c <detach_if_pending+0x104>
/data3/home/yuanqiliang/code/arm-kernel/kernel/time/timer.c:826
{
     580:	a9bd7bfd 	stp	x29, x30, [sp, #-48]!
     584:	910003fd 	mov	x29, sp
     588:	a90153f3 	stp	x19, x20, [sp, #16]
     58c:	f90013f5 	str	x21, [sp, #32]
     590:	12001c55 	and	w21, w2, #0xff
hlist_is_singular_node():
/data3/home/yuanqiliang/code/arm-kernel/./include/linux/list.h:748
 * accessing head:
 */
static inline bool
hlist_is_singular_node(struct hlist_node *n, struct hlist_head *h)
{
	return !n->next && n->pprev == &h->first;
     594:	f9400002 	ldr	x2, [x0]
     598:	b4000542 	cbz	x2, 640 <detach_if_pending+0xc8>
     59c:	aa0003f3 	mov	x19, x0
arch_static_branch():
/data3/home/yuanqiliang/code/arm-kernel/./arch/arm64/include/asm/jump_label.h:20

#define JUMP_LABEL_NOP_SIZE		AARCH64_INSN_SIZE

static __always_inline bool arch_static_branch(struct static_key *key, bool branch)
{
	asm_volatile_goto("1: nop\n\t"
     5a0:	d503201f 	nop
__hlist_del():
/data3/home/yuanqiliang/code/arm-kernel/./include/linux/list.h:677
	struct hlist_node **pprev = n->pprev;
     5a4:	a9400660 	ldp	x0, x1, [x19]
__write_once_size():
/data3/home/yuanqiliang/code/arm-kernel/./include/linux/compiler.h:220
     5a8:	f9000020 	str	x0, [x1]
__hlist_del():
/data3/home/yuanqiliang/code/arm-kernel/./include/linux/list.h:680
	if (next)
     5ac:	b4000040 	cbz	x0, 5b4 <detach_if_pending+0x3c>
/data3/home/yuanqiliang/code/arm-kernel/./include/linux/list.h:681
		next->pprev = pprev;
     5b0:	f9000401 	str	x1, [x0, #8]
detach_timer():
/data3/home/yuanqiliang/code/arm-kernel/kernel/time/timer.c:819
	if (clear_pending)
     5b4:	34000055 	cbz	w21, 5bc <detach_if_pending+0x44>
/data3/home/yuanqiliang/code/arm-kernel/kernel/time/timer.c:820
		entry->pprev = NULL;
     5b8:	f900067f 	str	xzr, [x19, #8]
/data3/home/yuanqiliang/code/arm-kernel/kernel/time/timer.c:821
	entry->next = LIST_POISON2;
     5bc:	d2804001 	mov	x1, #0x200                 	// #512
detach_if_pending():
/data3/home/yuanqiliang/code/arm-kernel/kernel/time/timer.c:836

	if (hlist_is_singular_node(&timer->entry, base->vectors + idx))
		__clear_bit(idx, base->pending_map);

	detach_timer(timer, clear_pending);
	return 1;
     5c0:	52800020 	mov	w0, #0x1                   	// #1
detach_timer():
/data3/home/yuanqiliang/code/arm-kernel/kernel/time/timer.c:821
	entry->next = LIST_POISON2;
     5c4:	f2fbd5a1 	movk	x1, #0xdead, lsl #48
     5c8:	f9000261 	str	x1, [x19]
detach_if_pending():
/data3/home/yuanqiliang/code/arm-kernel/kernel/time/timer.c:837
}
     5cc:	a94153f3 	ldp	x19, x20, [sp, #16]
     5d0:	f94013f5 	ldr	x21, [sp, #32]
     5d4:	a8c37bfd 	ldp	x29, x30, [sp], #48
     5d8:	d65f03c0 	ret
trace_timer_cancel():
/data3/home/yuanqiliang/code/arm-kernel/./include/trace/events/timer.h:132

/**
 * timer_cancel - called when the timer is canceled
 * @timer:	pointer to struct timer_list
 */
DEFINE_EVENT(timer_class, timer_cancel,
     5dc:	90000000 	adrp	x0, 0 <cpu_number>
     5e0:	91000000 	add	x0, x0, #0x0
__my_cpu_offset():
/data3/home/yuanqiliang/code/arm-kernel/./arch/arm64/include/asm/percpu.h:30
     5e4:	d538d081 	mrs	x1, tpidr_el1
trace_timer_cancel():
/data3/home/yuanqiliang/code/arm-kernel/./include/trace/events/timer.h:132
     5e8:	b8616801 	ldr	w1, [x0, x1]
test_bit():
/data3/home/yuanqiliang/code/arm-kernel/./include/asm-generic/bitops/non-atomic.h:106
 * @nr: bit number to test
 * @addr: Address to start counting from
 */
static inline int test_bit(int nr, const volatile unsigned long *addr)
{
	return 1UL & (addr[BIT_WORD(nr)] >> (nr & (BITS_PER_LONG-1)));
     5ec:	90000002 	adrp	x2, 0 <__cpu_online_mask>
     5f0:	91000042 	add	x2, x2, #0x0
     5f4:	7100003f 	cmp	w1, #0x0
     5f8:	1100fc20 	add	w0, w1, #0x3f
     5fc:	1a81b000 	csel	w0, w0, w1, lt  // lt = tstop
     600:	13067c00 	asr	w0, w0, #6
     604:	93407c00 	sxtw	x0, w0
     608:	f8607840 	ldr	x0, [x2, x0, lsl #3]
     60c:	9ac12401 	lsr	x1, x0, x1
trace_timer_cancel():
/data3/home/yuanqiliang/code/arm-kernel/./include/trace/events/timer.h:132
     610:	3607fca1 	tbz	w1, #0, 5a4 <detach_if_pending+0x2c>
__read_once_size():
/data3/home/yuanqiliang/code/arm-kernel/./include/linux/compiler.h:193
	__READ_ONCE_SIZE;
     614:	90000000 	adrp	x0, 0 <__round_jiffies>
     618:	91000000 	add	x0, x0, #0x0
     61c:	f9401414 	ldr	x20, [x0, #40]
trace_timer_cancel():
/data3/home/yuanqiliang/code/arm-kernel/./include/trace/events/timer.h:132
     620:	b40000f4 	cbz	x20, 63c <detach_if_pending+0xc4>
     624:	f9400282 	ldr	x2, [x20]
     628:	aa1303e1 	mov	x1, x19
     62c:	f9400680 	ldr	x0, [x20, #8]
     630:	d63f0040 	blr	x2
     634:	f8418e82 	ldr	x2, [x20, #24]!
     638:	b5ffff82 	cbnz	x2, 628 <detach_if_pending+0xb0>
     63c:	17ffffda 	b	5a4 <detach_if_pending+0x2c>
timer_get_idx():
/data3/home/yuanqiliang/code/arm-kernel/kernel/time/timer.c:476
	return (timer->flags & TIMER_ARRAYMASK) >> TIMER_ARRAYSHIFT;
     640:	b9402002 	ldr	w2, [x0, #32]
detach_if_pending():
/data3/home/yuanqiliang/code/arm-kernel/kernel/time/timer.c:832
	if (hlist_is_singular_node(&timer->entry, base->vectors + idx))
     644:	9101c025 	add	x5, x1, #0x70
timer_get_idx():
/data3/home/yuanqiliang/code/arm-kernel/kernel/time/timer.c:476
	return (timer->flags & TIMER_ARRAYMASK) >> TIMER_ARRAYSHIFT;
     648:	53167c44 	lsr	w4, w2, #22
detach_if_pending():
/data3/home/yuanqiliang/code/arm-kernel/kernel/time/timer.c:832
	if (hlist_is_singular_node(&timer->entry, base->vectors + idx))
     64c:	d37d2486 	ubfiz	x6, x4, #3, #10
     650:	8b0600a2 	add	x2, x5, x6
hlist_is_singular_node():
/data3/home/yuanqiliang/code/arm-kernel/./include/linux/list.h:748
	return !n->next && n->pprev == &h->first;
     654:	eb02007f 	cmp	x3, x2
     658:	54fffa21 	b.ne	59c <detach_if_pending+0x24>  // b.any
detach_if_pending():
/data3/home/yuanqiliang/code/arm-kernel/kernel/time/timer.c:833
		__clear_bit(idx, base->pending_map);
     65c:	9100a021 	add	x1, x1, #0x28
__clear_bit():
/data3/home/yuanqiliang/code/arm-kernel/./include/asm-generic/bitops/non-atomic.h:27
	unsigned long *p = ((unsigned long *)addr) + BIT_WORD(nr);
     660:	d3462483 	ubfx	x3, x4, #6, #4
/data3/home/yuanqiliang/code/arm-kernel/./include/asm-generic/bitops/non-atomic.h:26
	unsigned long mask = BIT_MASK(nr);
     664:	d2800022 	mov	x2, #0x1                   	// #1
     668:	9ac42042 	lsl	x2, x2, x4
/data3/home/yuanqiliang/code/arm-kernel/./include/asm-generic/bitops/non-atomic.h:29
	*p &= ~mask;
     66c:	f8637824 	ldr	x4, [x1, x3, lsl #3]
     670:	8a220082 	bic	x2, x4, x2
     674:	f8237822 	str	x2, [x1, x3, lsl #3]
     678:	17ffffc9 	b	59c <detach_if_pending+0x24>
detach_if_pending():
/data3/home/yuanqiliang/code/arm-kernel/kernel/time/timer.c:830
		return 0;
     67c:	52800000 	mov	w0, #0x0                   	// #0
/data3/home/yuanqiliang/code/arm-kernel/kernel/time/timer.c:837
}
     680:	d65f03c0 	ret
     684:	d503201f 	nop

0000000000000688 <perf_trace_timer_class>:
perf_trace_timer_class():
/data3/home/yuanqiliang/code/arm-kernel/./include/trace/events/timer.h:12
DECLARE_EVENT_CLASS(timer_class,
     688:	a9bc7bfd 	stp	x29, x30, [sp, #-64]!
     68c:	910003fd 	mov	x29, sp
     690:	a9025bf5 	stp	x21, x22, [sp, #32]
__my_cpu_offset():
/data3/home/yuanqiliang/code/arm-kernel/./arch/arm64/include/asm/percpu.h:30
     694:	d538d083 	mrs	x3, tpidr_el1
__read_once_size():
/data3/home/yuanqiliang/code/arm-kernel/./include/linux/compiler.h:193
     698:	f9404004 	ldr	x4, [x0, #128]
perf_trace_timer_class():
/data3/home/yuanqiliang/code/arm-kernel/./include/trace/events/timer.h:12
     69c:	f9403c02 	ldr	x2, [x0, #120]
     6a0:	8b030056 	add	x22, x2, x3
     6a4:	b5000064 	cbnz	x4, 6b0 <perf_trace_timer_class+0x28>
__read_once_size():
/data3/home/yuanqiliang/code/arm-kernel/./include/linux/compiler.h:193
     6a8:	f8636842 	ldr	x2, [x2, x3]
perf_trace_timer_class():
/data3/home/yuanqiliang/code/arm-kernel/./include/trace/events/timer.h:12
     6ac:	b4000342 	cbz	x2, 714 <perf_trace_timer_class+0x8c>
/data3/home/yuanqiliang/code/arm-kernel/./include/trace/events/timer.h:12 (discriminator 8)
     6b0:	aa1e03f5 	mov	x21, x30
     6b4:	9100d3a2 	add	x2, x29, #0x34
     6b8:	a90153b3 	stp	x19, x20, [x29, #16]
     6bc:	aa0103f4 	mov	x20, x1
     6c0:	aa0003f3 	mov	x19, x0
     6c4:	9100e3a1 	add	x1, x29, #0x38
     6c8:	52800280 	mov	w0, #0x14                  	// #20
     6cc:	94000000 	bl	0 <perf_trace_buf_alloc>
     6d0:	b4000280 	cbz	x0, 720 <perf_trace_timer_class+0x98>
/data3/home/yuanqiliang/code/arm-kernel/./include/trace/events/timer.h:12 (discriminator 11)
     6d4:	f9401fa4 	ldr	x4, [x29, #56]
perf_fetch_caller_regs():
/data3/home/yuanqiliang/code/arm-kernel/./include/linux/perf_event.h:1067 (discriminator 11)
 * - bp for callchains
 * - eflags, for future purposes, just in case
 */
static inline void perf_fetch_caller_regs(struct pt_regs *regs)
{
	perf_arch_fetch_caller_regs(regs, CALLER_ADDR0);
     6d8:	910003e3 	mov	x3, sp
perf_trace_timer_class():
/data3/home/yuanqiliang/code/arm-kernel/./include/trace/events/timer.h:12 (discriminator 11)
     6dc:	b94037a2 	ldr	w2, [x29, #52]
perf_fetch_caller_regs():
/data3/home/yuanqiliang/code/arm-kernel/./include/linux/perf_event.h:1067 (discriminator 11)
     6e0:	d28000a8 	mov	x8, #0x5                   	// #5
perf_trace_timer_class():
/data3/home/yuanqiliang/code/arm-kernel/./include/trace/events/timer.h:12 (discriminator 11)
     6e4:	aa0403e5 	mov	x5, x4
     6e8:	aa1603e6 	mov	x6, x22
perf_fetch_caller_regs():
/data3/home/yuanqiliang/code/arm-kernel/./include/linux/perf_event.h:1067 (discriminator 11)
     6ec:	f900749d 	str	x29, [x4, #232]
perf_trace_timer_class():
/data3/home/yuanqiliang/code/arm-kernel/./include/trace/events/timer.h:12 (discriminator 11)
     6f0:	d2800007 	mov	x7, #0x0                   	// #0
perf_fetch_caller_regs():
/data3/home/yuanqiliang/code/arm-kernel/./include/linux/perf_event.h:1067 (discriminator 11)
     6f4:	a90fd483 	stp	x3, x21, [x4, #248]
perf_trace_timer_class():
/data3/home/yuanqiliang/code/arm-kernel/./include/trace/events/timer.h:12 (discriminator 11)
     6f8:	52800281 	mov	w1, #0x14                  	// #20
     6fc:	aa1303e3 	mov	x3, x19
perf_fetch_caller_regs():
/data3/home/yuanqiliang/code/arm-kernel/./include/linux/perf_event.h:1067 (discriminator 11)
     700:	f9008488 	str	x8, [x4, #264]
perf_trace_timer_class():
/data3/home/yuanqiliang/code/arm-kernel/./include/trace/events/timer.h:12 (discriminator 11)
     704:	d2800024 	mov	x4, #0x1                   	// #1
     708:	f9000414 	str	x20, [x0, #8]
     70c:	94000000 	bl	0 <perf_trace_run_bpf_submit>
     710:	a94153b3 	ldp	x19, x20, [x29, #16]
/data3/home/yuanqiliang/code/arm-kernel/./include/trace/events/timer.h:12
     714:	a9425bf5 	ldp	x21, x22, [sp, #32]
     718:	a8c47bfd 	ldp	x29, x30, [sp], #64
     71c:	d65f03c0 	ret
     720:	a94153b3 	ldp	x19, x20, [x29, #16]
     724:	a9425bf5 	ldp	x21, x22, [sp, #32]
     728:	a8c47bfd 	ldp	x29, x30, [sp], #64
     72c:	d65f03c0 	ret

0000000000000730 <perf_trace_timer_start>:
perf_trace_timer_start():
/data3/home/yuanqiliang/code/arm-kernel/./include/trace/events/timer.h:52
TRACE_EVENT(timer_start,
     730:	a9bb7bfd 	stp	x29, x30, [sp, #-80]!
     734:	910003fd 	mov	x29, sp
     738:	a90363f7 	stp	x23, x24, [sp, #48]
__my_cpu_offset():
/data3/home/yuanqiliang/code/arm-kernel/./arch/arm64/include/asm/percpu.h:30
     73c:	d538d085 	mrs	x5, tpidr_el1
__read_once_size():
/data3/home/yuanqiliang/code/arm-kernel/./include/linux/compiler.h:193
     740:	f9404006 	ldr	x6, [x0, #128]
perf_trace_timer_start():
/data3/home/yuanqiliang/code/arm-kernel/./include/trace/events/timer.h:52
     744:	f9403c04 	ldr	x4, [x0, #120]
     748:	8b050097 	add	x23, x4, x5
     74c:	b5000066 	cbnz	x6, 758 <perf_trace_timer_start+0x28>
__read_once_size():
/data3/home/yuanqiliang/code/arm-kernel/./include/linux/compiler.h:193
     750:	f8656884 	ldr	x4, [x4, x5]
perf_trace_timer_start():
/data3/home/yuanqiliang/code/arm-kernel/./include/trace/events/timer.h:52
     754:	b4000484 	cbz	x4, 7e4 <perf_trace_timer_start+0xb4>
/data3/home/yuanqiliang/code/arm-kernel/./include/trace/events/timer.h:52 (discriminator 8)
     758:	aa1e03f8 	mov	x24, x30
     75c:	a90153b3 	stp	x19, x20, [x29, #16]
     760:	aa0103f4 	mov	x20, x1
     764:	aa0003f3 	mov	x19, x0
     768:	910123a1 	add	x1, x29, #0x48
     76c:	52800680 	mov	w0, #0x34                  	// #52
     770:	a9025bb5 	stp	x21, x22, [x29, #32]
     774:	aa0203f6 	mov	x22, x2
     778:	2a0303f5 	mov	w21, w3
     77c:	910113a2 	add	x2, x29, #0x44
     780:	94000000 	bl	0 <perf_trace_buf_alloc>
     784:	b4000360 	cbz	x0, 7f0 <perf_trace_timer_start+0xc0>
/data3/home/yuanqiliang/code/arm-kernel/./include/trace/events/timer.h:52 (discriminator 11)
     788:	f94027a1 	ldr	x1, [x29, #72]
perf_fetch_caller_regs():
/data3/home/yuanqiliang/code/arm-kernel/./include/linux/perf_event.h:1067 (discriminator 11)
     78c:	910003e3 	mov	x3, sp
     790:	d28000a4 	mov	x4, #0x5                   	// #5
perf_trace_timer_start():
/data3/home/yuanqiliang/code/arm-kernel/./include/trace/events/timer.h:52 (discriminator 11)
     794:	90000009 	adrp	x9, 0 <jiffies>
     798:	b94047a2 	ldr	w2, [x29, #68]
     79c:	aa0103e5 	mov	x5, x1
perf_fetch_caller_regs():
/data3/home/yuanqiliang/code/arm-kernel/./include/linux/perf_event.h:1067 (discriminator 11)
     7a0:	f900743d 	str	x29, [x1, #232]
perf_trace_timer_start():
/data3/home/yuanqiliang/code/arm-kernel/./include/trace/events/timer.h:52 (discriminator 11)
     7a4:	aa1703e6 	mov	x6, x23
perf_fetch_caller_regs():
/data3/home/yuanqiliang/code/arm-kernel/./include/linux/perf_event.h:1067 (discriminator 11)
     7a8:	a90fe023 	stp	x3, x24, [x1, #248]
perf_trace_timer_start():
/data3/home/yuanqiliang/code/arm-kernel/./include/trace/events/timer.h:52 (discriminator 11)
     7ac:	d2800007 	mov	x7, #0x0                   	// #0
     7b0:	aa1303e3 	mov	x3, x19
perf_fetch_caller_regs():
/data3/home/yuanqiliang/code/arm-kernel/./include/linux/perf_event.h:1067 (discriminator 11)
     7b4:	f9008424 	str	x4, [x1, #264]
perf_trace_timer_start():
/data3/home/yuanqiliang/code/arm-kernel/./include/trace/events/timer.h:52 (discriminator 11)
     7b8:	d2800024 	mov	x4, #0x1                   	// #1
     7bc:	f9000414 	str	x20, [x0, #8]
     7c0:	52800681 	mov	w1, #0x34                  	// #52
     7c4:	f9400129 	ldr	x9, [x9]
     7c8:	f9400e8a 	ldr	x10, [x20, #24]
     7cc:	a901580a 	stp	x10, x22, [x0, #16]
     7d0:	f9001009 	str	x9, [x0, #32]
     7d4:	b9002815 	str	w21, [x0, #40]
     7d8:	94000000 	bl	0 <perf_trace_run_bpf_submit>
     7dc:	a94153b3 	ldp	x19, x20, [x29, #16]
     7e0:	a9425bb5 	ldp	x21, x22, [x29, #32]
/data3/home/yuanqiliang/code/arm-kernel/./include/trace/events/timer.h:52
     7e4:	a94363f7 	ldp	x23, x24, [sp, #48]
     7e8:	a8c57bfd 	ldp	x29, x30, [sp], #80
     7ec:	d65f03c0 	ret
     7f0:	a94153b3 	ldp	x19, x20, [x29, #16]
     7f4:	a9425bb5 	ldp	x21, x22, [x29, #32]
     7f8:	a94363f7 	ldp	x23, x24, [sp, #48]
     7fc:	a8c57bfd 	ldp	x29, x30, [sp], #80
     800:	d65f03c0 	ret
     804:	d503201f 	nop

0000000000000808 <perf_trace_timer_expire_entry>:
perf_trace_timer_expire_entry():
/data3/home/yuanqiliang/code/arm-kernel/./include/trace/events/timer.h:90
TRACE_EVENT(timer_expire_entry,
     808:	a9bc7bfd 	stp	x29, x30, [sp, #-64]!
     80c:	910003fd 	mov	x29, sp
     810:	a9025bf5 	stp	x21, x22, [sp, #32]
__my_cpu_offset():
/data3/home/yuanqiliang/code/arm-kernel/./arch/arm64/include/asm/percpu.h:30
     814:	d538d083 	mrs	x3, tpidr_el1
__read_once_size():
/data3/home/yuanqiliang/code/arm-kernel/./include/linux/compiler.h:193
     818:	f9404004 	ldr	x4, [x0, #128]
perf_trace_timer_expire_entry():
/data3/home/yuanqiliang/code/arm-kernel/./include/trace/events/timer.h:90
     81c:	f9403c02 	ldr	x2, [x0, #120]
     820:	8b030056 	add	x22, x2, x3
     824:	b5000064 	cbnz	x4, 830 <perf_trace_timer_expire_entry+0x28>
__read_once_size():
/data3/home/yuanqiliang/code/arm-kernel/./include/linux/compiler.h:193
     828:	f8636842 	ldr	x2, [x2, x3]
perf_trace_timer_expire_entry():
/data3/home/yuanqiliang/code/arm-kernel/./include/trace/events/timer.h:90
     82c:	b40003a2 	cbz	x2, 8a0 <perf_trace_timer_expire_entry+0x98>
/data3/home/yuanqiliang/code/arm-kernel/./include/trace/events/timer.h:90 (discriminator 8)
     830:	aa1e03f5 	mov	x21, x30
     834:	9100d3a2 	add	x2, x29, #0x34
     838:	a90153b3 	stp	x19, x20, [x29, #16]
     83c:	aa0103f4 	mov	x20, x1
     840:	aa0003f3 	mov	x19, x0
     844:	9100e3a1 	add	x1, x29, #0x38
     848:	52800480 	mov	w0, #0x24                  	// #36
     84c:	94000000 	bl	0 <perf_trace_buf_alloc>
     850:	b40002e0 	cbz	x0, 8ac <perf_trace_timer_expire_entry+0xa4>
/data3/home/yuanqiliang/code/arm-kernel/./include/trace/events/timer.h:90 (discriminator 11)
     854:	f9401fa5 	ldr	x5, [x29, #56]
     858:	90000004 	adrp	x4, 0 <jiffies>
perf_fetch_caller_regs():
/data3/home/yuanqiliang/code/arm-kernel/./include/linux/perf_event.h:1067 (discriminator 11)
     85c:	910003e6 	mov	x6, sp
     860:	d28000a3 	mov	x3, #0x5                   	// #5
perf_trace_timer_expire_entry():
/data3/home/yuanqiliang/code/arm-kernel/./include/trace/events/timer.h:90 (discriminator 11)
     864:	f9400084 	ldr	x4, [x4]
perf_fetch_caller_regs():
/data3/home/yuanqiliang/code/arm-kernel/./include/linux/perf_event.h:1067 (discriminator 11)
     868:	f90074bd 	str	x29, [x5, #232]
     86c:	a90fd4a6 	stp	x6, x21, [x5, #248]
perf_trace_timer_expire_entry():
/data3/home/yuanqiliang/code/arm-kernel/./include/trace/events/timer.h:90 (discriminator 11)
     870:	d2800007 	mov	x7, #0x0                   	// #0
     874:	b94037a2 	ldr	w2, [x29, #52]
perf_fetch_caller_regs():
/data3/home/yuanqiliang/code/arm-kernel/./include/linux/perf_event.h:1067 (discriminator 11)
     878:	f90084a3 	str	x3, [x5, #264]
perf_trace_timer_expire_entry():
/data3/home/yuanqiliang/code/arm-kernel/./include/trace/events/timer.h:90 (discriminator 11)
     87c:	aa1603e6 	mov	x6, x22
     880:	a9009014 	stp	x20, x4, [x0, #8]
     884:	aa1303e3 	mov	x3, x19
     888:	d2800024 	mov	x4, #0x1                   	// #1
     88c:	f9400e88 	ldr	x8, [x20, #24]
     890:	f9000c08 	str	x8, [x0, #24]
     894:	52800481 	mov	w1, #0x24                  	// #36
     898:	94000000 	bl	0 <perf_trace_run_bpf_submit>
     89c:	a94153b3 	ldp	x19, x20, [x29, #16]
/data3/home/yuanqiliang/code/arm-kernel/./include/trace/events/timer.h:90
     8a0:	a9425bf5 	ldp	x21, x22, [sp, #32]
     8a4:	a8c47bfd 	ldp	x29, x30, [sp], #64
     8a8:	d65f03c0 	ret
     8ac:	a94153b3 	ldp	x19, x20, [x29, #16]
     8b0:	a9425bf5 	ldp	x21, x22, [sp, #32]
     8b4:	a8c47bfd 	ldp	x29, x30, [sp], #64
     8b8:	d65f03c0 	ret
     8bc:	d503201f 	nop

00000000000008c0 <perf_trace_hrtimer_init>:
perf_trace_hrtimer_init():
/data3/home/yuanqiliang/code/arm-kernel/./include/trace/events/timer.h:163
 * hrtimer_init - called when the hrtimer is initialized
 * @hrtimer:	pointer to struct hrtimer
 * @clockid:	the hrtimers clock
 * @mode:	the hrtimers mode
 */
TRACE_EVENT(hrtimer_init,
     8c0:	a9bb7bfd 	stp	x29, x30, [sp, #-80]!
     8c4:	910003fd 	mov	x29, sp
     8c8:	a90363f7 	stp	x23, x24, [sp, #48]
__my_cpu_offset():
/data3/home/yuanqiliang/code/arm-kernel/./arch/arm64/include/asm/percpu.h:30
     8cc:	d538d085 	mrs	x5, tpidr_el1
__read_once_size():
/data3/home/yuanqiliang/code/arm-kernel/./include/linux/compiler.h:193
     8d0:	f9404006 	ldr	x6, [x0, #128]
perf_trace_hrtimer_init():
/data3/home/yuanqiliang/code/arm-kernel/./include/trace/events/timer.h:163
     8d4:	f9403c04 	ldr	x4, [x0, #120]
     8d8:	8b050097 	add	x23, x4, x5
     8dc:	b5000066 	cbnz	x6, 8e8 <perf_trace_hrtimer_init+0x28>
__read_once_size():
/data3/home/yuanqiliang/code/arm-kernel/./include/linux/compiler.h:193
     8e0:	f8656884 	ldr	x4, [x4, x5]
perf_trace_hrtimer_init():
/data3/home/yuanqiliang/code/arm-kernel/./include/trace/events/timer.h:163
     8e4:	b40003e4 	cbz	x4, 960 <perf_trace_hrtimer_init+0xa0>
/data3/home/yuanqiliang/code/arm-kernel/./include/trace/events/timer.h:163 (discriminator 8)
     8e8:	aa0103f8 	mov	x24, x1
     8ec:	910123a1 	add	x1, x29, #0x48
     8f0:	a90153b3 	stp	x19, x20, [x29, #16]
     8f4:	aa0003f3 	mov	x19, x0
     8f8:	2a0303f4 	mov	w20, w3
     8fc:	52800380 	mov	w0, #0x1c                  	// #28
     900:	a9025bb5 	stp	x21, x22, [x29, #32]
     904:	2a0203f5 	mov	w21, w2
     908:	aa1e03f6 	mov	x22, x30
     90c:	910113a2 	add	x2, x29, #0x44
     910:	94000000 	bl	0 <perf_trace_buf_alloc>
     914:	b40002c0 	cbz	x0, 96c <perf_trace_hrtimer_init+0xac>
/data3/home/yuanqiliang/code/arm-kernel/./include/trace/events/timer.h:163 (discriminator 11)
     918:	f94027a4 	ldr	x4, [x29, #72]
perf_fetch_caller_regs():
/data3/home/yuanqiliang/code/arm-kernel/./include/linux/perf_event.h:1067 (discriminator 11)
     91c:	910003e3 	mov	x3, sp
perf_trace_hrtimer_init():
/data3/home/yuanqiliang/code/arm-kernel/./include/trace/events/timer.h:163 (discriminator 11)
     920:	b94047a2 	ldr	w2, [x29, #68]
perf_fetch_caller_regs():
/data3/home/yuanqiliang/code/arm-kernel/./include/linux/perf_event.h:1067 (discriminator 11)
     924:	d28000a1 	mov	x1, #0x5                   	// #5
perf_trace_hrtimer_init():
/data3/home/yuanqiliang/code/arm-kernel/./include/trace/events/timer.h:163 (discriminator 11)
     928:	aa0403e5 	mov	x5, x4
     92c:	aa1703e6 	mov	x6, x23
perf_fetch_caller_regs():
/data3/home/yuanqiliang/code/arm-kernel/./include/linux/perf_event.h:1067 (discriminator 11)
     930:	f900749d 	str	x29, [x4, #232]
perf_trace_hrtimer_init():
/data3/home/yuanqiliang/code/arm-kernel/./include/trace/events/timer.h:163 (discriminator 11)
     934:	d2800007 	mov	x7, #0x0                   	// #0
perf_fetch_caller_regs():
/data3/home/yuanqiliang/code/arm-kernel/./include/linux/perf_event.h:1067 (discriminator 11)
     938:	a90fd883 	stp	x3, x22, [x4, #248]
perf_trace_hrtimer_init():
/data3/home/yuanqiliang/code/arm-kernel/./include/trace/events/timer.h:163 (discriminator 11)
     93c:	aa1303e3 	mov	x3, x19
perf_fetch_caller_regs():
/data3/home/yuanqiliang/code/arm-kernel/./include/linux/perf_event.h:1067 (discriminator 11)
     940:	f9008481 	str	x1, [x4, #264]
perf_trace_hrtimer_init():
/data3/home/yuanqiliang/code/arm-kernel/./include/trace/events/timer.h:163 (discriminator 11)
     944:	d2800024 	mov	x4, #0x1                   	// #1
     948:	f9000418 	str	x24, [x0, #8]
     94c:	52800381 	mov	w1, #0x1c                  	// #28
     950:	29025015 	stp	w21, w20, [x0, #16]
     954:	94000000 	bl	0 <perf_trace_run_bpf_submit>
     958:	a94153b3 	ldp	x19, x20, [x29, #16]
     95c:	a9425bb5 	ldp	x21, x22, [x29, #32]
/data3/home/yuanqiliang/code/arm-kernel/./include/trace/events/timer.h:163
     960:	a94363f7 	ldp	x23, x24, [sp, #48]
     964:	a8c57bfd 	ldp	x29, x30, [sp], #80
     968:	d65f03c0 	ret
     96c:	a94153b3 	ldp	x19, x20, [x29, #16]
     970:	a9425bb5 	ldp	x21, x22, [x29, #32]
     974:	a94363f7 	ldp	x23, x24, [sp, #48]
     978:	a8c57bfd 	ldp	x29, x30, [sp], #80
     97c:	d65f03c0 	ret

0000000000000980 <perf_trace_hrtimer_start>:
perf_trace_hrtimer_start():
/data3/home/yuanqiliang/code/arm-kernel/./include/trace/events/timer.h:191

/**
 * hrtimer_start - called when the hrtimer is started
 * @hrtimer: pointer to struct hrtimer
 */
TRACE_EVENT(hrtimer_start,
     980:	a9bb7bfd 	stp	x29, x30, [sp, #-80]!
     984:	910003fd 	mov	x29, sp
     988:	a9025bf5 	stp	x21, x22, [sp, #32]
__my_cpu_offset():
/data3/home/yuanqiliang/code/arm-kernel/./arch/arm64/include/asm/percpu.h:30
     98c:	d538d083 	mrs	x3, tpidr_el1
__read_once_size():
/data3/home/yuanqiliang/code/arm-kernel/./include/linux/compiler.h:193
     990:	f9404005 	ldr	x5, [x0, #128]
perf_trace_hrtimer_start():
/data3/home/yuanqiliang/code/arm-kernel/./include/trace/events/timer.h:191
     994:	f9403c04 	ldr	x4, [x0, #120]
     998:	8b030096 	add	x22, x4, x3
     99c:	b5000065 	cbnz	x5, 9a8 <perf_trace_hrtimer_start+0x28>
__read_once_size():
/data3/home/yuanqiliang/code/arm-kernel/./include/linux/compiler.h:193
     9a0:	f8636883 	ldr	x3, [x4, x3]
perf_trace_hrtimer_start():
/data3/home/yuanqiliang/code/arm-kernel/./include/trace/events/timer.h:191
     9a4:	b4000483 	cbz	x3, a34 <perf_trace_hrtimer_start+0xb4>
/data3/home/yuanqiliang/code/arm-kernel/./include/trace/events/timer.h:191 (discriminator 8)
     9a8:	aa1e03f5 	mov	x21, x30
     9ac:	a90153b3 	stp	x19, x20, [x29, #16]
     9b0:	aa0103f4 	mov	x20, x1
     9b4:	aa0003f3 	mov	x19, x0
     9b8:	910123a1 	add	x1, x29, #0x48
     9bc:	52800680 	mov	w0, #0x34                  	// #52
     9c0:	f9001bb7 	str	x23, [x29, #48]
     9c4:	2a0203f7 	mov	w23, w2
     9c8:	910113a2 	add	x2, x29, #0x44
     9cc:	94000000 	bl	0 <perf_trace_buf_alloc>
     9d0:	b4000380 	cbz	x0, a40 <perf_trace_hrtimer_start+0xc0>
/data3/home/yuanqiliang/code/arm-kernel/./include/trace/events/timer.h:191 (discriminator 11)
     9d4:	f94027a1 	ldr	x1, [x29, #72]
perf_fetch_caller_regs():
/data3/home/yuanqiliang/code/arm-kernel/./include/linux/perf_event.h:1067 (discriminator 11)
     9d8:	910003e3 	mov	x3, sp
     9dc:	d28000a4 	mov	x4, #0x5                   	// #5
perf_trace_hrtimer_start():
/data3/home/yuanqiliang/code/arm-kernel/./include/trace/events/timer.h:191 (discriminator 11)
     9e0:	b94047a2 	ldr	w2, [x29, #68]
     9e4:	aa0103e5 	mov	x5, x1
     9e8:	aa1603e6 	mov	x6, x22
perf_fetch_caller_regs():
/data3/home/yuanqiliang/code/arm-kernel/./include/linux/perf_event.h:1067 (discriminator 11)
     9ec:	f900743d 	str	x29, [x1, #232]
perf_trace_hrtimer_start():
/data3/home/yuanqiliang/code/arm-kernel/./include/trace/events/timer.h:191 (discriminator 11)
     9f0:	d2800007 	mov	x7, #0x0                   	// #0
perf_fetch_caller_regs():
/data3/home/yuanqiliang/code/arm-kernel/./include/linux/perf_event.h:1067 (discriminator 11)
     9f4:	a90fd423 	stp	x3, x21, [x1, #248]
perf_trace_hrtimer_start():
/data3/home/yuanqiliang/code/arm-kernel/./include/trace/events/timer.h:191 (discriminator 11)
     9f8:	aa1303e3 	mov	x3, x19
perf_fetch_caller_regs():
/data3/home/yuanqiliang/code/arm-kernel/./include/linux/perf_event.h:1067 (discriminator 11)
     9fc:	f9008424 	str	x4, [x1, #264]
perf_trace_hrtimer_start():
/data3/home/yuanqiliang/code/arm-kernel/./include/trace/events/timer.h:191 (discriminator 11)
     a00:	d2800024 	mov	x4, #0x1                   	// #1
     a04:	f9000414 	str	x20, [x0, #8]
     a08:	52800681 	mov	w1, #0x34                  	// #52
     a0c:	f9401689 	ldr	x9, [x20, #40]
     a10:	f9000809 	str	x9, [x0, #16]
hrtimer_get_expires():
/data3/home/yuanqiliang/code/arm-kernel/./include/linux/hrtimer.h:261 (discriminator 11)
	timer->_softexpires = ktime_add_ns(timer->_softexpires, ns);
}

static inline ktime_t hrtimer_get_expires(const struct hrtimer *timer)
{
	return timer->node.expires;
     a14:	f9400e89 	ldr	x9, [x20, #24]
perf_trace_hrtimer_start():
/data3/home/yuanqiliang/code/arm-kernel/./include/trace/events/timer.h:191 (discriminator 11)
     a18:	f9000c09 	str	x9, [x0, #24]
hrtimer_get_softexpires():
/data3/home/yuanqiliang/code/arm-kernel/./include/linux/hrtimer.h:266 (discriminator 11)
}

static inline ktime_t hrtimer_get_softexpires(const struct hrtimer *timer)
{
	return timer->_softexpires;
     a1c:	f9401289 	ldr	x9, [x20, #32]
perf_trace_hrtimer_start():
/data3/home/yuanqiliang/code/arm-kernel/./include/trace/events/timer.h:191 (discriminator 11)
     a20:	f9001009 	str	x9, [x0, #32]
     a24:	b9002817 	str	w23, [x0, #40]
     a28:	94000000 	bl	0 <perf_trace_run_bpf_submit>
     a2c:	a94153b3 	ldp	x19, x20, [x29, #16]
     a30:	f9401bb7 	ldr	x23, [x29, #48]
/data3/home/yuanqiliang/code/arm-kernel/./include/trace/events/timer.h:191
     a34:	a9425bf5 	ldp	x21, x22, [sp, #32]
     a38:	a8c57bfd 	ldp	x29, x30, [sp], #80
     a3c:	d65f03c0 	ret
     a40:	a94153b3 	ldp	x19, x20, [x29, #16]
     a44:	a9425bf5 	ldp	x21, x22, [sp, #32]
     a48:	f9401bb7 	ldr	x23, [x29, #48]
     a4c:	a8c57bfd 	ldp	x29, x30, [sp], #80
     a50:	d65f03c0 	ret
     a54:	d503201f 	nop

0000000000000a58 <perf_trace_hrtimer_expire_entry>:
perf_trace_hrtimer_expire_entry():
/data3/home/yuanqiliang/code/arm-kernel/./include/trace/events/timer.h:228
 * @now:	pointer to variable which contains current time of the
 *		timers base.
 *
 * Allows to determine the timer latency.
 */
TRACE_EVENT(hrtimer_expire_entry,
     a58:	a9bb7bfd 	stp	x29, x30, [sp, #-80]!
     a5c:	910003fd 	mov	x29, sp
     a60:	a9025bf5 	stp	x21, x22, [sp, #32]
__my_cpu_offset():
/data3/home/yuanqiliang/code/arm-kernel/./arch/arm64/include/asm/percpu.h:30
     a64:	d538d083 	mrs	x3, tpidr_el1
__read_once_size():
/data3/home/yuanqiliang/code/arm-kernel/./include/linux/compiler.h:193
     a68:	f9404005 	ldr	x5, [x0, #128]
perf_trace_hrtimer_expire_entry():
/data3/home/yuanqiliang/code/arm-kernel/./include/trace/events/timer.h:228
     a6c:	f9403c04 	ldr	x4, [x0, #120]
     a70:	8b030096 	add	x22, x4, x3
     a74:	b5000065 	cbnz	x5, a80 <perf_trace_hrtimer_expire_entry+0x28>
__read_once_size():
/data3/home/yuanqiliang/code/arm-kernel/./include/linux/compiler.h:193
     a78:	f8636883 	ldr	x3, [x4, x3]
perf_trace_hrtimer_expire_entry():
/data3/home/yuanqiliang/code/arm-kernel/./include/trace/events/timer.h:228
     a7c:	b4000423 	cbz	x3, b00 <perf_trace_hrtimer_expire_entry+0xa8>
/data3/home/yuanqiliang/code/arm-kernel/./include/trace/events/timer.h:228 (discriminator 8)
     a80:	aa0203f5 	mov	x21, x2
     a84:	910113a2 	add	x2, x29, #0x44
     a88:	a90153b3 	stp	x19, x20, [x29, #16]
     a8c:	aa0103f4 	mov	x20, x1
     a90:	aa0003f3 	mov	x19, x0
     a94:	910123a1 	add	x1, x29, #0x48
     a98:	52800480 	mov	w0, #0x24                  	// #36
     a9c:	f9001bb7 	str	x23, [x29, #48]
     aa0:	aa1e03f7 	mov	x23, x30
     aa4:	94000000 	bl	0 <perf_trace_buf_alloc>
     aa8:	b4000320 	cbz	x0, b0c <perf_trace_hrtimer_expire_entry+0xb4>
/data3/home/yuanqiliang/code/arm-kernel/./include/trace/events/timer.h:228 (discriminator 11)
     aac:	f94027a1 	ldr	x1, [x29, #72]
perf_fetch_caller_regs():
/data3/home/yuanqiliang/code/arm-kernel/./include/linux/perf_event.h:1067 (discriminator 11)
     ab0:	910003e3 	mov	x3, sp
     ab4:	d28000a4 	mov	x4, #0x5                   	// #5
perf_trace_hrtimer_expire_entry():
/data3/home/yuanqiliang/code/arm-kernel/./include/trace/events/timer.h:228 (discriminator 11)
     ab8:	b94047a2 	ldr	w2, [x29, #68]
     abc:	aa0103e5 	mov	x5, x1
     ac0:	aa1603e6 	mov	x6, x22
perf_fetch_caller_regs():
/data3/home/yuanqiliang/code/arm-kernel/./include/linux/perf_event.h:1067 (discriminator 11)
     ac4:	f900743d 	str	x29, [x1, #232]
perf_trace_hrtimer_expire_entry():
/data3/home/yuanqiliang/code/arm-kernel/./include/trace/events/timer.h:228 (discriminator 11)
     ac8:	d2800007 	mov	x7, #0x0                   	// #0
perf_fetch_caller_regs():
/data3/home/yuanqiliang/code/arm-kernel/./include/linux/perf_event.h:1067 (discriminator 11)
     acc:	a90fdc23 	stp	x3, x23, [x1, #248]
perf_trace_hrtimer_expire_entry():
/data3/home/yuanqiliang/code/arm-kernel/./include/trace/events/timer.h:228 (discriminator 11)
     ad0:	aa1303e3 	mov	x3, x19
perf_fetch_caller_regs():
/data3/home/yuanqiliang/code/arm-kernel/./include/linux/perf_event.h:1067 (discriminator 11)
     ad4:	f9008424 	str	x4, [x1, #264]
perf_trace_hrtimer_expire_entry():
/data3/home/yuanqiliang/code/arm-kernel/./include/trace/events/timer.h:228 (discriminator 11)
     ad8:	d2800024 	mov	x4, #0x1                   	// #1
     adc:	f9000414 	str	x20, [x0, #8]
     ae0:	52800481 	mov	w1, #0x24                  	// #36
     ae4:	f94002a9 	ldr	x9, [x21]
     ae8:	f9000809 	str	x9, [x0, #16]
     aec:	f9401689 	ldr	x9, [x20, #40]
     af0:	f9000c09 	str	x9, [x0, #24]
     af4:	94000000 	bl	0 <perf_trace_run_bpf_submit>
     af8:	a94153b3 	ldp	x19, x20, [x29, #16]
     afc:	f9401bb7 	ldr	x23, [x29, #48]
/data3/home/yuanqiliang/code/arm-kernel/./include/trace/events/timer.h:228
     b00:	a9425bf5 	ldp	x21, x22, [sp, #32]
     b04:	a8c57bfd 	ldp	x29, x30, [sp], #80
     b08:	d65f03c0 	ret
     b0c:	a94153b3 	ldp	x19, x20, [x29, #16]
     b10:	a9425bf5 	ldp	x21, x22, [sp, #32]
     b14:	f9401bb7 	ldr	x23, [x29, #48]
     b18:	a8c57bfd 	ldp	x29, x30, [sp], #80
     b1c:	d65f03c0 	ret

0000000000000b20 <perf_trace_hrtimer_class>:
perf_trace_hrtimer_class():
/data3/home/yuanqiliang/code/arm-kernel/./include/trace/events/timer.h:250

	TP_printk("hrtimer=%p function=%pf now=%llu", __entry->hrtimer, __entry->function,
		  (unsigned long long) __entry->now)
);

DECLARE_EVENT_CLASS(hrtimer_class,
     b20:	a9bc7bfd 	stp	x29, x30, [sp, #-64]!
     b24:	910003fd 	mov	x29, sp
     b28:	a9025bf5 	stp	x21, x22, [sp, #32]
__my_cpu_offset():
/data3/home/yuanqiliang/code/arm-kernel/./arch/arm64/include/asm/percpu.h:30
     b2c:	d538d083 	mrs	x3, tpidr_el1
__read_once_size():
/data3/home/yuanqiliang/code/arm-kernel/./include/linux/compiler.h:193
     b30:	f9404004 	ldr	x4, [x0, #128]
perf_trace_hrtimer_class():
/data3/home/yuanqiliang/code/arm-kernel/./include/trace/events/timer.h:250
     b34:	f9403c02 	ldr	x2, [x0, #120]
     b38:	8b030056 	add	x22, x2, x3
     b3c:	b5000064 	cbnz	x4, b48 <perf_trace_hrtimer_class+0x28>
__read_once_size():
/data3/home/yuanqiliang/code/arm-kernel/./include/linux/compiler.h:193
     b40:	f8636842 	ldr	x2, [x2, x3]
perf_trace_hrtimer_class():
/data3/home/yuanqiliang/code/arm-kernel/./include/trace/events/timer.h:250
     b44:	b4000342 	cbz	x2, bac <perf_trace_hrtimer_class+0x8c>
/data3/home/yuanqiliang/code/arm-kernel/./include/trace/events/timer.h:250 (discriminator 8)
     b48:	aa1e03f5 	mov	x21, x30
     b4c:	9100d3a2 	add	x2, x29, #0x34
     b50:	a90153b3 	stp	x19, x20, [x29, #16]
     b54:	aa0103f4 	mov	x20, x1
     b58:	aa0003f3 	mov	x19, x0
     b5c:	9100e3a1 	add	x1, x29, #0x38
     b60:	52800280 	mov	w0, #0x14                  	// #20
     b64:	94000000 	bl	0 <perf_trace_buf_alloc>
     b68:	b4000280 	cbz	x0, bb8 <perf_trace_hrtimer_class+0x98>
/data3/home/yuanqiliang/code/arm-kernel/./include/trace/events/timer.h:250 (discriminator 11)
     b6c:	f9401fa4 	ldr	x4, [x29, #56]
perf_fetch_caller_regs():
/data3/home/yuanqiliang/code/arm-kernel/./include/linux/perf_event.h:1067 (discriminator 11)
     b70:	910003e3 	mov	x3, sp
perf_trace_hrtimer_class():
/data3/home/yuanqiliang/code/arm-kernel/./include/trace/events/timer.h:250 (discriminator 11)
     b74:	b94037a2 	ldr	w2, [x29, #52]
perf_fetch_caller_regs():
/data3/home/yuanqiliang/code/arm-kernel/./include/linux/perf_event.h:1067 (discriminator 11)
     b78:	d28000a8 	mov	x8, #0x5                   	// #5
perf_trace_hrtimer_class():
/data3/home/yuanqiliang/code/arm-kernel/./include/trace/events/timer.h:250 (discriminator 11)
     b7c:	aa0403e5 	mov	x5, x4
     b80:	aa1603e6 	mov	x6, x22
perf_fetch_caller_regs():
/data3/home/yuanqiliang/code/arm-kernel/./include/linux/perf_event.h:1067 (discriminator 11)
     b84:	f900749d 	str	x29, [x4, #232]
perf_trace_hrtimer_class():
/data3/home/yuanqiliang/code/arm-kernel/./include/trace/events/timer.h:250 (discriminator 11)
     b88:	d2800007 	mov	x7, #0x0                   	// #0
perf_fetch_caller_regs():
/data3/home/yuanqiliang/code/arm-kernel/./include/linux/perf_event.h:1067 (discriminator 11)
     b8c:	a90fd483 	stp	x3, x21, [x4, #248]
perf_trace_hrtimer_class():
/data3/home/yuanqiliang/code/arm-kernel/./include/trace/events/timer.h:250 (discriminator 11)
     b90:	52800281 	mov	w1, #0x14                  	// #20
     b94:	aa1303e3 	mov	x3, x19
perf_fetch_caller_regs():
/data3/home/yuanqiliang/code/arm-kernel/./include/linux/perf_event.h:1067 (discriminator 11)
     b98:	f9008488 	str	x8, [x4, #264]
perf_trace_hrtimer_class():
/data3/home/yuanqiliang/code/arm-kernel/./include/trace/events/timer.h:250 (discriminator 11)
     b9c:	d2800024 	mov	x4, #0x1                   	// #1
     ba0:	f9000414 	str	x20, [x0, #8]
     ba4:	94000000 	bl	0 <perf_trace_run_bpf_submit>
     ba8:	a94153b3 	ldp	x19, x20, [x29, #16]
/data3/home/yuanqiliang/code/arm-kernel/./include/trace/events/timer.h:250
     bac:	a9425bf5 	ldp	x21, x22, [sp, #32]
     bb0:	a8c47bfd 	ldp	x29, x30, [sp], #64
     bb4:	d65f03c0 	ret
     bb8:	a94153b3 	ldp	x19, x20, [x29, #16]
     bbc:	a9425bf5 	ldp	x21, x22, [sp, #32]
     bc0:	a8c47bfd 	ldp	x29, x30, [sp], #64
     bc4:	d65f03c0 	ret

0000000000000bc8 <perf_trace_itimer_state>:
perf_trace_itimer_state():
/data3/home/yuanqiliang/code/arm-kernel/./include/trace/events/timer.h:299
 * @which:	name of the interval timer
 * @value:	the itimers value, itimer is canceled if value->it_value is
 *		zero, otherwise it is started
 * @expires:	the itimers expiry time
 */
TRACE_EVENT(itimer_state,
     bc8:	a9bb7bfd 	stp	x29, x30, [sp, #-80]!
     bcc:	910003fd 	mov	x29, sp
     bd0:	a90363f7 	stp	x23, x24, [sp, #48]
__my_cpu_offset():
/data3/home/yuanqiliang/code/arm-kernel/./arch/arm64/include/asm/percpu.h:30
     bd4:	d538d085 	mrs	x5, tpidr_el1
__read_once_size():
/data3/home/yuanqiliang/code/arm-kernel/./include/linux/compiler.h:193
     bd8:	f9404006 	ldr	x6, [x0, #128]
perf_trace_itimer_state():
/data3/home/yuanqiliang/code/arm-kernel/./include/trace/events/timer.h:299
     bdc:	f9403c04 	ldr	x4, [x0, #120]
     be0:	8b050097 	add	x23, x4, x5
     be4:	b5000066 	cbnz	x6, bf0 <perf_trace_itimer_state+0x28>
__read_once_size():
/data3/home/yuanqiliang/code/arm-kernel/./include/linux/compiler.h:193
     be8:	f8656884 	ldr	x4, [x4, x5]
perf_trace_itimer_state():
/data3/home/yuanqiliang/code/arm-kernel/./include/trace/events/timer.h:299
     bec:	b40004e4 	cbz	x4, c88 <perf_trace_itimer_state+0xc0>
/data3/home/yuanqiliang/code/arm-kernel/./include/trace/events/timer.h:299 (discriminator 8)
     bf0:	2a0103f8 	mov	w24, w1
     bf4:	910123a1 	add	x1, x29, #0x48
     bf8:	a90153b3 	stp	x19, x20, [x29, #16]
     bfc:	aa0203f4 	mov	x20, x2
     c00:	aa0003f3 	mov	x19, x0
     c04:	910113a2 	add	x2, x29, #0x44
     c08:	52800780 	mov	w0, #0x3c                  	// #60
     c0c:	a9025bb5 	stp	x21, x22, [x29, #32]
     c10:	aa0303f5 	mov	x21, x3
     c14:	aa1e03f6 	mov	x22, x30
     c18:	94000000 	bl	0 <perf_trace_buf_alloc>
     c1c:	b40003c0 	cbz	x0, c94 <perf_trace_itimer_state+0xcc>
/data3/home/yuanqiliang/code/arm-kernel/./include/trace/events/timer.h:299 (discriminator 11)
     c20:	f94027a4 	ldr	x4, [x29, #72]
perf_fetch_caller_regs():
/data3/home/yuanqiliang/code/arm-kernel/./include/linux/perf_event.h:1067 (discriminator 11)
     c24:	910003e3 	mov	x3, sp
     c28:	d28000a1 	mov	x1, #0x5                   	// #5
perf_trace_itimer_state():
/data3/home/yuanqiliang/code/arm-kernel/./include/trace/events/timer.h:299 (discriminator 11)
     c2c:	b94047a2 	ldr	w2, [x29, #68]
     c30:	aa0403e5 	mov	x5, x4
     c34:	aa1703e6 	mov	x6, x23
perf_fetch_caller_regs():
/data3/home/yuanqiliang/code/arm-kernel/./include/linux/perf_event.h:1067 (discriminator 11)
     c38:	f900749d 	str	x29, [x4, #232]
perf_trace_itimer_state():
/data3/home/yuanqiliang/code/arm-kernel/./include/trace/events/timer.h:299 (discriminator 11)
     c3c:	d2800007 	mov	x7, #0x0                   	// #0
perf_fetch_caller_regs():
/data3/home/yuanqiliang/code/arm-kernel/./include/linux/perf_event.h:1067 (discriminator 11)
     c40:	a90fd883 	stp	x3, x22, [x4, #248]
perf_trace_itimer_state():
/data3/home/yuanqiliang/code/arm-kernel/./include/trace/events/timer.h:299 (discriminator 11)
     c44:	aa1303e3 	mov	x3, x19
perf_fetch_caller_regs():
/data3/home/yuanqiliang/code/arm-kernel/./include/linux/perf_event.h:1067 (discriminator 11)
     c48:	f9008481 	str	x1, [x4, #264]
perf_trace_itimer_state():
/data3/home/yuanqiliang/code/arm-kernel/./include/trace/events/timer.h:299 (discriminator 11)
     c4c:	d2800024 	mov	x4, #0x1                   	// #1
     c50:	b9000818 	str	w24, [x0, #8]
     c54:	52800781 	mov	w1, #0x3c                  	// #60
     c58:	f9000815 	str	x21, [x0, #16]
     c5c:	f9400a89 	ldr	x9, [x20, #16]
     c60:	f9000c09 	str	x9, [x0, #24]
     c64:	f9400e89 	ldr	x9, [x20, #24]
     c68:	f9001009 	str	x9, [x0, #32]
     c6c:	f9400289 	ldr	x9, [x20]
     c70:	f9001409 	str	x9, [x0, #40]
     c74:	f9400689 	ldr	x9, [x20, #8]
     c78:	f9001809 	str	x9, [x0, #48]
     c7c:	94000000 	bl	0 <perf_trace_run_bpf_submit>
     c80:	a94153b3 	ldp	x19, x20, [x29, #16]
     c84:	a9425bb5 	ldp	x21, x22, [x29, #32]
/data3/home/yuanqiliang/code/arm-kernel/./include/trace/events/timer.h:299
     c88:	a94363f7 	ldp	x23, x24, [sp, #48]
     c8c:	a8c57bfd 	ldp	x29, x30, [sp], #80
     c90:	d65f03c0 	ret
     c94:	a94153b3 	ldp	x19, x20, [x29, #16]
     c98:	a9425bb5 	ldp	x21, x22, [x29, #32]
     c9c:	a94363f7 	ldp	x23, x24, [sp, #48]
     ca0:	a8c57bfd 	ldp	x29, x30, [sp], #80
     ca4:	d65f03c0 	ret

0000000000000ca8 <perf_trace_itimer_expire>:
perf_trace_itimer_expire():
/data3/home/yuanqiliang/code/arm-kernel/./include/trace/events/timer.h:336
 * itimer_expire - called when itimer expires
 * @which:	type of the interval timer
 * @pid:	pid of the process which owns the timer
 * @now:	current time, used to calculate the latency of itimer
 */
TRACE_EVENT(itimer_expire,
     ca8:	a9bb7bfd 	stp	x29, x30, [sp, #-80]!
     cac:	910003fd 	mov	x29, sp
     cb0:	a90363f7 	stp	x23, x24, [sp, #48]
__my_cpu_offset():
/data3/home/yuanqiliang/code/arm-kernel/./arch/arm64/include/asm/percpu.h:30
     cb4:	d538d085 	mrs	x5, tpidr_el1
__read_once_size():
/data3/home/yuanqiliang/code/arm-kernel/./include/linux/compiler.h:193
     cb8:	f9404007 	ldr	x7, [x0, #128]
perf_trace_itimer_expire():
/data3/home/yuanqiliang/code/arm-kernel/./include/trace/events/timer.h:336
     cbc:	f9403c04 	ldr	x4, [x0, #120]
     cc0:	8b050098 	add	x24, x4, x5
     cc4:	b5000067 	cbnz	x7, cd0 <perf_trace_itimer_expire+0x28>
__read_once_size():
/data3/home/yuanqiliang/code/arm-kernel/./include/linux/compiler.h:193
     cc8:	f8656884 	ldr	x4, [x4, x5]
perf_trace_itimer_expire():
/data3/home/yuanqiliang/code/arm-kernel/./include/trace/events/timer.h:336
     ccc:	b4000444 	cbz	x4, d54 <perf_trace_itimer_expire+0xac>
/data3/home/yuanqiliang/code/arm-kernel/./include/trace/events/timer.h:336 (discriminator 8)
     cd0:	2a0103f7 	mov	w23, w1
     cd4:	910123a1 	add	x1, x29, #0x48
     cd8:	a90153b3 	stp	x19, x20, [x29, #16]
     cdc:	aa0203f4 	mov	x20, x2
     ce0:	aa0003f3 	mov	x19, x0
     ce4:	910113a2 	add	x2, x29, #0x44
     ce8:	52800380 	mov	w0, #0x1c                  	// #28
     cec:	a9025bb5 	stp	x21, x22, [x29, #32]
     cf0:	aa0303f5 	mov	x21, x3
     cf4:	aa1e03f6 	mov	x22, x30
     cf8:	94000000 	bl	0 <perf_trace_buf_alloc>
     cfc:	b4000320 	cbz	x0, d60 <perf_trace_itimer_expire+0xb8>
/data3/home/yuanqiliang/code/arm-kernel/./include/trace/events/timer.h:336 (discriminator 11)
     d00:	f94027a5 	ldr	x5, [x29, #72]
perf_fetch_caller_regs():
/data3/home/yuanqiliang/code/arm-kernel/./include/linux/perf_event.h:1067 (discriminator 11)
     d04:	d28000a2 	mov	x2, #0x5                   	// #5
     d08:	910003e3 	mov	x3, sp
pid_nr():
/data3/home/yuanqiliang/code/arm-kernel/./include/linux/pid.h:160 (discriminator 11)
 * see also task_xid_nr() etc in include/linux/sched.h
 */

static inline pid_t pid_nr(struct pid *pid)
{
	pid_t nr = 0;
     d0c:	52800001 	mov	w1, #0x0                   	// #0
perf_fetch_caller_regs():
/data3/home/yuanqiliang/code/arm-kernel/./include/linux/perf_event.h:1067 (discriminator 11)
     d10:	f90074bd 	str	x29, [x5, #232]
     d14:	a90fd8a3 	stp	x3, x22, [x5, #248]
     d18:	f90084a2 	str	x2, [x5, #264]
perf_trace_itimer_expire():
/data3/home/yuanqiliang/code/arm-kernel/./include/trace/events/timer.h:336 (discriminator 11)
     d1c:	b9000817 	str	w23, [x0, #8]
     d20:	f9000815 	str	x21, [x0, #16]
pid_nr():
/data3/home/yuanqiliang/code/arm-kernel/./include/linux/pid.h:161 (discriminator 11)
	if (pid)
     d24:	b4000054 	cbz	x20, d2c <perf_trace_itimer_expire+0x84>
/data3/home/yuanqiliang/code/arm-kernel/./include/linux/pid.h:162
		nr = pid->numbers[0].nr;
     d28:	b9403a81 	ldr	w1, [x20, #56]
perf_trace_itimer_expire():
/data3/home/yuanqiliang/code/arm-kernel/./include/trace/events/timer.h:336
     d2c:	b94047a2 	ldr	w2, [x29, #68]
     d30:	aa1303e3 	mov	x3, x19
     d34:	b9000c01 	str	w1, [x0, #12]
     d38:	aa1803e6 	mov	x6, x24
     d3c:	d2800007 	mov	x7, #0x0                   	// #0
     d40:	d2800024 	mov	x4, #0x1                   	// #1
     d44:	52800381 	mov	w1, #0x1c                  	// #28
     d48:	94000000 	bl	0 <perf_trace_run_bpf_submit>
     d4c:	a94153b3 	ldp	x19, x20, [x29, #16]
     d50:	a9425bb5 	ldp	x21, x22, [x29, #32]
     d54:	a94363f7 	ldp	x23, x24, [sp, #48]
     d58:	a8c57bfd 	ldp	x29, x30, [sp], #80
     d5c:	d65f03c0 	ret
     d60:	a94153b3 	ldp	x19, x20, [x29, #16]
     d64:	a9425bb5 	ldp	x21, x22, [x29, #32]
     d68:	a94363f7 	ldp	x23, x24, [sp, #48]
     d6c:	a8c57bfd 	ldp	x29, x30, [sp], #80
     d70:	d65f03c0 	ret
     d74:	d503201f 	nop

0000000000000d78 <perf_trace_tick_stop>:
perf_trace_tick_stop():
/data3/home/yuanqiliang/code/arm-kernel/./include/trace/events/timer.h:392
#define tick_dep_name_end(sdep) { TICK_DEP_MASK_##sdep, #sdep }

#define show_tick_dep_name(val)				\
	__print_symbolic(val, TICK_DEP_NAMES)

TRACE_EVENT(tick_stop,
     d78:	a9bb7bfd 	stp	x29, x30, [sp, #-80]!
     d7c:	910003fd 	mov	x29, sp
     d80:	a9025bf5 	stp	x21, x22, [sp, #32]
__my_cpu_offset():
/data3/home/yuanqiliang/code/arm-kernel/./arch/arm64/include/asm/percpu.h:30
     d84:	d538d083 	mrs	x3, tpidr_el1
__read_once_size():
/data3/home/yuanqiliang/code/arm-kernel/./include/linux/compiler.h:193
     d88:	f9404005 	ldr	x5, [x0, #128]
perf_trace_tick_stop():
/data3/home/yuanqiliang/code/arm-kernel/./include/trace/events/timer.h:392
     d8c:	f9403c04 	ldr	x4, [x0, #120]
     d90:	8b030096 	add	x22, x4, x3
     d94:	b5000065 	cbnz	x5, da0 <perf_trace_tick_stop+0x28>
__read_once_size():
/data3/home/yuanqiliang/code/arm-kernel/./include/linux/compiler.h:193
     d98:	f8636883 	ldr	x3, [x4, x3]
perf_trace_tick_stop():
/data3/home/yuanqiliang/code/arm-kernel/./include/trace/events/timer.h:392
     d9c:	b40003a3 	cbz	x3, e10 <perf_trace_tick_stop+0x98>
/data3/home/yuanqiliang/code/arm-kernel/./include/trace/events/timer.h:392 (discriminator 8)
     da0:	aa1e03f5 	mov	x21, x30
     da4:	a90153b3 	stp	x19, x20, [x29, #16]
     da8:	2a0103f4 	mov	w20, w1
     dac:	aa0003f3 	mov	x19, x0
     db0:	910123a1 	add	x1, x29, #0x48
     db4:	52800280 	mov	w0, #0x14                  	// #20
     db8:	f9001bb7 	str	x23, [x29, #48]
     dbc:	2a0203f7 	mov	w23, w2
     dc0:	910113a2 	add	x2, x29, #0x44
     dc4:	94000000 	bl	0 <perf_trace_buf_alloc>
     dc8:	b40002a0 	cbz	x0, e1c <perf_trace_tick_stop+0xa4>
/data3/home/yuanqiliang/code/arm-kernel/./include/trace/events/timer.h:392 (discriminator 11)
     dcc:	f94027a4 	ldr	x4, [x29, #72]
perf_fetch_caller_regs():
/data3/home/yuanqiliang/code/arm-kernel/./include/linux/perf_event.h:1067 (discriminator 11)
     dd0:	910003e3 	mov	x3, sp
perf_trace_tick_stop():
/data3/home/yuanqiliang/code/arm-kernel/./include/trace/events/timer.h:392 (discriminator 11)
     dd4:	b94047a2 	ldr	w2, [x29, #68]
perf_fetch_caller_regs():
/data3/home/yuanqiliang/code/arm-kernel/./include/linux/perf_event.h:1067 (discriminator 11)
     dd8:	d28000a1 	mov	x1, #0x5                   	// #5
perf_trace_tick_stop():
/data3/home/yuanqiliang/code/arm-kernel/./include/trace/events/timer.h:392 (discriminator 11)
     ddc:	aa0403e5 	mov	x5, x4
     de0:	aa1603e6 	mov	x6, x22
perf_fetch_caller_regs():
/data3/home/yuanqiliang/code/arm-kernel/./include/linux/perf_event.h:1067 (discriminator 11)
     de4:	f900749d 	str	x29, [x4, #232]
perf_trace_tick_stop():
/data3/home/yuanqiliang/code/arm-kernel/./include/trace/events/timer.h:392 (discriminator 11)
     de8:	d2800007 	mov	x7, #0x0                   	// #0
perf_fetch_caller_regs():
/data3/home/yuanqiliang/code/arm-kernel/./include/linux/perf_event.h:1067 (discriminator 11)
     dec:	a90fd483 	stp	x3, x21, [x4, #248]
perf_trace_tick_stop():
/data3/home/yuanqiliang/code/arm-kernel/./include/trace/events/timer.h:392 (discriminator 11)
     df0:	aa1303e3 	mov	x3, x19
perf_fetch_caller_regs():
/data3/home/yuanqiliang/code/arm-kernel/./include/linux/perf_event.h:1067 (discriminator 11)
     df4:	f9008481 	str	x1, [x4, #264]
perf_trace_tick_stop():
/data3/home/yuanqiliang/code/arm-kernel/./include/trace/events/timer.h:392 (discriminator 11)
     df8:	d2800024 	mov	x4, #0x1                   	// #1
     dfc:	29015c14 	stp	w20, w23, [x0, #8]
     e00:	52800281 	mov	w1, #0x14                  	// #20
     e04:	94000000 	bl	0 <perf_trace_run_bpf_submit>
     e08:	a94153b3 	ldp	x19, x20, [x29, #16]
     e0c:	f9401bb7 	ldr	x23, [x29, #48]
/data3/home/yuanqiliang/code/arm-kernel/./include/trace/events/timer.h:392
     e10:	a9425bf5 	ldp	x21, x22, [sp, #32]
     e14:	a8c57bfd 	ldp	x29, x30, [sp], #80
     e18:	d65f03c0 	ret
     e1c:	a94153b3 	ldp	x19, x20, [x29, #16]
     e20:	a9425bf5 	ldp	x21, x22, [sp, #32]
     e24:	f9401bb7 	ldr	x23, [x29, #48]
     e28:	a8c57bfd 	ldp	x29, x30, [sp], #80
     e2c:	d65f03c0 	ret

0000000000000e30 <trace_event_raw_event_timer_class>:
trace_event_raw_event_timer_class():
/data3/home/yuanqiliang/code/arm-kernel/./include/trace/events/timer.h:12
DECLARE_EVENT_CLASS(timer_class,
     e30:	a9ba7bfd 	stp	x29, x30, [sp, #-96]!
     e34:	910003fd 	mov	x29, sp
     e38:	a90153f3 	stp	x19, x20, [sp, #16]
     e3c:	aa0003f4 	mov	x20, x0
     e40:	f90013f5 	str	x21, [sp, #32]
     e44:	aa0103f5 	mov	x21, x1
trace_trigger_soft_disabled():
/data3/home/yuanqiliang/code/arm-kernel/./include/linux/trace_events.h:454
 * otherwise false.
 */
static inline bool
trace_trigger_soft_disabled(struct trace_event_file *file)
{
	unsigned long eflags = file->flags;
     e48:	f9402413 	ldr	x19, [x0, #72]
/data3/home/yuanqiliang/code/arm-kernel/./include/linux/trace_events.h:456

	if (!(eflags & EVENT_FILE_FL_TRIGGER_COND)) {
     e4c:	37400093 	tbnz	w19, #8, e5c <trace_event_raw_event_timer_class+0x2c>
/data3/home/yuanqiliang/code/arm-kernel/./include/linux/trace_events.h:457
		if (eflags & EVENT_FILE_FL_TRIGGER_MODE)
     e50:	373801f3 	tbnz	w19, #7, e8c <trace_event_raw_event_timer_class+0x5c>
/data3/home/yuanqiliang/code/arm-kernel/./include/linux/trace_events.h:459
			event_triggers_call(file, NULL, NULL);
		if (eflags & EVENT_FILE_FL_SOFT_DISABLED)
     e54:	37300153 	tbnz	w19, #6, e7c <trace_event_raw_event_timer_class+0x4c>
/data3/home/yuanqiliang/code/arm-kernel/./include/linux/trace_events.h:461
			return true;
		if (eflags & EVENT_FILE_FL_PID_FILTER)
     e58:	37480233 	tbnz	w19, #9, e9c <trace_event_raw_event_timer_class+0x6c>
trace_event_raw_event_timer_class():
/data3/home/yuanqiliang/code/arm-kernel/./include/trace/events/timer.h:12
     e5c:	aa1403e1 	mov	x1, x20
     e60:	9100c3e0 	add	x0, sp, #0x30
     e64:	d2800202 	mov	x2, #0x10                  	// #16
     e68:	94000000 	bl	0 <trace_event_buffer_reserve>
     e6c:	b4000080 	cbz	x0, e7c <trace_event_raw_event_timer_class+0x4c>
/data3/home/yuanqiliang/code/arm-kernel/./include/trace/events/timer.h:12 (discriminator 5)
     e70:	f9000415 	str	x21, [x0, #8]
     e74:	9100c3e0 	add	x0, sp, #0x30
     e78:	94000000 	bl	0 <trace_event_buffer_commit>
/data3/home/yuanqiliang/code/arm-kernel/./include/trace/events/timer.h:12
     e7c:	a94153f3 	ldp	x19, x20, [sp, #16]
     e80:	f94013f5 	ldr	x21, [sp, #32]
     e84:	a8c67bfd 	ldp	x29, x30, [sp], #96
     e88:	d65f03c0 	ret
trace_trigger_soft_disabled():
/data3/home/yuanqiliang/code/arm-kernel/./include/linux/trace_events.h:458
			event_triggers_call(file, NULL, NULL);
     e8c:	d2800002 	mov	x2, #0x0                   	// #0
     e90:	d2800001 	mov	x1, #0x0                   	// #0
     e94:	94000000 	bl	0 <event_triggers_call>
     e98:	17ffffef 	b	e54 <trace_event_raw_event_timer_class+0x24>
/data3/home/yuanqiliang/code/arm-kernel/./include/linux/trace_events.h:462
			return trace_event_ignore_this_pid(file);
     e9c:	aa1403e0 	mov	x0, x20
     ea0:	94000000 	bl	0 <trace_event_ignore_this_pid>
trace_event_raw_event_timer_class():
/data3/home/yuanqiliang/code/arm-kernel/./include/trace/events/timer.h:12
     ea4:	72001c1f 	tst	w0, #0xff
     ea8:	54fffda0 	b.eq	e5c <trace_event_raw_event_timer_class+0x2c>  // b.none
     eac:	17fffff4 	b	e7c <trace_event_raw_event_timer_class+0x4c>

0000000000000eb0 <trace_event_raw_event_timer_start>:
trace_event_raw_event_timer_start():
/data3/home/yuanqiliang/code/arm-kernel/./include/trace/events/timer.h:52
TRACE_EVENT(timer_start,
     eb0:	a9b97bfd 	stp	x29, x30, [sp, #-112]!
     eb4:	910003fd 	mov	x29, sp
     eb8:	a90153f3 	stp	x19, x20, [sp, #16]
     ebc:	aa0003f4 	mov	x20, x0
     ec0:	a9025bf5 	stp	x21, x22, [sp, #32]
     ec4:	aa0103f5 	mov	x21, x1
     ec8:	2a0303f6 	mov	w22, w3
     ecc:	f9001bf7 	str	x23, [sp, #48]
     ed0:	aa0203f7 	mov	x23, x2
trace_trigger_soft_disabled():
/data3/home/yuanqiliang/code/arm-kernel/./include/linux/trace_events.h:454
	unsigned long eflags = file->flags;
     ed4:	f9402413 	ldr	x19, [x0, #72]
/data3/home/yuanqiliang/code/arm-kernel/./include/linux/trace_events.h:456
	if (!(eflags & EVENT_FILE_FL_TRIGGER_COND)) {
     ed8:	37400093 	tbnz	w19, #8, ee8 <trace_event_raw_event_timer_start+0x38>
/data3/home/yuanqiliang/code/arm-kernel/./include/linux/trace_events.h:457
		if (eflags & EVENT_FILE_FL_TRIGGER_MODE)
     edc:	373802f3 	tbnz	w19, #7, f38 <trace_event_raw_event_timer_start+0x88>
/data3/home/yuanqiliang/code/arm-kernel/./include/linux/trace_events.h:459
		if (eflags & EVENT_FILE_FL_SOFT_DISABLED)
     ee0:	37300233 	tbnz	w19, #6, f24 <trace_event_raw_event_timer_start+0x74>
/data3/home/yuanqiliang/code/arm-kernel/./include/linux/trace_events.h:461
		if (eflags & EVENT_FILE_FL_PID_FILTER)
     ee4:	37480333 	tbnz	w19, #9, f48 <trace_event_raw_event_timer_start+0x98>
trace_event_raw_event_timer_start():
/data3/home/yuanqiliang/code/arm-kernel/./include/trace/events/timer.h:52
     ee8:	aa1403e1 	mov	x1, x20
     eec:	910103e0 	add	x0, sp, #0x40
     ef0:	d2800602 	mov	x2, #0x30                  	// #48
     ef4:	94000000 	bl	0 <trace_event_buffer_reserve>
     ef8:	aa0003e1 	mov	x1, x0
     efc:	b4000140 	cbz	x0, f24 <trace_event_raw_event_timer_start+0x74>
/data3/home/yuanqiliang/code/arm-kernel/./include/trace/events/timer.h:52 (discriminator 5)
     f00:	90000002 	adrp	x2, 0 <jiffies>
     f04:	f9000435 	str	x21, [x1, #8]
     f08:	910103e0 	add	x0, sp, #0x40
     f0c:	f9400042 	ldr	x2, [x2]
     f10:	f9400ea3 	ldr	x3, [x21, #24]
     f14:	a9015c23 	stp	x3, x23, [x1, #16]
     f18:	f9001022 	str	x2, [x1, #32]
     f1c:	b9002836 	str	w22, [x1, #40]
     f20:	94000000 	bl	0 <trace_event_buffer_commit>
/data3/home/yuanqiliang/code/arm-kernel/./include/trace/events/timer.h:52
     f24:	a94153f3 	ldp	x19, x20, [sp, #16]
     f28:	a9425bf5 	ldp	x21, x22, [sp, #32]
     f2c:	f9401bf7 	ldr	x23, [sp, #48]
     f30:	a8c77bfd 	ldp	x29, x30, [sp], #112
     f34:	d65f03c0 	ret
trace_trigger_soft_disabled():
/data3/home/yuanqiliang/code/arm-kernel/./include/linux/trace_events.h:458
			event_triggers_call(file, NULL, NULL);
     f38:	d2800002 	mov	x2, #0x0                   	// #0
     f3c:	d2800001 	mov	x1, #0x0                   	// #0
     f40:	94000000 	bl	0 <event_triggers_call>
     f44:	17ffffe7 	b	ee0 <trace_event_raw_event_timer_start+0x30>
/data3/home/yuanqiliang/code/arm-kernel/./include/linux/trace_events.h:462
			return trace_event_ignore_this_pid(file);
     f48:	aa1403e0 	mov	x0, x20
     f4c:	94000000 	bl	0 <trace_event_ignore_this_pid>
trace_event_raw_event_timer_start():
/data3/home/yuanqiliang/code/arm-kernel/./include/trace/events/timer.h:52
     f50:	72001c1f 	tst	w0, #0xff
     f54:	54fffca0 	b.eq	ee8 <trace_event_raw_event_timer_start+0x38>  // b.none
     f58:	17fffff3 	b	f24 <trace_event_raw_event_timer_start+0x74>
     f5c:	d503201f 	nop

0000000000000f60 <trace_event_raw_event_timer_expire_entry>:
trace_event_raw_event_timer_expire_entry():
/data3/home/yuanqiliang/code/arm-kernel/./include/trace/events/timer.h:90
TRACE_EVENT(timer_expire_entry,
     f60:	a9ba7bfd 	stp	x29, x30, [sp, #-96]!
     f64:	910003fd 	mov	x29, sp
     f68:	a90153f3 	stp	x19, x20, [sp, #16]
     f6c:	aa0003f4 	mov	x20, x0
     f70:	f90013f5 	str	x21, [sp, #32]
     f74:	aa0103f5 	mov	x21, x1
trace_trigger_soft_disabled():
/data3/home/yuanqiliang/code/arm-kernel/./include/linux/trace_events.h:454
	unsigned long eflags = file->flags;
     f78:	f9402413 	ldr	x19, [x0, #72]
/data3/home/yuanqiliang/code/arm-kernel/./include/linux/trace_events.h:456
	if (!(eflags & EVENT_FILE_FL_TRIGGER_COND)) {
     f7c:	37400093 	tbnz	w19, #8, f8c <trace_event_raw_event_timer_expire_entry+0x2c>
/data3/home/yuanqiliang/code/arm-kernel/./include/linux/trace_events.h:457
		if (eflags & EVENT_FILE_FL_TRIGGER_MODE)
     f80:	37380293 	tbnz	w19, #7, fd0 <trace_event_raw_event_timer_expire_entry+0x70>
/data3/home/yuanqiliang/code/arm-kernel/./include/linux/trace_events.h:459
		if (eflags & EVENT_FILE_FL_SOFT_DISABLED)
     f84:	373001f3 	tbnz	w19, #6, fc0 <trace_event_raw_event_timer_expire_entry+0x60>
/data3/home/yuanqiliang/code/arm-kernel/./include/linux/trace_events.h:461
		if (eflags & EVENT_FILE_FL_PID_FILTER)
     f88:	374802d3 	tbnz	w19, #9, fe0 <trace_event_raw_event_timer_expire_entry+0x80>
trace_event_raw_event_timer_expire_entry():
/data3/home/yuanqiliang/code/arm-kernel/./include/trace/events/timer.h:90
     f8c:	aa1403e1 	mov	x1, x20
     f90:	9100c3e0 	add	x0, sp, #0x30
     f94:	d2800402 	mov	x2, #0x20                  	// #32
     f98:	94000000 	bl	0 <trace_event_buffer_reserve>
     f9c:	aa0003e1 	mov	x1, x0
     fa0:	b4000100 	cbz	x0, fc0 <trace_event_raw_event_timer_expire_entry+0x60>
/data3/home/yuanqiliang/code/arm-kernel/./include/trace/events/timer.h:90 (discriminator 5)
     fa4:	90000002 	adrp	x2, 0 <jiffies>
     fa8:	9100c3e0 	add	x0, sp, #0x30
     fac:	f9400042 	ldr	x2, [x2]
     fb0:	a9008835 	stp	x21, x2, [x1, #8]
     fb4:	f9400ea2 	ldr	x2, [x21, #24]
     fb8:	f9000c22 	str	x2, [x1, #24]
     fbc:	94000000 	bl	0 <trace_event_buffer_commit>
/data3/home/yuanqiliang/code/arm-kernel/./include/trace/events/timer.h:90
     fc0:	a94153f3 	ldp	x19, x20, [sp, #16]
     fc4:	f94013f5 	ldr	x21, [sp, #32]
     fc8:	a8c67bfd 	ldp	x29, x30, [sp], #96
     fcc:	d65f03c0 	ret
trace_trigger_soft_disabled():
/data3/home/yuanqiliang/code/arm-kernel/./include/linux/trace_events.h:458
			event_triggers_call(file, NULL, NULL);
     fd0:	d2800002 	mov	x2, #0x0                   	// #0
     fd4:	d2800001 	mov	x1, #0x0                   	// #0
     fd8:	94000000 	bl	0 <event_triggers_call>
     fdc:	17ffffea 	b	f84 <trace_event_raw_event_timer_expire_entry+0x24>
/data3/home/yuanqiliang/code/arm-kernel/./include/linux/trace_events.h:462
			return trace_event_ignore_this_pid(file);
     fe0:	aa1403e0 	mov	x0, x20
     fe4:	94000000 	bl	0 <trace_event_ignore_this_pid>
trace_event_raw_event_timer_expire_entry():
/data3/home/yuanqiliang/code/arm-kernel/./include/trace/events/timer.h:90
     fe8:	72001c1f 	tst	w0, #0xff
     fec:	54fffd00 	b.eq	f8c <trace_event_raw_event_timer_expire_entry+0x2c>  // b.none
     ff0:	17fffff4 	b	fc0 <trace_event_raw_event_timer_expire_entry+0x60>
     ff4:	d503201f 	nop

0000000000000ff8 <trace_event_raw_event_hrtimer_init>:
trace_event_raw_event_hrtimer_init():
/data3/home/yuanqiliang/code/arm-kernel/./include/trace/events/timer.h:163
TRACE_EVENT(hrtimer_init,
     ff8:	a9b97bfd 	stp	x29, x30, [sp, #-112]!
     ffc:	910003fd 	mov	x29, sp
    1000:	a90153f3 	stp	x19, x20, [sp, #16]
    1004:	aa0003f4 	mov	x20, x0
    1008:	a9025bf5 	stp	x21, x22, [sp, #32]
    100c:	2a0203f6 	mov	w22, w2
    1010:	2a0303f5 	mov	w21, w3
    1014:	f9001bf7 	str	x23, [sp, #48]
    1018:	aa0103f7 	mov	x23, x1
trace_trigger_soft_disabled():
/data3/home/yuanqiliang/code/arm-kernel/./include/linux/trace_events.h:454
	unsigned long eflags = file->flags;
    101c:	f9402413 	ldr	x19, [x0, #72]
/data3/home/yuanqiliang/code/arm-kernel/./include/linux/trace_events.h:456
	if (!(eflags & EVENT_FILE_FL_TRIGGER_COND)) {
    1020:	37400093 	tbnz	w19, #8, 1030 <trace_event_raw_event_hrtimer_init+0x38>
/data3/home/yuanqiliang/code/arm-kernel/./include/linux/trace_events.h:457
		if (eflags & EVENT_FILE_FL_TRIGGER_MODE)
    1024:	37380253 	tbnz	w19, #7, 106c <trace_event_raw_event_hrtimer_init+0x74>
/data3/home/yuanqiliang/code/arm-kernel/./include/linux/trace_events.h:459
		if (eflags & EVENT_FILE_FL_SOFT_DISABLED)
    1028:	37300193 	tbnz	w19, #6, 1058 <trace_event_raw_event_hrtimer_init+0x60>
/data3/home/yuanqiliang/code/arm-kernel/./include/linux/trace_events.h:461
		if (eflags & EVENT_FILE_FL_PID_FILTER)
    102c:	37480293 	tbnz	w19, #9, 107c <trace_event_raw_event_hrtimer_init+0x84>
trace_event_raw_event_hrtimer_init():
/data3/home/yuanqiliang/code/arm-kernel/./include/trace/events/timer.h:163
    1030:	aa1403e1 	mov	x1, x20
    1034:	910103e0 	add	x0, sp, #0x40
    1038:	d2800302 	mov	x2, #0x18                  	// #24
    103c:	94000000 	bl	0 <trace_event_buffer_reserve>
    1040:	aa0003e1 	mov	x1, x0
    1044:	b40000a0 	cbz	x0, 1058 <trace_event_raw_event_hrtimer_init+0x60>
/data3/home/yuanqiliang/code/arm-kernel/./include/trace/events/timer.h:163 (discriminator 5)
    1048:	f9000437 	str	x23, [x1, #8]
    104c:	910103e0 	add	x0, sp, #0x40
    1050:	29025436 	stp	w22, w21, [x1, #16]
    1054:	94000000 	bl	0 <trace_event_buffer_commit>
/data3/home/yuanqiliang/code/arm-kernel/./include/trace/events/timer.h:163
    1058:	a94153f3 	ldp	x19, x20, [sp, #16]
    105c:	a9425bf5 	ldp	x21, x22, [sp, #32]
    1060:	f9401bf7 	ldr	x23, [sp, #48]
    1064:	a8c77bfd 	ldp	x29, x30, [sp], #112
    1068:	d65f03c0 	ret
trace_trigger_soft_disabled():
/data3/home/yuanqiliang/code/arm-kernel/./include/linux/trace_events.h:458
			event_triggers_call(file, NULL, NULL);
    106c:	d2800002 	mov	x2, #0x0                   	// #0
    1070:	d2800001 	mov	x1, #0x0                   	// #0
    1074:	94000000 	bl	0 <event_triggers_call>
    1078:	17ffffec 	b	1028 <trace_event_raw_event_hrtimer_init+0x30>
/data3/home/yuanqiliang/code/arm-kernel/./include/linux/trace_events.h:462
			return trace_event_ignore_this_pid(file);
    107c:	aa1403e0 	mov	x0, x20
    1080:	94000000 	bl	0 <trace_event_ignore_this_pid>
trace_event_raw_event_hrtimer_init():
/data3/home/yuanqiliang/code/arm-kernel/./include/trace/events/timer.h:163
    1084:	72001c1f 	tst	w0, #0xff
    1088:	54fffd40 	b.eq	1030 <trace_event_raw_event_hrtimer_init+0x38>  // b.none
    108c:	17fffff3 	b	1058 <trace_event_raw_event_hrtimer_init+0x60>

0000000000001090 <trace_event_raw_event_hrtimer_start>:
trace_event_raw_event_hrtimer_start():
/data3/home/yuanqiliang/code/arm-kernel/./include/trace/events/timer.h:191
TRACE_EVENT(hrtimer_start,
    1090:	a9ba7bfd 	stp	x29, x30, [sp, #-96]!
    1094:	910003fd 	mov	x29, sp
    1098:	a90153f3 	stp	x19, x20, [sp, #16]
    109c:	aa0103f4 	mov	x20, x1
    10a0:	a9025bf5 	stp	x21, x22, [sp, #32]
    10a4:	aa0003f5 	mov	x21, x0
    10a8:	2a0203f6 	mov	w22, w2
trace_trigger_soft_disabled():
/data3/home/yuanqiliang/code/arm-kernel/./include/linux/trace_events.h:454
	unsigned long eflags = file->flags;
    10ac:	f9402413 	ldr	x19, [x0, #72]
/data3/home/yuanqiliang/code/arm-kernel/./include/linux/trace_events.h:456
	if (!(eflags & EVENT_FILE_FL_TRIGGER_COND)) {
    10b0:	37400093 	tbnz	w19, #8, 10c0 <trace_event_raw_event_hrtimer_start+0x30>
/data3/home/yuanqiliang/code/arm-kernel/./include/linux/trace_events.h:457
		if (eflags & EVENT_FILE_FL_TRIGGER_MODE)
    10b4:	373802f3 	tbnz	w19, #7, 1110 <trace_event_raw_event_hrtimer_start+0x80>
/data3/home/yuanqiliang/code/arm-kernel/./include/linux/trace_events.h:459
		if (eflags & EVENT_FILE_FL_SOFT_DISABLED)
    10b8:	37300253 	tbnz	w19, #6, 1100 <trace_event_raw_event_hrtimer_start+0x70>
/data3/home/yuanqiliang/code/arm-kernel/./include/linux/trace_events.h:461
		if (eflags & EVENT_FILE_FL_PID_FILTER)
    10bc:	37480333 	tbnz	w19, #9, 1120 <trace_event_raw_event_hrtimer_start+0x90>
trace_event_raw_event_hrtimer_start():
/data3/home/yuanqiliang/code/arm-kernel/./include/trace/events/timer.h:191
    10c0:	aa1503e1 	mov	x1, x21
    10c4:	9100c3e0 	add	x0, sp, #0x30
    10c8:	d2800602 	mov	x2, #0x30                  	// #48
    10cc:	94000000 	bl	0 <trace_event_buffer_reserve>
    10d0:	aa0003e1 	mov	x1, x0
    10d4:	b4000160 	cbz	x0, 1100 <trace_event_raw_event_hrtimer_start+0x70>
/data3/home/yuanqiliang/code/arm-kernel/./include/trace/events/timer.h:191 (discriminator 5)
    10d8:	f9000434 	str	x20, [x1, #8]
    10dc:	9100c3e0 	add	x0, sp, #0x30
    10e0:	f9401682 	ldr	x2, [x20, #40]
    10e4:	f9000822 	str	x2, [x1, #16]
hrtimer_get_expires():
/data3/home/yuanqiliang/code/arm-kernel/./include/linux/hrtimer.h:261 (discriminator 5)
	return timer->node.expires;
    10e8:	f9400e82 	ldr	x2, [x20, #24]
trace_event_raw_event_hrtimer_start():
/data3/home/yuanqiliang/code/arm-kernel/./include/trace/events/timer.h:191 (discriminator 5)
    10ec:	f9000c22 	str	x2, [x1, #24]
hrtimer_get_softexpires():
/data3/home/yuanqiliang/code/arm-kernel/./include/linux/hrtimer.h:266 (discriminator 5)
	return timer->_softexpires;
    10f0:	f9401282 	ldr	x2, [x20, #32]
trace_event_raw_event_hrtimer_start():
/data3/home/yuanqiliang/code/arm-kernel/./include/trace/events/timer.h:191 (discriminator 5)
    10f4:	f9001022 	str	x2, [x1, #32]
    10f8:	b9002836 	str	w22, [x1, #40]
    10fc:	94000000 	bl	0 <trace_event_buffer_commit>
/data3/home/yuanqiliang/code/arm-kernel/./include/trace/events/timer.h:191
    1100:	a94153f3 	ldp	x19, x20, [sp, #16]
    1104:	a9425bf5 	ldp	x21, x22, [sp, #32]
    1108:	a8c67bfd 	ldp	x29, x30, [sp], #96
    110c:	d65f03c0 	ret
trace_trigger_soft_disabled():
/data3/home/yuanqiliang/code/arm-kernel/./include/linux/trace_events.h:458
			event_triggers_call(file, NULL, NULL);
    1110:	d2800002 	mov	x2, #0x0                   	// #0
    1114:	d2800001 	mov	x1, #0x0                   	// #0
    1118:	94000000 	bl	0 <event_triggers_call>
    111c:	17ffffe7 	b	10b8 <trace_event_raw_event_hrtimer_start+0x28>
/data3/home/yuanqiliang/code/arm-kernel/./include/linux/trace_events.h:462
			return trace_event_ignore_this_pid(file);
    1120:	aa1503e0 	mov	x0, x21
    1124:	94000000 	bl	0 <trace_event_ignore_this_pid>
trace_event_raw_event_hrtimer_start():
/data3/home/yuanqiliang/code/arm-kernel/./include/trace/events/timer.h:191
    1128:	72001c1f 	tst	w0, #0xff
    112c:	54fffca0 	b.eq	10c0 <trace_event_raw_event_hrtimer_start+0x30>  // b.none
    1130:	17fffff4 	b	1100 <trace_event_raw_event_hrtimer_start+0x70>
    1134:	d503201f 	nop

0000000000001138 <trace_event_raw_event_hrtimer_expire_entry>:
trace_event_raw_event_hrtimer_expire_entry():
/data3/home/yuanqiliang/code/arm-kernel/./include/trace/events/timer.h:228
TRACE_EVENT(hrtimer_expire_entry,
    1138:	a9ba7bfd 	stp	x29, x30, [sp, #-96]!
    113c:	910003fd 	mov	x29, sp
    1140:	a90153f3 	stp	x19, x20, [sp, #16]
    1144:	aa0003f4 	mov	x20, x0
    1148:	a9025bf5 	stp	x21, x22, [sp, #32]
    114c:	aa0103f5 	mov	x21, x1
    1150:	aa0203f6 	mov	x22, x2
trace_trigger_soft_disabled():
/data3/home/yuanqiliang/code/arm-kernel/./include/linux/trace_events.h:454
	unsigned long eflags = file->flags;
    1154:	f9402413 	ldr	x19, [x0, #72]
/data3/home/yuanqiliang/code/arm-kernel/./include/linux/trace_events.h:456
	if (!(eflags & EVENT_FILE_FL_TRIGGER_COND)) {
    1158:	37400093 	tbnz	w19, #8, 1168 <trace_event_raw_event_hrtimer_expire_entry+0x30>
/data3/home/yuanqiliang/code/arm-kernel/./include/linux/trace_events.h:457
		if (eflags & EVENT_FILE_FL_TRIGGER_MODE)
    115c:	37380293 	tbnz	w19, #7, 11ac <trace_event_raw_event_hrtimer_expire_entry+0x74>
/data3/home/yuanqiliang/code/arm-kernel/./include/linux/trace_events.h:459
		if (eflags & EVENT_FILE_FL_SOFT_DISABLED)
    1160:	373001f3 	tbnz	w19, #6, 119c <trace_event_raw_event_hrtimer_expire_entry+0x64>
/data3/home/yuanqiliang/code/arm-kernel/./include/linux/trace_events.h:461
		if (eflags & EVENT_FILE_FL_PID_FILTER)
    1164:	374802d3 	tbnz	w19, #9, 11bc <trace_event_raw_event_hrtimer_expire_entry+0x84>
trace_event_raw_event_hrtimer_expire_entry():
/data3/home/yuanqiliang/code/arm-kernel/./include/trace/events/timer.h:228
    1168:	aa1403e1 	mov	x1, x20
    116c:	9100c3e0 	add	x0, sp, #0x30
    1170:	d2800402 	mov	x2, #0x20                  	// #32
    1174:	94000000 	bl	0 <trace_event_buffer_reserve>
    1178:	aa0003e1 	mov	x1, x0
    117c:	b4000100 	cbz	x0, 119c <trace_event_raw_event_hrtimer_expire_entry+0x64>
/data3/home/yuanqiliang/code/arm-kernel/./include/trace/events/timer.h:228 (discriminator 5)
    1180:	f9000435 	str	x21, [x1, #8]
    1184:	9100c3e0 	add	x0, sp, #0x30
    1188:	f94002c2 	ldr	x2, [x22]
    118c:	f9000822 	str	x2, [x1, #16]
    1190:	f94016a2 	ldr	x2, [x21, #40]
    1194:	f9000c22 	str	x2, [x1, #24]
    1198:	94000000 	bl	0 <trace_event_buffer_commit>
/data3/home/yuanqiliang/code/arm-kernel/./include/trace/events/timer.h:228
    119c:	a94153f3 	ldp	x19, x20, [sp, #16]
    11a0:	a9425bf5 	ldp	x21, x22, [sp, #32]
    11a4:	a8c67bfd 	ldp	x29, x30, [sp], #96
    11a8:	d65f03c0 	ret
trace_trigger_soft_disabled():
/data3/home/yuanqiliang/code/arm-kernel/./include/linux/trace_events.h:458
			event_triggers_call(file, NULL, NULL);
    11ac:	d2800002 	mov	x2, #0x0                   	// #0
    11b0:	d2800001 	mov	x1, #0x0                   	// #0
    11b4:	94000000 	bl	0 <event_triggers_call>
    11b8:	17ffffea 	b	1160 <trace_event_raw_event_hrtimer_expire_entry+0x28>
/data3/home/yuanqiliang/code/arm-kernel/./include/linux/trace_events.h:462
			return trace_event_ignore_this_pid(file);
    11bc:	aa1403e0 	mov	x0, x20
    11c0:	94000000 	bl	0 <trace_event_ignore_this_pid>
trace_event_raw_event_hrtimer_expire_entry():
/data3/home/yuanqiliang/code/arm-kernel/./include/trace/events/timer.h:228
    11c4:	72001c1f 	tst	w0, #0xff
    11c8:	54fffd00 	b.eq	1168 <trace_event_raw_event_hrtimer_expire_entry+0x30>  // b.none
    11cc:	17fffff4 	b	119c <trace_event_raw_event_hrtimer_expire_entry+0x64>

00000000000011d0 <trace_event_raw_event_hrtimer_class>:
trace_event_raw_event_hrtimer_class():
/data3/home/yuanqiliang/code/arm-kernel/./include/trace/events/timer.h:250
DECLARE_EVENT_CLASS(hrtimer_class,
    11d0:	a9ba7bfd 	stp	x29, x30, [sp, #-96]!
    11d4:	910003fd 	mov	x29, sp
    11d8:	a90153f3 	stp	x19, x20, [sp, #16]
    11dc:	aa0003f4 	mov	x20, x0
    11e0:	f90013f5 	str	x21, [sp, #32]
    11e4:	aa0103f5 	mov	x21, x1
trace_trigger_soft_disabled():
/data3/home/yuanqiliang/code/arm-kernel/./include/linux/trace_events.h:454
	unsigned long eflags = file->flags;
    11e8:	f9402413 	ldr	x19, [x0, #72]
/data3/home/yuanqiliang/code/arm-kernel/./include/linux/trace_events.h:456
	if (!(eflags & EVENT_FILE_FL_TRIGGER_COND)) {
    11ec:	37400093 	tbnz	w19, #8, 11fc <trace_event_raw_event_hrtimer_class+0x2c>
/data3/home/yuanqiliang/code/arm-kernel/./include/linux/trace_events.h:457
		if (eflags & EVENT_FILE_FL_TRIGGER_MODE)
    11f0:	373801f3 	tbnz	w19, #7, 122c <trace_event_raw_event_hrtimer_class+0x5c>
/data3/home/yuanqiliang/code/arm-kernel/./include/linux/trace_events.h:459
		if (eflags & EVENT_FILE_FL_SOFT_DISABLED)
    11f4:	37300153 	tbnz	w19, #6, 121c <trace_event_raw_event_hrtimer_class+0x4c>
/data3/home/yuanqiliang/code/arm-kernel/./include/linux/trace_events.h:461
		if (eflags & EVENT_FILE_FL_PID_FILTER)
    11f8:	37480233 	tbnz	w19, #9, 123c <trace_event_raw_event_hrtimer_class+0x6c>
trace_event_raw_event_hrtimer_class():
/data3/home/yuanqiliang/code/arm-kernel/./include/trace/events/timer.h:250
    11fc:	aa1403e1 	mov	x1, x20
    1200:	9100c3e0 	add	x0, sp, #0x30
    1204:	d2800202 	mov	x2, #0x10                  	// #16
    1208:	94000000 	bl	0 <trace_event_buffer_reserve>
    120c:	b4000080 	cbz	x0, 121c <trace_event_raw_event_hrtimer_class+0x4c>
/data3/home/yuanqiliang/code/arm-kernel/./include/trace/events/timer.h:250 (discriminator 5)
    1210:	f9000415 	str	x21, [x0, #8]
    1214:	9100c3e0 	add	x0, sp, #0x30
    1218:	94000000 	bl	0 <trace_event_buffer_commit>
/data3/home/yuanqiliang/code/arm-kernel/./include/trace/events/timer.h:250
    121c:	a94153f3 	ldp	x19, x20, [sp, #16]
    1220:	f94013f5 	ldr	x21, [sp, #32]
    1224:	a8c67bfd 	ldp	x29, x30, [sp], #96
    1228:	d65f03c0 	ret
trace_trigger_soft_disabled():
/data3/home/yuanqiliang/code/arm-kernel/./include/linux/trace_events.h:458
			event_triggers_call(file, NULL, NULL);
    122c:	d2800002 	mov	x2, #0x0                   	// #0
    1230:	d2800001 	mov	x1, #0x0                   	// #0
    1234:	94000000 	bl	0 <event_triggers_call>
    1238:	17ffffef 	b	11f4 <trace_event_raw_event_hrtimer_class+0x24>
/data3/home/yuanqiliang/code/arm-kernel/./include/linux/trace_events.h:462
			return trace_event_ignore_this_pid(file);
    123c:	aa1403e0 	mov	x0, x20
    1240:	94000000 	bl	0 <trace_event_ignore_this_pid>
trace_event_raw_event_hrtimer_class():
/data3/home/yuanqiliang/code/arm-kernel/./include/trace/events/timer.h:250
    1244:	72001c1f 	tst	w0, #0xff
    1248:	54fffda0 	b.eq	11fc <trace_event_raw_event_hrtimer_class+0x2c>  // b.none
    124c:	17fffff4 	b	121c <trace_event_raw_event_hrtimer_class+0x4c>

0000000000001250 <trace_event_raw_event_itimer_state>:
trace_event_raw_event_itimer_state():
/data3/home/yuanqiliang/code/arm-kernel/./include/trace/events/timer.h:299
TRACE_EVENT(itimer_state,
    1250:	a9b97bfd 	stp	x29, x30, [sp, #-112]!
    1254:	910003fd 	mov	x29, sp
    1258:	a90153f3 	stp	x19, x20, [sp, #16]
    125c:	aa0203f4 	mov	x20, x2
    1260:	a9025bf5 	stp	x21, x22, [sp, #32]
    1264:	aa0003f5 	mov	x21, x0
    1268:	aa0303f6 	mov	x22, x3
    126c:	f9001bf7 	str	x23, [sp, #48]
    1270:	2a0103f7 	mov	w23, w1
trace_trigger_soft_disabled():
/data3/home/yuanqiliang/code/arm-kernel/./include/linux/trace_events.h:454
	unsigned long eflags = file->flags;
    1274:	f9402413 	ldr	x19, [x0, #72]
/data3/home/yuanqiliang/code/arm-kernel/./include/linux/trace_events.h:456
	if (!(eflags & EVENT_FILE_FL_TRIGGER_COND)) {
    1278:	37400093 	tbnz	w19, #8, 1288 <trace_event_raw_event_itimer_state+0x38>
/data3/home/yuanqiliang/code/arm-kernel/./include/linux/trace_events.h:457
		if (eflags & EVENT_FILE_FL_TRIGGER_MODE)
    127c:	37380353 	tbnz	w19, #7, 12e4 <trace_event_raw_event_itimer_state+0x94>
/data3/home/yuanqiliang/code/arm-kernel/./include/linux/trace_events.h:459
		if (eflags & EVENT_FILE_FL_SOFT_DISABLED)
    1280:	37300293 	tbnz	w19, #6, 12d0 <trace_event_raw_event_itimer_state+0x80>
/data3/home/yuanqiliang/code/arm-kernel/./include/linux/trace_events.h:461
		if (eflags & EVENT_FILE_FL_PID_FILTER)
    1284:	37480393 	tbnz	w19, #9, 12f4 <trace_event_raw_event_itimer_state+0xa4>
trace_event_raw_event_itimer_state():
/data3/home/yuanqiliang/code/arm-kernel/./include/trace/events/timer.h:299
    1288:	aa1503e1 	mov	x1, x21
    128c:	910103e0 	add	x0, sp, #0x40
    1290:	d2800702 	mov	x2, #0x38                  	// #56
    1294:	94000000 	bl	0 <trace_event_buffer_reserve>
    1298:	aa0003e1 	mov	x1, x0
    129c:	b40001a0 	cbz	x0, 12d0 <trace_event_raw_event_itimer_state+0x80>
/data3/home/yuanqiliang/code/arm-kernel/./include/trace/events/timer.h:299 (discriminator 5)
    12a0:	b9000837 	str	w23, [x1, #8]
    12a4:	910103e0 	add	x0, sp, #0x40
    12a8:	f9000836 	str	x22, [x1, #16]
    12ac:	f9400a82 	ldr	x2, [x20, #16]
    12b0:	f9000c22 	str	x2, [x1, #24]
    12b4:	f9400e82 	ldr	x2, [x20, #24]
    12b8:	f9001022 	str	x2, [x1, #32]
    12bc:	f9400282 	ldr	x2, [x20]
    12c0:	f9001422 	str	x2, [x1, #40]
    12c4:	f9400682 	ldr	x2, [x20, #8]
    12c8:	f9001822 	str	x2, [x1, #48]
    12cc:	94000000 	bl	0 <trace_event_buffer_commit>
/data3/home/yuanqiliang/code/arm-kernel/./include/trace/events/timer.h:299
    12d0:	a94153f3 	ldp	x19, x20, [sp, #16]
    12d4:	a9425bf5 	ldp	x21, x22, [sp, #32]
    12d8:	f9401bf7 	ldr	x23, [sp, #48]
    12dc:	a8c77bfd 	ldp	x29, x30, [sp], #112
    12e0:	d65f03c0 	ret
trace_trigger_soft_disabled():
/data3/home/yuanqiliang/code/arm-kernel/./include/linux/trace_events.h:458
			event_triggers_call(file, NULL, NULL);
    12e4:	d2800002 	mov	x2, #0x0                   	// #0
    12e8:	d2800001 	mov	x1, #0x0                   	// #0
    12ec:	94000000 	bl	0 <event_triggers_call>
    12f0:	17ffffe4 	b	1280 <trace_event_raw_event_itimer_state+0x30>
/data3/home/yuanqiliang/code/arm-kernel/./include/linux/trace_events.h:462
			return trace_event_ignore_this_pid(file);
    12f4:	aa1503e0 	mov	x0, x21
    12f8:	94000000 	bl	0 <trace_event_ignore_this_pid>
trace_event_raw_event_itimer_state():
/data3/home/yuanqiliang/code/arm-kernel/./include/trace/events/timer.h:299
    12fc:	72001c1f 	tst	w0, #0xff
    1300:	54fffc40 	b.eq	1288 <trace_event_raw_event_itimer_state+0x38>  // b.none
    1304:	17fffff3 	b	12d0 <trace_event_raw_event_itimer_state+0x80>

0000000000001308 <trace_event_raw_event_itimer_expire>:
trace_event_raw_event_itimer_expire():
/data3/home/yuanqiliang/code/arm-kernel/./include/trace/events/timer.h:336
TRACE_EVENT(itimer_expire,
    1308:	a9b97bfd 	stp	x29, x30, [sp, #-112]!
    130c:	910003fd 	mov	x29, sp
    1310:	a90153f3 	stp	x19, x20, [sp, #16]
    1314:	aa0003f4 	mov	x20, x0
    1318:	a9025bf5 	stp	x21, x22, [sp, #32]
    131c:	aa0203f5 	mov	x21, x2
    1320:	aa0303f6 	mov	x22, x3
    1324:	f9001bf7 	str	x23, [sp, #48]
    1328:	2a0103f7 	mov	w23, w1
trace_trigger_soft_disabled():
/data3/home/yuanqiliang/code/arm-kernel/./include/linux/trace_events.h:454
	unsigned long eflags = file->flags;
    132c:	f9402413 	ldr	x19, [x0, #72]
/data3/home/yuanqiliang/code/arm-kernel/./include/linux/trace_events.h:456
	if (!(eflags & EVENT_FILE_FL_TRIGGER_COND)) {
    1330:	37400093 	tbnz	w19, #8, 1340 <trace_event_raw_event_itimer_expire+0x38>
/data3/home/yuanqiliang/code/arm-kernel/./include/linux/trace_events.h:457
		if (eflags & EVENT_FILE_FL_TRIGGER_MODE)
    1334:	373802b3 	tbnz	w19, #7, 1388 <trace_event_raw_event_itimer_expire+0x80>
/data3/home/yuanqiliang/code/arm-kernel/./include/linux/trace_events.h:459
		if (eflags & EVENT_FILE_FL_SOFT_DISABLED)
    1338:	373001f3 	tbnz	w19, #6, 1374 <trace_event_raw_event_itimer_expire+0x6c>
/data3/home/yuanqiliang/code/arm-kernel/./include/linux/trace_events.h:461
		if (eflags & EVENT_FILE_FL_PID_FILTER)
    133c:	374802f3 	tbnz	w19, #9, 1398 <trace_event_raw_event_itimer_expire+0x90>
trace_event_raw_event_itimer_expire():
/data3/home/yuanqiliang/code/arm-kernel/./include/trace/events/timer.h:336
    1340:	aa1403e1 	mov	x1, x20
    1344:	910103e0 	add	x0, sp, #0x40
    1348:	d2800302 	mov	x2, #0x18                  	// #24
    134c:	94000000 	bl	0 <trace_event_buffer_reserve>
    1350:	b4000120 	cbz	x0, 1374 <trace_event_raw_event_itimer_expire+0x6c>
/data3/home/yuanqiliang/code/arm-kernel/./include/trace/events/timer.h:336 (discriminator 5)
    1354:	b9000817 	str	w23, [x0, #8]
pid_nr():
/data3/home/yuanqiliang/code/arm-kernel/./include/linux/pid.h:160 (discriminator 5)
	pid_t nr = 0;
    1358:	52800001 	mov	w1, #0x0                   	// #0
trace_event_raw_event_itimer_expire():
/data3/home/yuanqiliang/code/arm-kernel/./include/trace/events/timer.h:336 (discriminator 5)
    135c:	f9000816 	str	x22, [x0, #16]
pid_nr():
/data3/home/yuanqiliang/code/arm-kernel/./include/linux/pid.h:161 (discriminator 5)
	if (pid)
    1360:	b4000055 	cbz	x21, 1368 <trace_event_raw_event_itimer_expire+0x60>
/data3/home/yuanqiliang/code/arm-kernel/./include/linux/pid.h:162
		nr = pid->numbers[0].nr;
    1364:	b9403aa1 	ldr	w1, [x21, #56]
trace_event_raw_event_itimer_expire():
/data3/home/yuanqiliang/code/arm-kernel/./include/trace/events/timer.h:336
    1368:	b9000c01 	str	w1, [x0, #12]
    136c:	910103e0 	add	x0, sp, #0x40
    1370:	94000000 	bl	0 <trace_event_buffer_commit>
    1374:	a94153f3 	ldp	x19, x20, [sp, #16]
    1378:	a9425bf5 	ldp	x21, x22, [sp, #32]
    137c:	f9401bf7 	ldr	x23, [sp, #48]
    1380:	a8c77bfd 	ldp	x29, x30, [sp], #112
    1384:	d65f03c0 	ret
trace_trigger_soft_disabled():
/data3/home/yuanqiliang/code/arm-kernel/./include/linux/trace_events.h:458
			event_triggers_call(file, NULL, NULL);
    1388:	d2800002 	mov	x2, #0x0                   	// #0
    138c:	d2800001 	mov	x1, #0x0                   	// #0
    1390:	94000000 	bl	0 <event_triggers_call>
    1394:	17ffffe9 	b	1338 <trace_event_raw_event_itimer_expire+0x30>
/data3/home/yuanqiliang/code/arm-kernel/./include/linux/trace_events.h:462
			return trace_event_ignore_this_pid(file);
    1398:	aa1403e0 	mov	x0, x20
    139c:	94000000 	bl	0 <trace_event_ignore_this_pid>
trace_event_raw_event_itimer_expire():
/data3/home/yuanqiliang/code/arm-kernel/./include/trace/events/timer.h:336
    13a0:	72001c1f 	tst	w0, #0xff
    13a4:	54fffce0 	b.eq	1340 <trace_event_raw_event_itimer_expire+0x38>  // b.none
    13a8:	17fffff3 	b	1374 <trace_event_raw_event_itimer_expire+0x6c>
    13ac:	d503201f 	nop

00000000000013b0 <trace_event_raw_event_tick_stop>:
trace_event_raw_event_tick_stop():
/data3/home/yuanqiliang/code/arm-kernel/./include/trace/events/timer.h:392
TRACE_EVENT(tick_stop,
    13b0:	a9ba7bfd 	stp	x29, x30, [sp, #-96]!
    13b4:	910003fd 	mov	x29, sp
    13b8:	a90153f3 	stp	x19, x20, [sp, #16]
    13bc:	aa0003f4 	mov	x20, x0
    13c0:	a9025bf5 	stp	x21, x22, [sp, #32]
    13c4:	2a0103f6 	mov	w22, w1
    13c8:	2a0203f5 	mov	w21, w2
trace_trigger_soft_disabled():
/data3/home/yuanqiliang/code/arm-kernel/./include/linux/trace_events.h:454
	unsigned long eflags = file->flags;
    13cc:	f9402413 	ldr	x19, [x0, #72]
/data3/home/yuanqiliang/code/arm-kernel/./include/linux/trace_events.h:456
	if (!(eflags & EVENT_FILE_FL_TRIGGER_COND)) {
    13d0:	37400093 	tbnz	w19, #8, 13e0 <trace_event_raw_event_tick_stop+0x30>
/data3/home/yuanqiliang/code/arm-kernel/./include/linux/trace_events.h:457
		if (eflags & EVENT_FILE_FL_TRIGGER_MODE)
    13d4:	37380213 	tbnz	w19, #7, 1414 <trace_event_raw_event_tick_stop+0x64>
/data3/home/yuanqiliang/code/arm-kernel/./include/linux/trace_events.h:459
		if (eflags & EVENT_FILE_FL_SOFT_DISABLED)
    13d8:	37300173 	tbnz	w19, #6, 1404 <trace_event_raw_event_tick_stop+0x54>
/data3/home/yuanqiliang/code/arm-kernel/./include/linux/trace_events.h:461
		if (eflags & EVENT_FILE_FL_PID_FILTER)
    13dc:	37480253 	tbnz	w19, #9, 1424 <trace_event_raw_event_tick_stop+0x74>
trace_event_raw_event_tick_stop():
/data3/home/yuanqiliang/code/arm-kernel/./include/trace/events/timer.h:392
    13e0:	aa1403e1 	mov	x1, x20
    13e4:	9100c3e0 	add	x0, sp, #0x30
    13e8:	d2800202 	mov	x2, #0x10                  	// #16
    13ec:	94000000 	bl	0 <trace_event_buffer_reserve>
    13f0:	aa0003e1 	mov	x1, x0
    13f4:	b4000080 	cbz	x0, 1404 <trace_event_raw_event_tick_stop+0x54>
/data3/home/yuanqiliang/code/arm-kernel/./include/trace/events/timer.h:392 (discriminator 5)
    13f8:	29015436 	stp	w22, w21, [x1, #8]
    13fc:	9100c3e0 	add	x0, sp, #0x30
    1400:	94000000 	bl	0 <trace_event_buffer_commit>
/data3/home/yuanqiliang/code/arm-kernel/./include/trace/events/timer.h:392
    1404:	a94153f3 	ldp	x19, x20, [sp, #16]
    1408:	a9425bf5 	ldp	x21, x22, [sp, #32]
    140c:	a8c67bfd 	ldp	x29, x30, [sp], #96
    1410:	d65f03c0 	ret
trace_trigger_soft_disabled():
/data3/home/yuanqiliang/code/arm-kernel/./include/linux/trace_events.h:458
			event_triggers_call(file, NULL, NULL);
    1414:	d2800002 	mov	x2, #0x0                   	// #0
    1418:	d2800001 	mov	x1, #0x0                   	// #0
    141c:	94000000 	bl	0 <event_triggers_call>
    1420:	17ffffee 	b	13d8 <trace_event_raw_event_tick_stop+0x28>
/data3/home/yuanqiliang/code/arm-kernel/./include/linux/trace_events.h:462
			return trace_event_ignore_this_pid(file);
    1424:	aa1403e0 	mov	x0, x20
    1428:	94000000 	bl	0 <trace_event_ignore_this_pid>
trace_event_raw_event_tick_stop():
/data3/home/yuanqiliang/code/arm-kernel/./include/trace/events/timer.h:392
    142c:	72001c1f 	tst	w0, #0xff
    1430:	54fffd80 	b.eq	13e0 <trace_event_raw_event_tick_stop+0x30>  // b.none
    1434:	17fffff4 	b	1404 <trace_event_raw_event_tick_stop+0x54>

0000000000001438 <trace_raw_output_timer_class>:
trace_raw_output_timer_class():
/data3/home/yuanqiliang/code/arm-kernel/./include/trace/events/timer.h:12
DECLARE_EVENT_CLASS(timer_class,
    1438:	a9be7bfd 	stp	x29, x30, [sp, #-32]!
    143c:	aa0203e1 	mov	x1, x2
    1440:	910003fd 	mov	x29, sp
    1444:	a90153f3 	stp	x19, x20, [sp, #16]
    1448:	aa0003f3 	mov	x19, x0
    144c:	f9506814 	ldr	x20, [x0, #8400]
    1450:	94000000 	bl	0 <trace_raw_output_prep>
    1454:	7100041f 	cmp	w0, #0x1
    1458:	54000080 	b.eq	1468 <trace_raw_output_timer_class+0x30>  // b.none
    145c:	a94153f3 	ldp	x19, x20, [sp, #16]
    1460:	a8c27bfd 	ldp	x29, x30, [sp], #32
    1464:	d65f03c0 	ret
/data3/home/yuanqiliang/code/arm-kernel/./include/trace/events/timer.h:12 (discriminator 2)
    1468:	f9400682 	ldr	x2, [x20, #8]
    146c:	90000001 	adrp	x1, 0 <__round_jiffies>
    1470:	91000021 	add	x1, x1, #0x0
    1474:	d2821500 	mov	x0, #0x10a8                	// #4264
    1478:	8b000273 	add	x19, x19, x0
    147c:	aa1303e0 	mov	x0, x19
    1480:	94000000 	bl	0 <trace_seq_printf>
    1484:	aa1303e0 	mov	x0, x19
    1488:	94000000 	bl	0 <trace_handle_return>
    148c:	a94153f3 	ldp	x19, x20, [sp, #16]
    1490:	a8c27bfd 	ldp	x29, x30, [sp], #32
    1494:	d65f03c0 	ret

0000000000001498 <trace_raw_output_timer_expire_entry>:
trace_raw_output_timer_expire_entry():
/data3/home/yuanqiliang/code/arm-kernel/./include/trace/events/timer.h:90
TRACE_EVENT(timer_expire_entry,
    1498:	a9be7bfd 	stp	x29, x30, [sp, #-32]!
    149c:	aa0203e1 	mov	x1, x2
    14a0:	910003fd 	mov	x29, sp
    14a4:	a90153f3 	stp	x19, x20, [sp, #16]
    14a8:	aa0003f3 	mov	x19, x0
    14ac:	f9506814 	ldr	x20, [x0, #8400]
    14b0:	94000000 	bl	0 <trace_raw_output_prep>
    14b4:	7100041f 	cmp	w0, #0x1
    14b8:	54000080 	b.eq	14c8 <trace_raw_output_timer_expire_entry+0x30>  // b.none
    14bc:	a94153f3 	ldp	x19, x20, [sp, #16]
    14c0:	a8c27bfd 	ldp	x29, x30, [sp], #32
    14c4:	d65f03c0 	ret
/data3/home/yuanqiliang/code/arm-kernel/./include/trace/events/timer.h:90 (discriminator 2)
    14c8:	a9409282 	ldp	x2, x4, [x20, #8]
    14cc:	90000001 	adrp	x1, 0 <__round_jiffies>
    14d0:	f9400e83 	ldr	x3, [x20, #24]
    14d4:	91000021 	add	x1, x1, #0x0
    14d8:	d2821500 	mov	x0, #0x10a8                	// #4264
    14dc:	8b000273 	add	x19, x19, x0
    14e0:	aa1303e0 	mov	x0, x19
    14e4:	94000000 	bl	0 <trace_seq_printf>
    14e8:	aa1303e0 	mov	x0, x19
    14ec:	94000000 	bl	0 <trace_handle_return>
    14f0:	a94153f3 	ldp	x19, x20, [sp, #16]
    14f4:	a8c27bfd 	ldp	x29, x30, [sp], #32
    14f8:	d65f03c0 	ret
    14fc:	d503201f 	nop

0000000000001500 <trace_raw_output_hrtimer_expire_entry>:
trace_raw_output_hrtimer_expire_entry():
/data3/home/yuanqiliang/code/arm-kernel/./include/trace/events/timer.h:228
TRACE_EVENT(hrtimer_expire_entry,
    1500:	a9be7bfd 	stp	x29, x30, [sp, #-32]!
    1504:	aa0203e1 	mov	x1, x2
    1508:	910003fd 	mov	x29, sp
    150c:	a90153f3 	stp	x19, x20, [sp, #16]
    1510:	aa0003f3 	mov	x19, x0
    1514:	f9506814 	ldr	x20, [x0, #8400]
    1518:	94000000 	bl	0 <trace_raw_output_prep>
    151c:	7100041f 	cmp	w0, #0x1
    1520:	54000080 	b.eq	1530 <trace_raw_output_hrtimer_expire_entry+0x30>  // b.none
    1524:	a94153f3 	ldp	x19, x20, [sp, #16]
    1528:	a8c27bfd 	ldp	x29, x30, [sp], #32
    152c:	d65f03c0 	ret
/data3/home/yuanqiliang/code/arm-kernel/./include/trace/events/timer.h:228 (discriminator 2)
    1530:	a9409282 	ldp	x2, x4, [x20, #8]
    1534:	90000001 	adrp	x1, 0 <__round_jiffies>
    1538:	f9400e83 	ldr	x3, [x20, #24]
    153c:	91000021 	add	x1, x1, #0x0
    1540:	d2821500 	mov	x0, #0x10a8                	// #4264
    1544:	8b000273 	add	x19, x19, x0
    1548:	aa1303e0 	mov	x0, x19
    154c:	94000000 	bl	0 <trace_seq_printf>
    1550:	aa1303e0 	mov	x0, x19
    1554:	94000000 	bl	0 <trace_handle_return>
    1558:	a94153f3 	ldp	x19, x20, [sp, #16]
    155c:	a8c27bfd 	ldp	x29, x30, [sp], #32
    1560:	d65f03c0 	ret
    1564:	d503201f 	nop

0000000000001568 <trace_raw_output_hrtimer_class>:
trace_raw_output_hrtimer_class():
/data3/home/yuanqiliang/code/arm-kernel/./include/trace/events/timer.h:250
DECLARE_EVENT_CLASS(hrtimer_class,
    1568:	a9be7bfd 	stp	x29, x30, [sp, #-32]!
    156c:	aa0203e1 	mov	x1, x2
    1570:	910003fd 	mov	x29, sp
    1574:	a90153f3 	stp	x19, x20, [sp, #16]
    1578:	aa0003f3 	mov	x19, x0
    157c:	f9506814 	ldr	x20, [x0, #8400]
    1580:	94000000 	bl	0 <trace_raw_output_prep>
    1584:	7100041f 	cmp	w0, #0x1
    1588:	54000080 	b.eq	1598 <trace_raw_output_hrtimer_class+0x30>  // b.none
    158c:	a94153f3 	ldp	x19, x20, [sp, #16]
    1590:	a8c27bfd 	ldp	x29, x30, [sp], #32
    1594:	d65f03c0 	ret
/data3/home/yuanqiliang/code/arm-kernel/./include/trace/events/timer.h:250 (discriminator 2)
    1598:	f9400682 	ldr	x2, [x20, #8]
    159c:	90000001 	adrp	x1, 0 <__round_jiffies>
    15a0:	91000021 	add	x1, x1, #0x0
    15a4:	d2821500 	mov	x0, #0x10a8                	// #4264
    15a8:	8b000273 	add	x19, x19, x0
    15ac:	aa1303e0 	mov	x0, x19
    15b0:	94000000 	bl	0 <trace_seq_printf>
    15b4:	aa1303e0 	mov	x0, x19
    15b8:	94000000 	bl	0 <trace_handle_return>
    15bc:	a94153f3 	ldp	x19, x20, [sp, #16]
    15c0:	a8c27bfd 	ldp	x29, x30, [sp], #32
    15c4:	d65f03c0 	ret

00000000000015c8 <trace_raw_output_itimer_state>:
trace_raw_output_itimer_state():
/data3/home/yuanqiliang/code/arm-kernel/./include/trace/events/timer.h:299
TRACE_EVENT(itimer_state,
    15c8:	a9be7bfd 	stp	x29, x30, [sp, #-32]!
    15cc:	aa0203e1 	mov	x1, x2
    15d0:	910003fd 	mov	x29, sp
    15d4:	a90153f3 	stp	x19, x20, [sp, #16]
    15d8:	aa0003f3 	mov	x19, x0
    15dc:	f9506814 	ldr	x20, [x0, #8400]
    15e0:	94000000 	bl	0 <trace_raw_output_prep>
    15e4:	7100041f 	cmp	w0, #0x1
    15e8:	54000080 	b.eq	15f8 <trace_raw_output_itimer_state+0x30>  // b.none
    15ec:	a94153f3 	ldp	x19, x20, [sp, #16]
    15f0:	a8c27bfd 	ldp	x29, x30, [sp], #32
    15f4:	d65f03c0 	ret
/data3/home/yuanqiliang/code/arm-kernel/./include/trace/events/timer.h:299 (discriminator 2)
    15f8:	a9411283 	ldp	x3, x4, [x20, #16]
    15fc:	90000001 	adrp	x1, 0 <__round_jiffies>
    1600:	a9421a85 	ldp	x5, x6, [x20, #32]
    1604:	91000021 	add	x1, x1, #0x0
    1608:	b9400a82 	ldr	w2, [x20, #8]
    160c:	d2821500 	mov	x0, #0x10a8                	// #4264
    1610:	f9401a87 	ldr	x7, [x20, #48]
    1614:	8b000273 	add	x19, x19, x0
    1618:	aa1303e0 	mov	x0, x19
    161c:	94000000 	bl	0 <trace_seq_printf>
    1620:	aa1303e0 	mov	x0, x19
    1624:	94000000 	bl	0 <trace_handle_return>
    1628:	a94153f3 	ldp	x19, x20, [sp, #16]
    162c:	a8c27bfd 	ldp	x29, x30, [sp], #32
    1630:	d65f03c0 	ret
    1634:	d503201f 	nop

0000000000001638 <trace_raw_output_itimer_expire>:
trace_raw_output_itimer_expire():
/data3/home/yuanqiliang/code/arm-kernel/./include/trace/events/timer.h:336
TRACE_EVENT(itimer_expire,
    1638:	a9be7bfd 	stp	x29, x30, [sp, #-32]!
    163c:	aa0203e1 	mov	x1, x2
    1640:	910003fd 	mov	x29, sp
    1644:	a90153f3 	stp	x19, x20, [sp, #16]
    1648:	aa0003f3 	mov	x19, x0
    164c:	f9506814 	ldr	x20, [x0, #8400]
    1650:	94000000 	bl	0 <trace_raw_output_prep>
    1654:	7100041f 	cmp	w0, #0x1
    1658:	54000080 	b.eq	1668 <trace_raw_output_itimer_expire+0x30>  // b.none
    165c:	a94153f3 	ldp	x19, x20, [sp, #16]
    1660:	a8c27bfd 	ldp	x29, x30, [sp], #32
    1664:	d65f03c0 	ret
/data3/home/yuanqiliang/code/arm-kernel/./include/trace/events/timer.h:336 (discriminator 2)
    1668:	29410e82 	ldp	w2, w3, [x20, #8]
    166c:	90000001 	adrp	x1, 0 <__round_jiffies>
    1670:	f9400a84 	ldr	x4, [x20, #16]
    1674:	91000021 	add	x1, x1, #0x0
    1678:	d2821500 	mov	x0, #0x10a8                	// #4264
    167c:	8b000273 	add	x19, x19, x0
    1680:	aa1303e0 	mov	x0, x19
    1684:	94000000 	bl	0 <trace_seq_printf>
    1688:	aa1303e0 	mov	x0, x19
    168c:	94000000 	bl	0 <trace_handle_return>
    1690:	a94153f3 	ldp	x19, x20, [sp, #16]
    1694:	a8c27bfd 	ldp	x29, x30, [sp], #32
    1698:	d65f03c0 	ret
    169c:	d503201f 	nop

00000000000016a0 <trace_raw_output_timer_start>:
trace_raw_output_timer_start():
/data3/home/yuanqiliang/code/arm-kernel/./include/trace/events/timer.h:52
TRACE_EVENT(timer_start,
    16a0:	d10143ff 	sub	sp, sp, #0x50
    16a4:	aa0203e1 	mov	x1, x2
    16a8:	a9017bfd 	stp	x29, x30, [sp, #16]
    16ac:	910043fd 	add	x29, sp, #0x10
    16b0:	a90253f3 	stp	x19, x20, [sp, #32]
    16b4:	aa0003f3 	mov	x19, x0
    16b8:	f9506814 	ldr	x20, [x0, #8400]
    16bc:	94000000 	bl	0 <trace_raw_output_prep>
    16c0:	7100041f 	cmp	w0, #0x1
    16c4:	540000a0 	b.eq	16d8 <trace_raw_output_timer_start+0x38>  // b.none
    16c8:	a9417bfd 	ldp	x29, x30, [sp, #16]
    16cc:	a94253f3 	ldp	x19, x20, [sp, #32]
    16d0:	910143ff 	add	sp, sp, #0x50
    16d4:	d65f03c0 	ret
    16d8:	a9035bf5 	stp	x21, x22, [sp, #48]
/data3/home/yuanqiliang/code/arm-kernel/./include/trace/events/timer.h:52 (discriminator 2)
    16dc:	d2821502 	mov	x2, #0x10a8                	// #4264
    16e0:	91016260 	add	x0, x19, #0x58
    16e4:	a90463f7 	stp	x23, x24, [sp, #64]
    16e8:	8b020273 	add	x19, x19, x2
    16ec:	90000003 	adrp	x3, 0 <__round_jiffies>
    16f0:	a941d696 	ldp	x22, x21, [x20, #24]
    16f4:	91000063 	add	x3, x3, #0x0
    16f8:	a940e297 	ldp	x23, x24, [x20, #8]
    16fc:	90000001 	adrp	x1, 0 <__round_jiffies>
    1700:	b9402a94 	ldr	w20, [x20, #40]
    1704:	91000021 	add	x1, x1, #0x0
    1708:	926e0e82 	and	x2, x20, #0x3c0000
    170c:	cb1502d5 	sub	x21, x22, x21
    1710:	94000000 	bl	0 <trace_print_flags_seq>
    1714:	f90003e0 	str	x0, [sp]
    1718:	aa1503e5 	mov	x5, x21
    171c:	aa1603e4 	mov	x4, x22
    1720:	aa1803e3 	mov	x3, x24
    1724:	aa1703e2 	mov	x2, x23
    1728:	53167e87 	lsr	w7, w20, #22
    172c:	12004686 	and	w6, w20, #0x3ffff
    1730:	90000001 	adrp	x1, 0 <__round_jiffies>
    1734:	91000021 	add	x1, x1, #0x0
    1738:	aa1303e0 	mov	x0, x19
    173c:	94000000 	bl	0 <trace_seq_printf>
    1740:	aa1303e0 	mov	x0, x19
    1744:	94000000 	bl	0 <trace_handle_return>
    1748:	a9417bfd 	ldp	x29, x30, [sp, #16]
    174c:	a94253f3 	ldp	x19, x20, [sp, #32]
    1750:	a9435bf5 	ldp	x21, x22, [sp, #48]
    1754:	a94463f7 	ldp	x23, x24, [sp, #64]
    1758:	910143ff 	add	sp, sp, #0x50
    175c:	d65f03c0 	ret

0000000000001760 <trace_raw_output_hrtimer_init>:
trace_raw_output_hrtimer_init():
/data3/home/yuanqiliang/code/arm-kernel/./include/trace/events/timer.h:163
TRACE_EVENT(hrtimer_init,
    1760:	a9bc7bfd 	stp	x29, x30, [sp, #-64]!
    1764:	aa0203e1 	mov	x1, x2
    1768:	910003fd 	mov	x29, sp
    176c:	a90153f3 	stp	x19, x20, [sp, #16]
    1770:	aa0003f3 	mov	x19, x0
    1774:	f9506814 	ldr	x20, [x0, #8400]
    1778:	94000000 	bl	0 <trace_raw_output_prep>
    177c:	7100041f 	cmp	w0, #0x1
    1780:	54000080 	b.eq	1790 <trace_raw_output_hrtimer_init+0x30>  // b.none
    1784:	a94153f3 	ldp	x19, x20, [sp, #16]
    1788:	a8c47bfd 	ldp	x29, x30, [sp], #64
    178c:	d65f03c0 	ret
    1790:	a9025bf5 	stp	x21, x22, [sp, #32]
/data3/home/yuanqiliang/code/arm-kernel/./include/trace/events/timer.h:163 (discriminator 2)
    1794:	d2821501 	mov	x1, #0x10a8                	// #4264
    1798:	91016276 	add	x22, x19, #0x58
    179c:	a90363f7 	stp	x23, x24, [sp, #48]
    17a0:	8b010273 	add	x19, x19, x1
    17a4:	90000015 	adrp	x21, 0 <__round_jiffies>
    17a8:	b9801281 	ldrsw	x1, [x20, #16]
    17ac:	910002b5 	add	x21, x21, #0x0
    17b0:	910142a2 	add	x2, x21, #0x50
    17b4:	aa1603e0 	mov	x0, x22
    17b8:	f9400697 	ldr	x23, [x20, #8]
    17bc:	94000000 	bl	0 <trace_print_symbols_seq>
    17c0:	aa0003f8 	mov	x24, x0
    17c4:	b9401681 	ldr	w1, [x20, #20]
    17c8:	910282a2 	add	x2, x21, #0xa0
    17cc:	aa1603e0 	mov	x0, x22
    17d0:	94000000 	bl	0 <trace_print_symbols_seq>
    17d4:	aa0003e4 	mov	x4, x0
    17d8:	aa1803e3 	mov	x3, x24
    17dc:	aa1703e2 	mov	x2, x23
    17e0:	90000001 	adrp	x1, 0 <__round_jiffies>
    17e4:	91000021 	add	x1, x1, #0x0
    17e8:	aa1303e0 	mov	x0, x19
    17ec:	94000000 	bl	0 <trace_seq_printf>
    17f0:	aa1303e0 	mov	x0, x19
    17f4:	94000000 	bl	0 <trace_handle_return>
    17f8:	a94153f3 	ldp	x19, x20, [sp, #16]
    17fc:	a9425bf5 	ldp	x21, x22, [sp, #32]
    1800:	a94363f7 	ldp	x23, x24, [sp, #48]
    1804:	a8c47bfd 	ldp	x29, x30, [sp], #64
    1808:	d65f03c0 	ret
    180c:	d503201f 	nop

0000000000001810 <trace_raw_output_hrtimer_start>:
trace_raw_output_hrtimer_start():
/data3/home/yuanqiliang/code/arm-kernel/./include/trace/events/timer.h:191
TRACE_EVENT(hrtimer_start,
    1810:	a9bc7bfd 	stp	x29, x30, [sp, #-64]!
    1814:	aa0203e1 	mov	x1, x2
    1818:	910003fd 	mov	x29, sp
    181c:	a90153f3 	stp	x19, x20, [sp, #16]
    1820:	aa0003f3 	mov	x19, x0
    1824:	f9506814 	ldr	x20, [x0, #8400]
    1828:	94000000 	bl	0 <trace_raw_output_prep>
    182c:	7100041f 	cmp	w0, #0x1
    1830:	54000080 	b.eq	1840 <trace_raw_output_hrtimer_start+0x30>  // b.none
    1834:	a94153f3 	ldp	x19, x20, [sp, #16]
    1838:	a8c47bfd 	ldp	x29, x30, [sp], #64
    183c:	d65f03c0 	ret
    1840:	a9025bf5 	stp	x21, x22, [sp, #32]
/data3/home/yuanqiliang/code/arm-kernel/./include/trace/events/timer.h:191 (discriminator 2)
    1844:	d2821501 	mov	x1, #0x10a8                	// #4264
    1848:	91016260 	add	x0, x19, #0x58
    184c:	f9001bf7 	str	x23, [sp, #48]
    1850:	8b010273 	add	x19, x19, x1
    1854:	90000002 	adrp	x2, 0 <__round_jiffies>
    1858:	91000042 	add	x2, x2, #0x0
    185c:	b9402a81 	ldr	w1, [x20, #40]
    1860:	9104c042 	add	x2, x2, #0x130
    1864:	a940da95 	ldp	x21, x22, [x20, #8]
    1868:	a941d297 	ldp	x23, x20, [x20, #24]
    186c:	94000000 	bl	0 <trace_print_symbols_seq>
    1870:	90000001 	adrp	x1, 0 <__round_jiffies>
    1874:	aa0003e6 	mov	x6, x0
    1878:	91000021 	add	x1, x1, #0x0
    187c:	aa1303e0 	mov	x0, x19
    1880:	aa1603e3 	mov	x3, x22
    1884:	aa1503e2 	mov	x2, x21
    1888:	aa1703e4 	mov	x4, x23
    188c:	aa1403e5 	mov	x5, x20
    1890:	94000000 	bl	0 <trace_seq_printf>
    1894:	aa1303e0 	mov	x0, x19
    1898:	94000000 	bl	0 <trace_handle_return>
    189c:	a94153f3 	ldp	x19, x20, [sp, #16]
    18a0:	a9425bf5 	ldp	x21, x22, [sp, #32]
    18a4:	f9401bf7 	ldr	x23, [sp, #48]
    18a8:	a8c47bfd 	ldp	x29, x30, [sp], #64
    18ac:	d65f03c0 	ret

00000000000018b0 <trace_raw_output_tick_stop>:
trace_raw_output_tick_stop():
/data3/home/yuanqiliang/code/arm-kernel/./include/trace/events/timer.h:392
TRACE_EVENT(tick_stop,
    18b0:	a9be7bfd 	stp	x29, x30, [sp, #-32]!
    18b4:	aa0203e1 	mov	x1, x2
    18b8:	910003fd 	mov	x29, sp
    18bc:	a90153f3 	stp	x19, x20, [sp, #16]
    18c0:	aa0003f3 	mov	x19, x0
    18c4:	f9506814 	ldr	x20, [x0, #8400]
    18c8:	94000000 	bl	0 <trace_raw_output_prep>
    18cc:	7100041f 	cmp	w0, #0x1
    18d0:	54000080 	b.eq	18e0 <trace_raw_output_tick_stop+0x30>  // b.none
    18d4:	a94153f3 	ldp	x19, x20, [sp, #16]
    18d8:	a8c27bfd 	ldp	x29, x30, [sp], #32
    18dc:	d65f03c0 	ret
/data3/home/yuanqiliang/code/arm-kernel/./include/trace/events/timer.h:392 (discriminator 2)
    18e0:	d2821501 	mov	x1, #0x10a8                	// #4264
    18e4:	91016260 	add	x0, x19, #0x58
    18e8:	8b010273 	add	x19, x19, x1
    18ec:	b9800e81 	ldrsw	x1, [x20, #12]
    18f0:	90000002 	adrp	x2, 0 <__round_jiffies>
    18f4:	b9400a94 	ldr	w20, [x20, #8]
    18f8:	91000042 	add	x2, x2, #0x0
    18fc:	91070042 	add	x2, x2, #0x1c0
    1900:	94000000 	bl	0 <trace_print_symbols_seq>
    1904:	aa0003e3 	mov	x3, x0
    1908:	2a1403e2 	mov	w2, w20
    190c:	90000001 	adrp	x1, 0 <__round_jiffies>
    1910:	91000021 	add	x1, x1, #0x0
    1914:	aa1303e0 	mov	x0, x19
    1918:	94000000 	bl	0 <trace_seq_printf>
    191c:	aa1303e0 	mov	x0, x19
    1920:	94000000 	bl	0 <trace_handle_return>
    1924:	a94153f3 	ldp	x19, x20, [sp, #16]
    1928:	a8c27bfd 	ldp	x29, x30, [sp], #32
    192c:	d65f03c0 	ret

0000000000001930 <__bpf_trace_timer_class>:
__bpf_trace_timer_class():
/data3/home/yuanqiliang/code/arm-kernel/./include/trace/events/timer.h:12
DECLARE_EVENT_CLASS(timer_class,
    1930:	a9bf7bfd 	stp	x29, x30, [sp, #-16]!
    1934:	910003fd 	mov	x29, sp
    1938:	94000000 	bl	0 <bpf_trace_run1>
    193c:	a8c17bfd 	ldp	x29, x30, [sp], #16
    1940:	d65f03c0 	ret
    1944:	d503201f 	nop

0000000000001948 <__bpf_trace_hrtimer_class>:
__bpf_trace_hrtimer_class():
/data3/home/yuanqiliang/code/arm-kernel/./include/trace/events/timer.h:250
DECLARE_EVENT_CLASS(hrtimer_class,
    1948:	a9bf7bfd 	stp	x29, x30, [sp, #-16]!
    194c:	910003fd 	mov	x29, sp
    1950:	94000000 	bl	0 <bpf_trace_run1>
    1954:	a8c17bfd 	ldp	x29, x30, [sp], #16
    1958:	d65f03c0 	ret
    195c:	d503201f 	nop

0000000000001960 <__bpf_trace_timer_start>:
__bpf_trace_timer_start():
/data3/home/yuanqiliang/code/arm-kernel/./include/trace/events/timer.h:52
TRACE_EVENT(timer_start,
    1960:	a9bf7bfd 	stp	x29, x30, [sp, #-16]!
    1964:	2a0303e3 	mov	w3, w3
    1968:	910003fd 	mov	x29, sp
    196c:	94000000 	bl	0 <bpf_trace_run3>
    1970:	a8c17bfd 	ldp	x29, x30, [sp], #16
    1974:	d65f03c0 	ret

0000000000001978 <__bpf_trace_hrtimer_init>:
__bpf_trace_hrtimer_init():
/data3/home/yuanqiliang/code/arm-kernel/./include/trace/events/timer.h:163
TRACE_EVENT(hrtimer_init,
    1978:	a9bf7bfd 	stp	x29, x30, [sp, #-16]!
    197c:	2a0303e3 	mov	w3, w3
    1980:	2a0203e2 	mov	w2, w2
    1984:	910003fd 	mov	x29, sp
    1988:	94000000 	bl	0 <bpf_trace_run3>
    198c:	a8c17bfd 	ldp	x29, x30, [sp], #16
    1990:	d65f03c0 	ret
    1994:	d503201f 	nop

0000000000001998 <__bpf_trace_itimer_state>:
__bpf_trace_itimer_state():
/data3/home/yuanqiliang/code/arm-kernel/./include/trace/events/timer.h:299
TRACE_EVENT(itimer_state,
    1998:	a9bf7bfd 	stp	x29, x30, [sp, #-16]!
    199c:	2a0103e1 	mov	w1, w1
    19a0:	910003fd 	mov	x29, sp
    19a4:	94000000 	bl	0 <bpf_trace_run3>
    19a8:	a8c17bfd 	ldp	x29, x30, [sp], #16
    19ac:	d65f03c0 	ret

00000000000019b0 <__bpf_trace_itimer_expire>:
__bpf_trace_itimer_expire():
/data3/home/yuanqiliang/code/arm-kernel/./include/trace/events/timer.h:336
TRACE_EVENT(itimer_expire,
    19b0:	a9bf7bfd 	stp	x29, x30, [sp, #-16]!
    19b4:	2a0103e1 	mov	w1, w1
    19b8:	910003fd 	mov	x29, sp
    19bc:	94000000 	bl	0 <bpf_trace_run3>
    19c0:	a8c17bfd 	ldp	x29, x30, [sp], #16
    19c4:	d65f03c0 	ret

00000000000019c8 <__bpf_trace_hrtimer_start>:
__bpf_trace_hrtimer_start():
/data3/home/yuanqiliang/code/arm-kernel/./include/trace/events/timer.h:191
TRACE_EVENT(hrtimer_start,
    19c8:	a9bf7bfd 	stp	x29, x30, [sp, #-16]!
    19cc:	2a0203e2 	mov	w2, w2
    19d0:	910003fd 	mov	x29, sp
    19d4:	94000000 	bl	0 <bpf_trace_run2>
    19d8:	a8c17bfd 	ldp	x29, x30, [sp], #16
    19dc:	d65f03c0 	ret

00000000000019e0 <__bpf_trace_hrtimer_expire_entry>:
__bpf_trace_hrtimer_expire_entry():
/data3/home/yuanqiliang/code/arm-kernel/./include/trace/events/timer.h:228
TRACE_EVENT(hrtimer_expire_entry,
    19e0:	a9bf7bfd 	stp	x29, x30, [sp, #-16]!
    19e4:	910003fd 	mov	x29, sp
    19e8:	94000000 	bl	0 <bpf_trace_run2>
    19ec:	a8c17bfd 	ldp	x29, x30, [sp], #16
    19f0:	d65f03c0 	ret
    19f4:	d503201f 	nop

00000000000019f8 <__bpf_trace_tick_stop>:
__bpf_trace_tick_stop():
/data3/home/yuanqiliang/code/arm-kernel/./include/trace/events/timer.h:392
TRACE_EVENT(tick_stop,
    19f8:	a9bf7bfd 	stp	x29, x30, [sp, #-16]!
    19fc:	2a0203e2 	mov	w2, w2
    1a00:	2a0103e1 	mov	w1, w1
    1a04:	910003fd 	mov	x29, sp
    1a08:	94000000 	bl	0 <bpf_trace_run2>
    1a0c:	a8c17bfd 	ldp	x29, x30, [sp], #16
    1a10:	d65f03c0 	ret
    1a14:	d503201f 	nop

0000000000001a18 <timers_update_migration>:
timers_update_migration():
/data3/home/yuanqiliang/code/arm-kernel/kernel/time/timer.c:226
{
    1a18:	a9bf7bfd 	stp	x29, x30, [sp, #-16]!
/data3/home/yuanqiliang/code/arm-kernel/kernel/time/timer.c:227
	if (sysctl_timer_migration && tick_nohz_active)
    1a1c:	90000000 	adrp	x0, 0 <__round_jiffies>
/data3/home/yuanqiliang/code/arm-kernel/kernel/time/timer.c:226
{
    1a20:	910003fd 	mov	x29, sp
/data3/home/yuanqiliang/code/arm-kernel/kernel/time/timer.c:227
	if (sysctl_timer_migration && tick_nohz_active)
    1a24:	b9400000 	ldr	w0, [x0]
    1a28:	34000080 	cbz	w0, 1a38 <timers_update_migration+0x20>
/data3/home/yuanqiliang/code/arm-kernel/kernel/time/timer.c:227 (discriminator 1)
    1a2c:	90000000 	adrp	x0, 0 <tick_nohz_active>
    1a30:	f9400000 	ldr	x0, [x0]
    1a34:	b50000c0 	cbnz	x0, 1a4c <timers_update_migration+0x34>
/data3/home/yuanqiliang/code/arm-kernel/kernel/time/timer.c:230
		static_branch_disable(&timers_migration_enabled);
    1a38:	90000000 	adrp	x0, 0 <__round_jiffies>
    1a3c:	91000000 	add	x0, x0, #0x0
    1a40:	94000000 	bl	0 <static_key_disable>
/data3/home/yuanqiliang/code/arm-kernel/kernel/time/timer.c:231
}
    1a44:	a8c17bfd 	ldp	x29, x30, [sp], #16
    1a48:	d65f03c0 	ret
/data3/home/yuanqiliang/code/arm-kernel/kernel/time/timer.c:228
		static_branch_enable(&timers_migration_enabled);
    1a4c:	90000000 	adrp	x0, 0 <__round_jiffies>
    1a50:	91000000 	add	x0, x0, #0x0
    1a54:	94000000 	bl	0 <static_key_enable>
/data3/home/yuanqiliang/code/arm-kernel/kernel/time/timer.c:231
}
    1a58:	a8c17bfd 	ldp	x29, x30, [sp], #16
    1a5c:	d65f03c0 	ret

0000000000001a60 <timer_update_keys>:
timer_update_keys():
/data3/home/yuanqiliang/code/arm-kernel/kernel/time/timer.c:237
{
    1a60:	a9be7bfd 	stp	x29, x30, [sp, #-32]!
    1a64:	910003fd 	mov	x29, sp
    1a68:	f9000bf3 	str	x19, [sp, #16]
/data3/home/yuanqiliang/code/arm-kernel/kernel/time/timer.c:238
	mutex_lock(&timer_keys_mutex);
    1a6c:	90000013 	adrp	x19, 0 <__round_jiffies>
    1a70:	91000273 	add	x19, x19, #0x0
    1a74:	91002273 	add	x19, x19, #0x8
    1a78:	aa1303e0 	mov	x0, x19
    1a7c:	94000000 	bl	0 <mutex_lock>
/data3/home/yuanqiliang/code/arm-kernel/kernel/time/timer.c:239
	timers_update_migration();
    1a80:	97ffffe6 	bl	1a18 <timers_update_migration>
/data3/home/yuanqiliang/code/arm-kernel/kernel/time/timer.c:240
	static_branch_enable(&timers_nohz_active);
    1a84:	90000000 	adrp	x0, 0 <__round_jiffies>
    1a88:	91000000 	add	x0, x0, #0x0
    1a8c:	91004000 	add	x0, x0, #0x10
    1a90:	94000000 	bl	0 <static_key_enable>
/data3/home/yuanqiliang/code/arm-kernel/kernel/time/timer.c:241
	mutex_unlock(&timer_keys_mutex);
    1a94:	aa1303e0 	mov	x0, x19
    1a98:	94000000 	bl	0 <mutex_unlock>
/data3/home/yuanqiliang/code/arm-kernel/kernel/time/timer.c:242
}
    1a9c:	f9400bf3 	ldr	x19, [sp, #16]
    1aa0:	a8c27bfd 	ldp	x29, x30, [sp], #32
    1aa4:	d65f03c0 	ret

0000000000001aa8 <lock_timer_base>:
lock_timer_base():
/data3/home/yuanqiliang/code/arm-kernel/kernel/time/timer.c:925
 * to wait until the migration is done.
 */
static struct timer_base *lock_timer_base(struct timer_list *timer,
					  unsigned long *flags)
	__acquires(timer->base->lock)
{
    1aa8:	a9b97bfd 	stp	x29, x30, [sp, #-112]!
queued_spin_unlock():
/data3/home/yuanqiliang/code/arm-kernel/./include/asm-generic/qspinlock.h:101
static __always_inline void queued_spin_unlock(struct qspinlock *lock)
{
	/*
	 * unlock() needs release semantics:
	 */
	smp_store_release(&lock->locked, 0);
    1aac:	52800003 	mov	w3, #0x0                   	// #0
lock_timer_base():
/data3/home/yuanqiliang/code/arm-kernel/kernel/time/timer.c:925
    1ab0:	910003fd 	mov	x29, sp
    1ab4:	a90363f7 	stp	x23, x24, [sp, #48]
    1ab8:	aa0003f7 	mov	x23, x0
    1abc:	a9046bf9 	stp	x25, x26, [sp, #64]
    1ac0:	90000019 	adrp	x25, 0 <__round_jiffies>
get_timer_cpu_base():
/data3/home/yuanqiliang/code/arm-kernel/kernel/time/timer.c:848
		base = per_cpu_ptr(&timer_bases[BASE_DEF], cpu);
    1ac4:	9000001a 	adrp	x26, 0 <__round_jiffies>
    1ac8:	91000339 	add	x25, x25, #0x0
    1acc:	9100035a 	add	x26, x26, #0x0
lock_timer_base():
/data3/home/yuanqiliang/code/arm-kernel/kernel/time/timer.c:925
{
    1ad0:	a90573fb 	stp	x27, x28, [sp, #80]
    1ad4:	9000001b 	adrp	x27, 0 <__per_cpu_offset>
    1ad8:	aa0103fc 	mov	x28, x1
    1adc:	9100037b 	add	x27, x27, #0x0
    1ae0:	a90153f3 	stp	x19, x20, [sp, #16]
    1ae4:	a9025bf5 	stp	x21, x22, [sp, #32]
__cmpxchg_case_acq_4():
/data3/home/yuanqiliang/code/arm-kernel/./arch/arm64/include/asm/atomic_ll_sc.h:272
__CMPXCHG_CASE(w, h,     2,        ,  ,  ,         )
__CMPXCHG_CASE(w,  ,     4,        ,  ,  ,         )
__CMPXCHG_CASE( ,  ,     8,        ,  ,  ,         )
__CMPXCHG_CASE(w, b, acq_1,        , a,  , "memory")
__CMPXCHG_CASE(w, h, acq_2,        , a,  , "memory")
__CMPXCHG_CASE(w,  , acq_4,        , a,  , "memory")
    1ae8:	d2800016 	mov	x22, #0x0                   	// #0
    1aec:	d2800035 	mov	x21, #0x1                   	// #1
__read_once_size():
/data3/home/yuanqiliang/code/arm-kernel/./include/linux/compiler.h:193
    1af0:	b94022f4 	ldr	w20, [x23, #32]
get_timer_cpu_base():
/data3/home/yuanqiliang/code/arm-kernel/kernel/time/timer.c:841
	struct timer_base *base = per_cpu_ptr(&timer_bases[BASE_STD], cpu);
    1af4:	aa1903e0 	mov	x0, x25
    1af8:	92404681 	and	x1, x20, #0x3ffff
lock_timer_base():
/data3/home/yuanqiliang/code/arm-kernel/kernel/time/timer.c:937
		 * might re-read @tf between the check for TIMER_MIGRATING
		 * and spin_lock().
		 */
		tf = READ_ONCE(timer->flags);

		if (!(tf & TIMER_MIGRATING)) {
    1afc:	37900294 	tbnz	w20, #18, 1b4c <lock_timer_base+0xa4>
get_timer_cpu_base():
/data3/home/yuanqiliang/code/arm-kernel/kernel/time/timer.c:848
		base = per_cpu_ptr(&timer_bases[BASE_DEF], cpu);
    1b00:	aa1a03e2 	mov	x2, x26
/data3/home/yuanqiliang/code/arm-kernel/kernel/time/timer.c:841
	struct timer_base *base = per_cpu_ptr(&timer_bases[BASE_STD], cpu);
    1b04:	f8617b73 	ldr	x19, [x27, x1, lsl #3]
/data3/home/yuanqiliang/code/arm-kernel/kernel/time/timer.c:847
	if (IS_ENABLED(CONFIG_NO_HZ_COMMON) && (tflags & TIMER_DEFERRABLE))
    1b08:	37980274 	tbnz	w20, #19, 1b54 <lock_timer_base+0xac>
/data3/home/yuanqiliang/code/arm-kernel/kernel/time/timer.c:841
	struct timer_base *base = per_cpu_ptr(&timer_bases[BASE_STD], cpu);
    1b0c:	8b130013 	add	x19, x0, x19
arch_local_irq_save():
/data3/home/yuanqiliang/code/arm-kernel/./arch/arm64/include/asm/irqflags.h:31
 * CPU interrupt mask handling.
 */
static inline unsigned long arch_local_irq_save(void)
{
	unsigned long flags;
	asm volatile(
    1b10:	d53b4238 	mrs	x24, daif
    1b14:	d50342df 	msr	daifset, #0x2
__cmpxchg_case_acq_4():
/data3/home/yuanqiliang/code/arm-kernel/./arch/arm64/include/asm/atomic_ll_sc.h:272
    1b18:	f9800271 	prfm	pstl1strm, [x19]
    1b1c:	885ffe61 	ldaxr	w1, [x19]
    1b20:	4a160020 	eor	w0, w1, w22
    1b24:	35000060 	cbnz	w0, 1b30 <lock_timer_base+0x88>
    1b28:	88007e75 	stxr	w0, w21, [x19]
    1b2c:	35ffff80 	cbnz	w0, 1b1c <lock_timer_base+0x74>
queued_spin_lock():
/data3/home/yuanqiliang/code/arm-kernel/./include/asm-generic/qspinlock.h:86
	if (likely(val == 0))
    1b30:	35000261 	cbnz	w1, 1b7c <lock_timer_base+0xd4>
lock_timer_base():
/data3/home/yuanqiliang/code/arm-kernel/kernel/time/timer.c:939
			base = get_timer_base(tf);
			raw_spin_lock_irqsave(&base->lock, *flags);
    1b34:	f9000398 	str	x24, [x28]
/data3/home/yuanqiliang/code/arm-kernel/kernel/time/timer.c:940
			if (timer->flags == tf)
    1b38:	b94022e0 	ldr	w0, [x23, #32]
    1b3c:	6b14001f 	cmp	w0, w20
    1b40:	540000e0 	b.eq	1b5c <lock_timer_base+0xb4>  // b.none
queued_spin_unlock():
/data3/home/yuanqiliang/code/arm-kernel/./include/asm-generic/qspinlock.h:101
	smp_store_release(&lock->locked, 0);
    1b44:	089ffe63 	stlrb	w3, [x19]
arch_local_irq_restore():
/data3/home/yuanqiliang/code/arm-kernel/./arch/arm64/include/asm/irqflags.h:77
/*
 * restore saved IRQ state
 */
static inline void arch_local_irq_restore(unsigned long flags)
{
	asm volatile(
    1b48:	d51b4238 	msr	daif, x24
cpu_relax():
/data3/home/yuanqiliang/code/arm-kernel/./arch/arm64/include/asm/processor.h:221

unsigned long get_wchan(struct task_struct *p);

static inline void cpu_relax(void)
{
	asm volatile("yield" ::: "memory");
    1b4c:	d503203f 	yield
    1b50:	17ffffe8 	b	1af0 <lock_timer_base+0x48>
get_timer_cpu_base():
/data3/home/yuanqiliang/code/arm-kernel/kernel/time/timer.c:848
		base = per_cpu_ptr(&timer_bases[BASE_DEF], cpu);
    1b54:	8b020273 	add	x19, x19, x2
    1b58:	17ffffee 	b	1b10 <lock_timer_base+0x68>
lock_timer_base():
/data3/home/yuanqiliang/code/arm-kernel/kernel/time/timer.c:946
				return base;
			raw_spin_unlock_irqrestore(&base->lock, *flags);
		}
		cpu_relax();
	}
}
    1b5c:	aa1303e0 	mov	x0, x19
    1b60:	a94153f3 	ldp	x19, x20, [sp, #16]
    1b64:	a9425bf5 	ldp	x21, x22, [sp, #32]
    1b68:	a94363f7 	ldp	x23, x24, [sp, #48]
    1b6c:	a9446bf9 	ldp	x25, x26, [sp, #64]
    1b70:	a94573fb 	ldp	x27, x28, [sp, #80]
    1b74:	a8c77bfd 	ldp	x29, x30, [sp], #112
    1b78:	d65f03c0 	ret
queued_spin_lock():
/data3/home/yuanqiliang/code/arm-kernel/./include/asm-generic/qspinlock.h:88
	queued_spin_lock_slowpath(lock, val);
    1b7c:	aa1303e0 	mov	x0, x19
    1b80:	b9006fe3 	str	w3, [sp, #108]
    1b84:	94000000 	bl	0 <queued_spin_lock_slowpath>
    1b88:	b9406fe3 	ldr	w3, [sp, #108]
    1b8c:	17ffffea 	b	1b34 <lock_timer_base+0x8c>

0000000000001b90 <try_to_del_timer_sync>:
try_to_del_timer_sync():
/data3/home/yuanqiliang/code/arm-kernel/kernel/time/timer.c:1219
 *
 * This function tries to deactivate a timer. Upon successful (ret >= 0)
 * exit the timer is not queued and the handler is not running on any CPU.
 */
int try_to_del_timer_sync(struct timer_list *timer)
{
    1b90:	a9bd7bfd 	stp	x29, x30, [sp, #-48]!
    1b94:	910003fd 	mov	x29, sp
/data3/home/yuanqiliang/code/arm-kernel/kernel/time/timer.c:1226
	unsigned long flags;
	int ret = -1;

	debug_assert_init(timer);

	base = lock_timer_base(timer, &flags);
    1b98:	9100a3e1 	add	x1, sp, #0x28
/data3/home/yuanqiliang/code/arm-kernel/kernel/time/timer.c:1219
{
    1b9c:	a90153f3 	stp	x19, x20, [sp, #16]
    1ba0:	aa0003f4 	mov	x20, x0
/data3/home/yuanqiliang/code/arm-kernel/kernel/time/timer.c:1226
	base = lock_timer_base(timer, &flags);
    1ba4:	97ffffc1 	bl	1aa8 <lock_timer_base>
    1ba8:	aa0003f3 	mov	x19, x0
/data3/home/yuanqiliang/code/arm-kernel/kernel/time/timer.c:1228

	if (base->running_timer != timer)
    1bac:	f9400400 	ldr	x0, [x0, #8]
    1bb0:	eb14001f 	cmp	x0, x20
    1bb4:	54000180 	b.eq	1be4 <try_to_del_timer_sync+0x54>  // b.none
/data3/home/yuanqiliang/code/arm-kernel/kernel/time/timer.c:1229
		ret = detach_if_pending(timer, base, true);
    1bb8:	aa1403e0 	mov	x0, x20
    1bbc:	52800022 	mov	w2, #0x1                   	// #1
    1bc0:	aa1303e1 	mov	x1, x19
    1bc4:	97fffa6d 	bl	578 <detach_if_pending>
queued_spin_unlock():
/data3/home/yuanqiliang/code/arm-kernel/./include/asm-generic/qspinlock.h:101
	smp_store_release(&lock->locked, 0);
    1bc8:	52800002 	mov	w2, #0x0                   	// #0
try_to_del_timer_sync():
/data3/home/yuanqiliang/code/arm-kernel/kernel/time/timer.c:1231

	raw_spin_unlock_irqrestore(&base->lock, flags);
    1bcc:	f94017e1 	ldr	x1, [sp, #40]
queued_spin_unlock():
/data3/home/yuanqiliang/code/arm-kernel/./include/asm-generic/qspinlock.h:101
    1bd0:	089ffe62 	stlrb	w2, [x19]
arch_local_irq_restore():
/data3/home/yuanqiliang/code/arm-kernel/./arch/arm64/include/asm/irqflags.h:77
    1bd4:	d51b4221 	msr	daif, x1
try_to_del_timer_sync():
/data3/home/yuanqiliang/code/arm-kernel/kernel/time/timer.c:1234

	return ret;
}
    1bd8:	a94153f3 	ldp	x19, x20, [sp, #16]
    1bdc:	a8c37bfd 	ldp	x29, x30, [sp], #48
    1be0:	d65f03c0 	ret
/data3/home/yuanqiliang/code/arm-kernel/kernel/time/timer.c:1222
	int ret = -1;
    1be4:	12800000 	mov	w0, #0xffffffff            	// #-1
    1be8:	17fffff8 	b	1bc8 <try_to_del_timer_sync+0x38>
    1bec:	d503201f 	nop

0000000000001bf0 <__next_timer_interrupt>:
__next_timer_interrupt():
/data3/home/yuanqiliang/code/arm-kernel/kernel/time/timer.c:1420
/*
 * Search the first expiring timer in the various clock levels. Caller must
 * hold base->lock.
 */
static unsigned long __next_timer_interrupt(struct timer_base *base)
{
    1bf0:	a9ba7bfd 	stp	x29, x30, [sp, #-96]!
    1bf4:	910003fd 	mov	x29, sp
    1bf8:	a90153f3 	stp	x19, x20, [sp, #16]
/data3/home/yuanqiliang/code/arm-kernel/kernel/time/timer.c:1424
	unsigned long clk, next, adj;
	unsigned lvl, offset = 0;

	next = base->clk + NEXT_TIMER_MAX_DELTA;
    1bfc:	d2800013 	mov	x19, #0x0                   	// #0
/data3/home/yuanqiliang/code/arm-kernel/kernel/time/timer.c:1420
{
    1c00:	a9025bf5 	stp	x21, x22, [sp, #32]
/data3/home/yuanqiliang/code/arm-kernel/kernel/time/timer.c:1424
	next = base->clk + NEXT_TIMER_MAX_DELTA;
    1c04:	b24077f6 	mov	x22, #0x3fffffff            	// #1073741823
/data3/home/yuanqiliang/code/arm-kernel/kernel/time/timer.c:1420
{
    1c08:	a90363f7 	stp	x23, x24, [sp, #48]
    1c0c:	9100a017 	add	x23, x0, #0x28
next_pending_bucket():
/data3/home/yuanqiliang/code/arm-kernel/kernel/time/timer.c:1412
	return pos < start ? pos + LVL_SIZE - start : -1;
    1c10:	52800818 	mov	w24, #0x40                  	// #64
__next_timer_interrupt():
/data3/home/yuanqiliang/code/arm-kernel/kernel/time/timer.c:1420
{
    1c14:	a9046bf9 	stp	x25, x26, [sp, #64]
    1c18:	a90573fb 	stp	x27, x28, [sp, #80]
/data3/home/yuanqiliang/code/arm-kernel/kernel/time/timer.c:1424
	next = base->clk + NEXT_TIMER_MAX_DELTA;
    1c1c:	f9400815 	ldr	x21, [x0, #16]
    1c20:	8b1602b6 	add	x22, x21, x22
/data3/home/yuanqiliang/code/arm-kernel/kernel/time/timer.c:1426
	clk = base->clk;
	for (lvl = 0; lvl < LVL_DEPTH; lvl++, offset += LVL_SIZE) {
    1c24:	1400000e 	b	1c5c <__next_timer_interrupt+0x6c>
next_pending_bucket():
/data3/home/yuanqiliang/code/arm-kernel/kernel/time/timer.c:1409
		return pos - start;
    1c28:	4b1b0074 	sub	w20, w3, w27
__next_timer_interrupt():
/data3/home/yuanqiliang/code/arm-kernel/kernel/time/timer.c:1432
		int pos = next_pending_bucket(base, offset, clk & LVL_MASK);

		if (pos >= 0) {
			unsigned long tmp = clk + (unsigned long) pos;

			tmp <<= LVL_SHIFT(lvl);
    1c2c:	0b190739 	add	w25, w25, w25, lsl #1
/data3/home/yuanqiliang/code/arm-kernel/kernel/time/timer.c:1430
			unsigned long tmp = clk + (unsigned long) pos;
    1c30:	8b34c2a0 	add	x0, x21, w20, sxtw
/data3/home/yuanqiliang/code/arm-kernel/kernel/time/timer.c:1429
		if (pos >= 0) {
    1c34:	37f80094 	tbnz	w20, #31, 1c44 <__next_timer_interrupt+0x54>
/data3/home/yuanqiliang/code/arm-kernel/kernel/time/timer.c:1432
			tmp <<= LVL_SHIFT(lvl);
    1c38:	9ad92019 	lsl	x25, x0, x25
/data3/home/yuanqiliang/code/arm-kernel/kernel/time/timer.c:1434
			if (time_before(tmp, next))
				next = tmp;
    1c3c:	eb16033f 	cmp	x25, x22
    1c40:	9a9952d6 	csel	x22, x22, x25, pl  // pl = nfrst
/data3/home/yuanqiliang/code/arm-kernel/kernel/time/timer.c:1472 (discriminator 2)
		 * from LVL2 to LVL3.
		 *
		 * So the simple check whether the lower bits of the current
		 * level are 0 or not is sufficient for all cases.
		 */
		adj = clk & LVL_CLK_MASK ? 1 : 0;
    1c44:	f2400abf 	tst	x21, #0x7
/data3/home/yuanqiliang/code/arm-kernel/kernel/time/timer.c:1473 (discriminator 2)
		clk >>= LVL_CLK_SHIFT;
    1c48:	d343feb5 	lsr	x21, x21, #3
/data3/home/yuanqiliang/code/arm-kernel/kernel/time/timer.c:1474 (discriminator 2)
		clk += adj;
    1c4c:	9a9506b5 	cinc	x21, x21, ne  // ne = any
    1c50:	aa1a03f3 	mov	x19, x26
/data3/home/yuanqiliang/code/arm-kernel/kernel/time/timer.c:1426 (discriminator 2)
	for (lvl = 0; lvl < LVL_DEPTH; lvl++, offset += LVL_SIZE) {
    1c54:	f100275f 	cmp	x26, #0x9
    1c58:	540002e0 	b.eq	1cb4 <__next_timer_interrupt+0xc4>  // b.none
    1c5c:	9100067a 	add	x26, x19, #0x1
/data3/home/yuanqiliang/code/arm-kernel/kernel/time/timer.c:1427
		int pos = next_pending_bucket(base, offset, clk & LVL_MASK);
    1c60:	120016b4 	and	w20, w21, #0x3f
    1c64:	2a1303f9 	mov	w25, w19
next_pending_bucket():
/data3/home/yuanqiliang/code/arm-kernel/kernel/time/timer.c:1407
	pos = find_next_bit(base->pending_map, end, start);
    1c68:	aa1703e0 	mov	x0, x23
/data3/home/yuanqiliang/code/arm-kernel/kernel/time/timer.c:1404
	unsigned pos, start = offset + clk;
    1c6c:	0b131a9b 	add	w27, w20, w19, lsl #6
    1c70:	d37ae75c 	lsl	x28, x26, #6
/data3/home/yuanqiliang/code/arm-kernel/kernel/time/timer.c:1408
	if (pos < end)
    1c74:	11000673 	add	w19, w19, #0x1
/data3/home/yuanqiliang/code/arm-kernel/kernel/time/timer.c:1407
	pos = find_next_bit(base->pending_map, end, start);
    1c78:	aa1c03e1 	mov	x1, x28
    1c7c:	aa1b03e2 	mov	x2, x27
    1c80:	94000000 	bl	0 <find_next_bit>
    1c84:	aa0003e3 	mov	x3, x0
/data3/home/yuanqiliang/code/arm-kernel/kernel/time/timer.c:1411
	pos = find_next_bit(base->pending_map, start, offset);
    1c88:	d1010382 	sub	x2, x28, #0x40
    1c8c:	aa1b03e1 	mov	x1, x27
    1c90:	aa1703e0 	mov	x0, x23
/data3/home/yuanqiliang/code/arm-kernel/kernel/time/timer.c:1408
	if (pos < end)
    1c94:	6b13187f 	cmp	w3, w19, lsl #6
    1c98:	54fffc83 	b.cc	1c28 <__next_timer_interrupt+0x38>  // b.lo, b.ul, b.last
/data3/home/yuanqiliang/code/arm-kernel/kernel/time/timer.c:1411
	pos = find_next_bit(base->pending_map, start, offset);
    1c9c:	94000000 	bl	0 <find_next_bit>
/data3/home/yuanqiliang/code/arm-kernel/kernel/time/timer.c:1412
	return pos < start ? pos + LVL_SIZE - start : -1;
    1ca0:	6b00037f 	cmp	w27, w0
    1ca4:	4b1b0301 	sub	w1, w24, w27
    1ca8:	0b000034 	add	w20, w1, w0
    1cac:	54fffc08 	b.hi	1c2c <__next_timer_interrupt+0x3c>  // b.pmore
    1cb0:	17ffffe5 	b	1c44 <__next_timer_interrupt+0x54>
__next_timer_interrupt():
/data3/home/yuanqiliang/code/arm-kernel/kernel/time/timer.c:1477
	}
	return next;
}
    1cb4:	aa1603e0 	mov	x0, x22
    1cb8:	a94153f3 	ldp	x19, x20, [sp, #16]
    1cbc:	a9425bf5 	ldp	x21, x22, [sp, #32]
    1cc0:	a94363f7 	ldp	x23, x24, [sp, #48]
    1cc4:	a9446bf9 	ldp	x25, x26, [sp, #64]
    1cc8:	a94573fb 	ldp	x27, x28, [sp, #80]
    1ccc:	a8c67bfd 	ldp	x29, x30, [sp], #96
    1cd0:	d65f03c0 	ret
    1cd4:	d503201f 	nop

0000000000001cd8 <collect_expired_timers>:
collect_expired_timers():
/data3/home/yuanqiliang/code/arm-kernel/kernel/time/timer.c:1593
	base->is_idle = false;
}

static int collect_expired_timers(struct timer_base *base,
				  struct hlist_head *heads)
{
    1cd8:	a9bd7bfd 	stp	x29, x30, [sp, #-48]!
__read_once_size():
/data3/home/yuanqiliang/code/arm-kernel/./include/linux/compiler.h:193
    1cdc:	90000002 	adrp	x2, 0 <jiffies>
collect_expired_timers():
/data3/home/yuanqiliang/code/arm-kernel/kernel/time/timer.c:1593
    1ce0:	910003fd 	mov	x29, sp
    1ce4:	a90153f3 	stp	x19, x20, [sp, #16]
    1ce8:	aa0103f4 	mov	x20, x1
    1cec:	aa0003f3 	mov	x19, x0
    1cf0:	f90013f5 	str	x21, [sp, #32]
__read_once_size():
/data3/home/yuanqiliang/code/arm-kernel/./include/linux/compiler.h:193
    1cf4:	f9400055 	ldr	x21, [x2]
collect_expired_timers():
/data3/home/yuanqiliang/code/arm-kernel/kernel/time/timer.c:1601
	/*
	 * NOHZ optimization. After a long idle sleep we need to forward the
	 * base to current jiffies. Avoid a loop by searching the bitfield for
	 * the next expiring timer.
	 */
	if ((long)(now - base->clk) > 2) {
    1cf8:	f9400803 	ldr	x3, [x0, #16]
    1cfc:	cb0302a1 	sub	x1, x21, x3
    1d00:	f100083f 	cmp	x1, #0x2
    1d04:	540000cd 	b.le	1d1c <collect_expired_timers+0x44>
/data3/home/yuanqiliang/code/arm-kernel/kernel/time/timer.c:1602
		unsigned long next = __next_timer_interrupt(base);
    1d08:	97ffffba 	bl	1bf0 <__next_timer_interrupt>
    1d0c:	aa0003e3 	mov	x3, x0
/data3/home/yuanqiliang/code/arm-kernel/kernel/time/timer.c:1608

		/*
		 * If the next timer is ahead of time forward to current
		 * jiffies, otherwise forward to the next expiry time:
		 */
		if (time_after(next, now)) {
    1d10:	eb0002bf 	cmp	x21, x0
    1d14:	54000464 	b.mi	1da0 <collect_expired_timers+0xc8>  // b.first
/data3/home/yuanqiliang/code/arm-kernel/kernel/time/timer.c:1616
			 * terminate the expiry loop immediately.
			 */
			base->clk = now;
			return 0;
		}
		base->clk = next;
    1d18:	f9000a60 	str	x0, [x19, #16]
__collect_expired_timers():
/data3/home/yuanqiliang/code/arm-kernel/kernel/time/timer.c:1378
	for (i = 0; i < LVL_DEPTH; i++) {
    1d1c:	9100a268 	add	x8, x19, #0x28
/data3/home/yuanqiliang/code/arm-kernel/kernel/time/timer.c:1382
			vec = base->vectors + idx;
    1d20:	9101c273 	add	x19, x19, #0x70
collect_expired_timers():
/data3/home/yuanqiliang/code/arm-kernel/kernel/time/timer.c:1593
{
    1d24:	52800005 	mov	w5, #0x0                   	// #0
__collect_expired_timers():
/data3/home/yuanqiliang/code/arm-kernel/kernel/time/timer.c:1375
	int i, levels = 0;
    1d28:	52800000 	mov	w0, #0x0                   	// #0
__test_and_clear_bit():
/data3/home/yuanqiliang/code/arm-kernel/./include/asm-generic/bitops/non-atomic.h:79
	unsigned long mask = BIT_MASK(nr);
    1d2c:	d280002a 	mov	x10, #0x1                   	// #1
__collect_expired_timers():
/data3/home/yuanqiliang/code/arm-kernel/kernel/time/timer.c:1379
		idx = (clk & LVL_MASK) + i * LVL_SIZE;
    1d30:	12001462 	and	w2, w3, #0x3f
/data3/home/yuanqiliang/code/arm-kernel/kernel/time/timer.c:1383
			hlist_move_list(vec, heads++);
    1d34:	aa1403e1 	mov	x1, x20
/data3/home/yuanqiliang/code/arm-kernel/kernel/time/timer.c:1379
		idx = (clk & LVL_MASK) + i * LVL_SIZE;
    1d38:	0b050046 	add	w6, w2, w5
__test_and_clear_bit():
/data3/home/yuanqiliang/code/arm-kernel/./include/asm-generic/bitops/non-atomic.h:80
	unsigned long *p = ((unsigned long *)addr) + BIT_WORD(nr);
    1d3c:	110100a5 	add	w5, w5, #0x40
    1d40:	13067cc4 	asr	w4, w6, #6
/data3/home/yuanqiliang/code/arm-kernel/./include/asm-generic/bitops/non-atomic.h:79
	unsigned long mask = BIT_MASK(nr);
    1d44:	9ac62142 	lsl	x2, x10, x6
/data3/home/yuanqiliang/code/arm-kernel/./include/asm-generic/bitops/non-atomic.h:80
	unsigned long *p = ((unsigned long *)addr) + BIT_WORD(nr);
    1d48:	93407c84 	sxtw	x4, w4
/data3/home/yuanqiliang/code/arm-kernel/./include/asm-generic/bitops/non-atomic.h:81
	unsigned long old = *p;
    1d4c:	f8647907 	ldr	x7, [x8, x4, lsl #3]
/data3/home/yuanqiliang/code/arm-kernel/./include/asm-generic/bitops/non-atomic.h:83
	*p = old & ~mask;
    1d50:	8a2200e9 	bic	x9, x7, x2
    1d54:	f8247909 	str	x9, [x8, x4, lsl #3]
__collect_expired_timers():
/data3/home/yuanqiliang/code/arm-kernel/kernel/time/timer.c:1381
		if (__test_and_clear_bit(idx, base->pending_map)) {
    1d58:	ea07005f 	tst	x2, x7
    1d5c:	54000100 	b.eq	1d7c <collect_expired_timers+0xa4>  // b.none
hlist_move_list():
/data3/home/yuanqiliang/code/arm-kernel/./include/linux/list.h:758
 * reference of the first entry if it exists.
 */
static inline void hlist_move_list(struct hlist_head *old,
				   struct hlist_head *new)
{
	new->first = old->first;
    1d60:	f8667a62 	ldr	x2, [x19, x6, lsl #3]
    1d64:	f8008422 	str	x2, [x1], #8
__collect_expired_timers():
/data3/home/yuanqiliang/code/arm-kernel/kernel/time/timer.c:1384
			levels++;
    1d68:	11000400 	add	w0, w0, #0x1
hlist_move_list():
/data3/home/yuanqiliang/code/arm-kernel/./include/linux/list.h:759
	if (new->first)
    1d6c:	b4000042 	cbz	x2, 1d74 <collect_expired_timers+0x9c>
/data3/home/yuanqiliang/code/arm-kernel/./include/linux/list.h:760
		new->first->pprev = &new->first;
    1d70:	f9000454 	str	x20, [x2, #8]
__collect_expired_timers():
/data3/home/yuanqiliang/code/arm-kernel/kernel/time/timer.c:1383
			hlist_move_list(vec, heads++);
    1d74:	aa0103f4 	mov	x20, x1
hlist_move_list():
/data3/home/yuanqiliang/code/arm-kernel/./include/linux/list.h:761
	old->first = NULL;
    1d78:	f8267a7f 	str	xzr, [x19, x6, lsl #3]
__collect_expired_timers():
/data3/home/yuanqiliang/code/arm-kernel/kernel/time/timer.c:1387
		if (clk & LVL_CLK_MASK)
    1d7c:	f240087f 	tst	x3, #0x7
/data3/home/yuanqiliang/code/arm-kernel/kernel/time/timer.c:1390
		clk >>= LVL_CLK_SHIFT;
    1d80:	d343fc63 	lsr	x3, x3, #3
/data3/home/yuanqiliang/code/arm-kernel/kernel/time/timer.c:1387
		if (clk & LVL_CLK_MASK)
    1d84:	54000061 	b.ne	1d90 <collect_expired_timers+0xb8>  // b.any
/data3/home/yuanqiliang/code/arm-kernel/kernel/time/timer.c:1378
	for (i = 0; i < LVL_DEPTH; i++) {
    1d88:	710900bf 	cmp	w5, #0x240
    1d8c:	54fffd21 	b.ne	1d30 <collect_expired_timers+0x58>  // b.any
collect_expired_timers():
/data3/home/yuanqiliang/code/arm-kernel/kernel/time/timer.c:1619
	}
	return __collect_expired_timers(base, heads);
}
    1d90:	a94153f3 	ldp	x19, x20, [sp, #16]
    1d94:	f94013f5 	ldr	x21, [sp, #32]
    1d98:	a8c37bfd 	ldp	x29, x30, [sp], #48
    1d9c:	d65f03c0 	ret
/data3/home/yuanqiliang/code/arm-kernel/kernel/time/timer.c:1613
			base->clk = now;
    1da0:	f9000a75 	str	x21, [x19, #16]
/data3/home/yuanqiliang/code/arm-kernel/kernel/time/timer.c:1614
			return 0;
    1da4:	52800000 	mov	w0, #0x0                   	// #0
/data3/home/yuanqiliang/code/arm-kernel/kernel/time/timer.c:1619
}
    1da8:	a94153f3 	ldp	x19, x20, [sp, #16]
    1dac:	f94013f5 	ldr	x21, [sp, #32]
    1db0:	a8c37bfd 	ldp	x29, x30, [sp], #48
    1db4:	d65f03c0 	ret

0000000000001db8 <process_timeout>:
process_timeout():
/data3/home/yuanqiliang/code/arm-kernel/kernel/time/timer.c:1740
	struct timer_list timer;
	struct task_struct *task;
};

static void process_timeout(struct timer_list *t)
{
    1db8:	a9bf7bfd 	stp	x29, x30, [sp, #-16]!
    1dbc:	910003fd 	mov	x29, sp
/data3/home/yuanqiliang/code/arm-kernel/kernel/time/timer.c:1743
	struct process_timer *timeout = from_timer(timeout, t, timer);

	wake_up_process(timeout->task);
    1dc0:	f9401400 	ldr	x0, [x0, #40]
    1dc4:	94000000 	bl	0 <wake_up_process>
/data3/home/yuanqiliang/code/arm-kernel/kernel/time/timer.c:1744
}
    1dc8:	a8c17bfd 	ldp	x29, x30, [sp], #16
    1dcc:	d65f03c0 	ret

0000000000001dd0 <call_timer_fn>:
call_timer_fn():
/data3/home/yuanqiliang/code/arm-kernel/kernel/time/timer.c:1304
{
    1dd0:	a9bd7bfd 	stp	x29, x30, [sp, #-48]!
    1dd4:	910003fd 	mov	x29, sp
    1dd8:	a90153f3 	stp	x19, x20, [sp, #16]
    1ddc:	aa0003f4 	mov	x20, x0
get_current():
/data3/home/yuanqiliang/code/arm-kernel/./arch/arm64/include/asm/current.h:19
 */
static __always_inline struct task_struct *get_current(void)
{
	unsigned long sp_el0;

	asm ("mrs %0, sp_el0" : "=r" (sp_el0));
    1de0:	d5384100 	mrs	x0, sp_el0
call_timer_fn():
/data3/home/yuanqiliang/code/arm-kernel/kernel/time/timer.c:1304
    1de4:	a9025bf5 	stp	x21, x22, [sp, #32]
    1de8:	aa0103f6 	mov	x22, x1
__read_once_size():
/data3/home/yuanqiliang/code/arm-kernel/./include/linux/compiler.h:193
    1dec:	b9401015 	ldr	w21, [x0, #16]
arch_static_branch():
/data3/home/yuanqiliang/code/arm-kernel/./arch/arm64/include/asm/jump_label.h:20
    1df0:	d503201f 	nop
call_timer_fn():
/data3/home/yuanqiliang/code/arm-kernel/kernel/time/timer.c:1327
	fn(timer);
    1df4:	aa1403e0 	mov	x0, x20
    1df8:	d63f02c0 	blr	x22
arch_static_branch():
/data3/home/yuanqiliang/code/arm-kernel/./arch/arm64/include/asm/jump_label.h:20
    1dfc:	d503201f 	nop
get_current():
/data3/home/yuanqiliang/code/arm-kernel/./arch/arm64/include/asm/current.h:19
    1e00:	d5384100 	mrs	x0, sp_el0
__read_once_size():
/data3/home/yuanqiliang/code/arm-kernel/./include/linux/compiler.h:193
    1e04:	b9401001 	ldr	w1, [x0, #16]
call_timer_fn():
/data3/home/yuanqiliang/code/arm-kernel/kernel/time/timer.c:1332
	if (count != preempt_count()) {
    1e08:	6b15003f 	cmp	w1, w21
    1e0c:	540000c0 	b.eq	1e24 <call_timer_fn+0x54>  // b.none
/data3/home/yuanqiliang/code/arm-kernel/kernel/time/timer.c:1333 (discriminator 1)
		WARN_ONCE(1, "timer: %pF preempt leak: %08x -> %08x\n",
    1e10:	90000002 	adrp	x2, 0 <__round_jiffies>
    1e14:	39400041 	ldrb	w1, [x2]
    1e18:	340007a1 	cbz	w1, 1f0c <call_timer_fn+0x13c>
get_current():
/data3/home/yuanqiliang/code/arm-kernel/./arch/arm64/include/asm/current.h:19 (discriminator 8)
    1e1c:	d5384100 	mrs	x0, sp_el0
preempt_count_set():
/data3/home/yuanqiliang/code/arm-kernel/./include/asm-generic/preempt.h:21 (discriminator 8)
	return &current_thread_info()->preempt_count;
}

static __always_inline void preempt_count_set(int pc)
{
	*preempt_count_ptr() = pc;
    1e20:	b9001015 	str	w21, [x0, #16]
call_timer_fn():
/data3/home/yuanqiliang/code/arm-kernel/kernel/time/timer.c:1343
}
    1e24:	a94153f3 	ldp	x19, x20, [sp, #16]
    1e28:	a9425bf5 	ldp	x21, x22, [sp, #32]
    1e2c:	a8c37bfd 	ldp	x29, x30, [sp], #48
    1e30:	d65f03c0 	ret
trace_timer_expire_exit():
/data3/home/yuanqiliang/code/arm-kernel/./include/trace/events/timer.h:121
DEFINE_EVENT(timer_class, timer_expire_exit,
    1e34:	90000000 	adrp	x0, 0 <cpu_number>
    1e38:	91000000 	add	x0, x0, #0x0
__my_cpu_offset():
/data3/home/yuanqiliang/code/arm-kernel/./arch/arm64/include/asm/percpu.h:30
    1e3c:	d538d081 	mrs	x1, tpidr_el1
trace_timer_expire_exit():
/data3/home/yuanqiliang/code/arm-kernel/./include/trace/events/timer.h:121
    1e40:	b8616801 	ldr	w1, [x0, x1]
test_bit():
/data3/home/yuanqiliang/code/arm-kernel/./include/asm-generic/bitops/non-atomic.h:106
	return 1UL & (addr[BIT_WORD(nr)] >> (nr & (BITS_PER_LONG-1)));
    1e44:	90000002 	adrp	x2, 0 <__cpu_online_mask>
    1e48:	91000042 	add	x2, x2, #0x0
    1e4c:	7100003f 	cmp	w1, #0x0
    1e50:	1100fc20 	add	w0, w1, #0x3f
    1e54:	1a81b000 	csel	w0, w0, w1, lt  // lt = tstop
    1e58:	13067c00 	asr	w0, w0, #6
    1e5c:	93407c00 	sxtw	x0, w0
    1e60:	f8607840 	ldr	x0, [x2, x0, lsl #3]
    1e64:	9ac12401 	lsr	x1, x0, x1
trace_timer_expire_exit():
/data3/home/yuanqiliang/code/arm-kernel/./include/trace/events/timer.h:121
    1e68:	3607fcc1 	tbz	w1, #0, 1e00 <call_timer_fn+0x30>
__read_once_size():
/data3/home/yuanqiliang/code/arm-kernel/./include/linux/compiler.h:193
    1e6c:	90000000 	adrp	x0, 0 <__round_jiffies>
    1e70:	91000000 	add	x0, x0, #0x0
    1e74:	f9404413 	ldr	x19, [x0, #136]
trace_timer_expire_exit():
/data3/home/yuanqiliang/code/arm-kernel/./include/trace/events/timer.h:121
    1e78:	b40000f3 	cbz	x19, 1e94 <call_timer_fn+0xc4>
    1e7c:	f9400262 	ldr	x2, [x19]
    1e80:	aa1403e1 	mov	x1, x20
    1e84:	f9400660 	ldr	x0, [x19, #8]
    1e88:	d63f0040 	blr	x2
    1e8c:	f8418e62 	ldr	x2, [x19, #24]!
    1e90:	b5ffff82 	cbnz	x2, 1e80 <call_timer_fn+0xb0>
    1e94:	17ffffdb 	b	1e00 <call_timer_fn+0x30>
trace_timer_expire_entry():
/data3/home/yuanqiliang/code/arm-kernel/./include/trace/events/timer.h:90
TRACE_EVENT(timer_expire_entry,
    1e98:	90000000 	adrp	x0, 0 <cpu_number>
    1e9c:	91000000 	add	x0, x0, #0x0
__my_cpu_offset():
/data3/home/yuanqiliang/code/arm-kernel/./arch/arm64/include/asm/percpu.h:30
    1ea0:	d538d081 	mrs	x1, tpidr_el1
trace_timer_expire_entry():
/data3/home/yuanqiliang/code/arm-kernel/./include/trace/events/timer.h:90
    1ea4:	b8616801 	ldr	w1, [x0, x1]
test_bit():
/data3/home/yuanqiliang/code/arm-kernel/./include/asm-generic/bitops/non-atomic.h:106
    1ea8:	90000002 	adrp	x2, 0 <__cpu_online_mask>
    1eac:	91000042 	add	x2, x2, #0x0
    1eb0:	7100003f 	cmp	w1, #0x0
    1eb4:	1100fc20 	add	w0, w1, #0x3f
    1eb8:	1a81b000 	csel	w0, w0, w1, lt  // lt = tstop
    1ebc:	13067c00 	asr	w0, w0, #6
    1ec0:	93407c00 	sxtw	x0, w0
    1ec4:	f8607840 	ldr	x0, [x2, x0, lsl #3]
    1ec8:	9ac12401 	lsr	x1, x0, x1
trace_timer_expire_entry():
/data3/home/yuanqiliang/code/arm-kernel/./include/trace/events/timer.h:90
    1ecc:	3607f941 	tbz	w1, #0, 1df4 <call_timer_fn+0x24>
__read_once_size():
/data3/home/yuanqiliang/code/arm-kernel/./include/linux/compiler.h:193
    1ed0:	90000000 	adrp	x0, 0 <__round_jiffies>
    1ed4:	91000000 	add	x0, x0, #0x0
    1ed8:	f9402c13 	ldr	x19, [x0, #88]
trace_timer_expire_entry():
/data3/home/yuanqiliang/code/arm-kernel/./include/trace/events/timer.h:90
    1edc:	b4000113 	cbz	x19, 1efc <call_timer_fn+0x12c>
    1ee0:	f9400262 	ldr	x2, [x19]
    1ee4:	d503201f 	nop
    1ee8:	aa1403e1 	mov	x1, x20
    1eec:	f9400660 	ldr	x0, [x19, #8]
    1ef0:	d63f0040 	blr	x2
    1ef4:	f8418e62 	ldr	x2, [x19, #24]!
    1ef8:	b5ffff82 	cbnz	x2, 1ee8 <call_timer_fn+0x118>
call_timer_fn():
/data3/home/yuanqiliang/code/arm-kernel/kernel/time/timer.c:1327
	fn(timer);
    1efc:	aa1403e0 	mov	x0, x20
    1f00:	d63f02c0 	blr	x22
arch_static_branch():
/data3/home/yuanqiliang/code/arm-kernel/./arch/arm64/include/asm/jump_label.h:20
    1f04:	d503201f 	nop
    1f08:	17ffffbe 	b	1e00 <call_timer_fn+0x30>
__read_once_size():
/data3/home/yuanqiliang/code/arm-kernel/./include/linux/compiler.h:193 (discriminator 3)
    1f0c:	b9401003 	ldr	w3, [x0, #16]
call_timer_fn():
/data3/home/yuanqiliang/code/arm-kernel/kernel/time/timer.c:1333 (discriminator 3)
		WARN_ONCE(1, "timer: %pF preempt leak: %08x -> %08x\n",
    1f10:	52800024 	mov	w4, #0x1                   	// #1
    1f14:	aa1603e1 	mov	x1, x22
    1f18:	39000044 	strb	w4, [x2]
    1f1c:	90000000 	adrp	x0, 0 <__round_jiffies>
    1f20:	2a1503e2 	mov	w2, w21
    1f24:	91000000 	add	x0, x0, #0x0
    1f28:	94000000 	bl	0 <__warn_printk>
    1f2c:	d4210000 	brk	#0x800
    1f30:	17ffffbb 	b	1e1c <call_timer_fn+0x4c>
    1f34:	d503201f 	nop

0000000000001f38 <init_timer_key>:
init_timer_key():
/data3/home/yuanqiliang/code/arm-kernel/kernel/time/timer.c:806
{
    1f38:	a9bc7bfd 	stp	x29, x30, [sp, #-64]!
    1f3c:	910003fd 	mov	x29, sp
    1f40:	a90153f3 	stp	x19, x20, [sp, #16]
    1f44:	a9025bf5 	stp	x21, x22, [sp, #32]
    1f48:	aa0003f5 	mov	x21, x0
    1f4c:	2a0203f6 	mov	w22, w2
    1f50:	f9001bf7 	str	x23, [sp, #48]
    1f54:	aa0103f7 	mov	x23, x1
arch_static_branch():
/data3/home/yuanqiliang/code/arm-kernel/./arch/arm64/include/asm/jump_label.h:20
    1f58:	d503201f 	nop
/data3/home/yuanqiliang/code/arm-kernel/./arch/arm64/include/asm/jump_label.h:27
		 ".align 3\n\t"
		 ".quad 1b, %l[l_yes], %c0\n\t"
		 ".popsection\n\t"
		 :  :  "i"(&((char *)key)[branch]) :  : l_yes);

	return false;
    1f5c:	90000000 	adrp	x0, 0 <cpu_number>
    1f60:	910003e1 	mov	x1, sp
    1f64:	91000014 	add	x20, x0, #0x0
do_init_timer():
/data3/home/yuanqiliang/code/arm-kernel/kernel/time/timer.c:785
	timer->entry.pprev = NULL;
    1f68:	f90006bf 	str	xzr, [x21, #8]
/data3/home/yuanqiliang/code/arm-kernel/kernel/time/timer.c:787
	timer->flags = flags | raw_smp_processor_id();
    1f6c:	aa1403e0 	mov	x0, x20
/data3/home/yuanqiliang/code/arm-kernel/kernel/time/timer.c:786
	timer->function = func;
    1f70:	f9000eb7 	str	x23, [x21, #24]
__my_cpu_offset():
/data3/home/yuanqiliang/code/arm-kernel/./arch/arm64/include/asm/percpu.h:30
    1f74:	d538d081 	mrs	x1, tpidr_el1
do_init_timer():
/data3/home/yuanqiliang/code/arm-kernel/kernel/time/timer.c:787
	timer->flags = flags | raw_smp_processor_id();
    1f78:	b8616802 	ldr	w2, [x0, x1]
    1f7c:	2a160042 	orr	w2, w2, w22
    1f80:	b90022a2 	str	w2, [x21, #32]
init_timer_key():
/data3/home/yuanqiliang/code/arm-kernel/kernel/time/timer.c:809
}
    1f84:	a94153f3 	ldp	x19, x20, [sp, #16]
    1f88:	a9425bf5 	ldp	x21, x22, [sp, #32]
    1f8c:	f9401bf7 	ldr	x23, [sp, #48]
    1f90:	a8c47bfd 	ldp	x29, x30, [sp], #64
    1f94:	d65f03c0 	ret
trace_timer_init():
/data3/home/yuanqiliang/code/arm-kernel/./include/trace/events/timer.h:33
DEFINE_EVENT(timer_class, timer_init,
    1f98:	90000000 	adrp	x0, 0 <cpu_number>
    1f9c:	91000014 	add	x20, x0, #0x0
    1fa0:	aa1403e0 	mov	x0, x20
__my_cpu_offset():
/data3/home/yuanqiliang/code/arm-kernel/./arch/arm64/include/asm/percpu.h:34
			"mrs %0, tpidr_el2",
			ARM64_HAS_VIRT_HOST_EXTN)
		: "=r" (off) :
		"Q" (*(const unsigned long *)current_stack_pointer));
    1fa4:	910003e1 	mov	x1, sp
/data3/home/yuanqiliang/code/arm-kernel/./arch/arm64/include/asm/percpu.h:30
	asm(ALTERNATIVE("mrs %0, tpidr_el1",
    1fa8:	d538d082 	mrs	x2, tpidr_el1
trace_timer_init():
/data3/home/yuanqiliang/code/arm-kernel/./include/trace/events/timer.h:33
    1fac:	b8626802 	ldr	w2, [x0, x2]
test_bit():
/data3/home/yuanqiliang/code/arm-kernel/./include/asm-generic/bitops/non-atomic.h:106
    1fb0:	90000003 	adrp	x3, 0 <__cpu_online_mask>
    1fb4:	91000063 	add	x3, x3, #0x0
    1fb8:	7100005f 	cmp	w2, #0x0
    1fbc:	1100fc40 	add	w0, w2, #0x3f
    1fc0:	1a82b000 	csel	w0, w0, w2, lt  // lt = tstop
    1fc4:	13067c00 	asr	w0, w0, #6
    1fc8:	93407c00 	sxtw	x0, w0
    1fcc:	f8607860 	ldr	x0, [x3, x0, lsl #3]
    1fd0:	9ac22402 	lsr	x2, x0, x2
trace_timer_init():
/data3/home/yuanqiliang/code/arm-kernel/./include/trace/events/timer.h:33
    1fd4:	3607fca2 	tbz	w2, #0, 1f68 <init_timer_key+0x30>
__read_once_size():
/data3/home/yuanqiliang/code/arm-kernel/./include/linux/compiler.h:193
    1fd8:	90000000 	adrp	x0, 0 <__round_jiffies>
    1fdc:	91000000 	add	x0, x0, #0x0
    1fe0:	f9405c13 	ldr	x19, [x0, #184]
trace_timer_init():
/data3/home/yuanqiliang/code/arm-kernel/./include/trace/events/timer.h:33
    1fe4:	b4000113 	cbz	x19, 2004 <init_timer_key+0xcc>
    1fe8:	f9400262 	ldr	x2, [x19]
    1fec:	d503201f 	nop
    1ff0:	aa1503e1 	mov	x1, x21
    1ff4:	f9400660 	ldr	x0, [x19, #8]
    1ff8:	d63f0040 	blr	x2
    1ffc:	f8418e62 	ldr	x2, [x19, #24]!
    2000:	b5ffff82 	cbnz	x2, 1ff0 <init_timer_key+0xb8>
    2004:	910003e1 	mov	x1, sp
    2008:	17ffffd8 	b	1f68 <init_timer_key+0x30>
init_timer_key():
/data3/home/yuanqiliang/code/arm-kernel/./include/trace/events/timer.h:33
    200c:	d503201f 	nop

0000000000002010 <del_timer>:
del_timer():
/data3/home/yuanqiliang/code/arm-kernel/kernel/time/timer.c:1201
	if (timer_pending(timer)) {
    2010:	f9400402 	ldr	x2, [x0, #8]
    2014:	b4000262 	cbz	x2, 2060 <del_timer+0x50>
/data3/home/yuanqiliang/code/arm-kernel/kernel/time/timer.c:1194
{
    2018:	a9bd7bfd 	stp	x29, x30, [sp, #-48]!
    201c:	910003fd 	mov	x29, sp
/data3/home/yuanqiliang/code/arm-kernel/kernel/time/timer.c:1202
		base = lock_timer_base(timer, &flags);
    2020:	9100a3e1 	add	x1, sp, #0x28
/data3/home/yuanqiliang/code/arm-kernel/kernel/time/timer.c:1194
{
    2024:	a90153f3 	stp	x19, x20, [sp, #16]
    2028:	aa0003f3 	mov	x19, x0
/data3/home/yuanqiliang/code/arm-kernel/kernel/time/timer.c:1202
		base = lock_timer_base(timer, &flags);
    202c:	97fffe9f 	bl	1aa8 <lock_timer_base>
    2030:	aa0003f4 	mov	x20, x0
/data3/home/yuanqiliang/code/arm-kernel/kernel/time/timer.c:1203
		ret = detach_if_pending(timer, base, true);
    2034:	aa1403e1 	mov	x1, x20
    2038:	52800022 	mov	w2, #0x1                   	// #1
    203c:	aa1303e0 	mov	x0, x19
    2040:	97fff94e 	bl	578 <detach_if_pending>
queued_spin_unlock():
/data3/home/yuanqiliang/code/arm-kernel/./include/asm-generic/qspinlock.h:101
    2044:	52800002 	mov	w2, #0x0                   	// #0
del_timer():
/data3/home/yuanqiliang/code/arm-kernel/kernel/time/timer.c:1204
		raw_spin_unlock_irqrestore(&base->lock, flags);
    2048:	f94017e1 	ldr	x1, [sp, #40]
queued_spin_unlock():
/data3/home/yuanqiliang/code/arm-kernel/./include/asm-generic/qspinlock.h:101
    204c:	089ffe82 	stlrb	w2, [x20]
arch_local_irq_restore():
/data3/home/yuanqiliang/code/arm-kernel/./arch/arm64/include/asm/irqflags.h:77
    2050:	d51b4221 	msr	daif, x1
del_timer():
/data3/home/yuanqiliang/code/arm-kernel/kernel/time/timer.c:1208
}
    2054:	a94153f3 	ldp	x19, x20, [sp, #16]
    2058:	a8c37bfd 	ldp	x29, x30, [sp], #48
    205c:	d65f03c0 	ret
/data3/home/yuanqiliang/code/arm-kernel/kernel/time/timer.c:1197
	int ret = 0;
    2060:	52800000 	mov	w0, #0x0                   	// #0
/data3/home/yuanqiliang/code/arm-kernel/kernel/time/timer.c:1208
}
    2064:	d65f03c0 	ret

0000000000002068 <trigger_dyntick_cpu.isra.3>:
trigger_dyntick_cpu():
/data3/home/yuanqiliang/code/arm-kernel/kernel/time/timer.c:553
trigger_dyntick_cpu(struct timer_base *base, struct timer_list *timer)
    2068:	a9bf7bfd 	stp	x29, x30, [sp, #-16]!
    206c:	910003fd 	mov	x29, sp
arch_static_branch():
/data3/home/yuanqiliang/code/arm-kernel/./arch/arm64/include/asm/jump_label.h:20
	asm_volatile_goto("1: nop\n\t"
    2070:	d503201f 	nop
trigger_dyntick_cpu():
/data3/home/yuanqiliang/code/arm-kernel/kernel/time/timer.c:586
}
    2074:	a8c17bfd 	ldp	x29, x30, [sp], #16
    2078:	d65f03c0 	ret
/data3/home/yuanqiliang/code/arm-kernel/kernel/time/timer.c:562
	if (timer->flags & TIMER_DEFERRABLE) {
    207c:	b9400042 	ldr	w2, [x2]
    2080:	379fffa2 	tbnz	w2, #19, 2074 <trigger_dyntick_cpu.isra.3+0xc>
/data3/home/yuanqiliang/code/arm-kernel/kernel/time/timer.c:573
	if (!base->is_idle)
    2084:	39409002 	ldrb	w2, [x0, #36]
    2088:	34ffff62 	cbz	w2, 2074 <trigger_dyntick_cpu.isra.3+0xc>
/data3/home/yuanqiliang/code/arm-kernel/kernel/time/timer.c:577
	if (time_after_eq(timer->expires, base->next_expiry))
    208c:	f9400022 	ldr	x2, [x1]
    2090:	f9400c01 	ldr	x1, [x0, #24]
    2094:	eb01005f 	cmp	x2, x1
    2098:	54fffee5 	b.pl	2074 <trigger_dyntick_cpu.isra.3+0xc>  // b.nfrst
/data3/home/yuanqiliang/code/arm-kernel/kernel/time/timer.c:584
	base->next_expiry = timer->expires;
    209c:	aa0003e1 	mov	x1, x0
/data3/home/yuanqiliang/code/arm-kernel/kernel/time/timer.c:585
	wake_up_nohz_cpu(base->cpu);
    20a0:	b9402000 	ldr	w0, [x0, #32]
/data3/home/yuanqiliang/code/arm-kernel/kernel/time/timer.c:584
	base->next_expiry = timer->expires;
    20a4:	f9000c22 	str	x2, [x1, #24]
/data3/home/yuanqiliang/code/arm-kernel/kernel/time/timer.c:585
	wake_up_nohz_cpu(base->cpu);
    20a8:	94000000 	bl	0 <wake_up_nohz_cpu>
    20ac:	17fffff2 	b	2074 <trigger_dyntick_cpu.isra.3+0xc>

00000000000020b0 <internal_add_timer>:
internal_add_timer():
/data3/home/yuanqiliang/code/arm-kernel/kernel/time/timer.c:590
{
    20b0:	aa0103e7 	mov	x7, x1
    20b4:	aa0003e8 	mov	x8, x0
    20b8:	a9bf7bfd 	stp	x29, x30, [sp, #-16]!
    20bc:	910003fd 	mov	x29, sp
/data3/home/yuanqiliang/code/arm-kernel/kernel/time/timer.c:591
	__internal_add_timer(base, timer);
    20c0:	97fff920 	bl	540 <__internal_add_timer>
/data3/home/yuanqiliang/code/arm-kernel/kernel/time/timer.c:592
	trigger_dyntick_cpu(base, timer);
    20c4:	aa0803e0 	mov	x0, x8
    20c8:	910080e2 	add	x2, x7, #0x20
    20cc:	910040e1 	add	x1, x7, #0x10
    20d0:	97ffffe6 	bl	2068 <trigger_dyntick_cpu.isra.3>
/data3/home/yuanqiliang/code/arm-kernel/kernel/time/timer.c:593
}
    20d4:	a8c17bfd 	ldp	x29, x30, [sp], #16
    20d8:	d65f03c0 	ret
    20dc:	d503201f 	nop

00000000000020e0 <mod_timer_pending>:
mod_timer_pending():
/data3/home/yuanqiliang/code/arm-kernel/kernel/time/timer.c:1076
{
    20e0:	a9b97bfd 	stp	x29, x30, [sp, #-112]!
    20e4:	910003fd 	mov	x29, sp
__mod_timer():
/data3/home/yuanqiliang/code/arm-kernel/kernel/time/timer.c:959
	BUG_ON(!timer->function);
    20e8:	f9400c02 	ldr	x2, [x0, #24]
    20ec:	a90153f3 	stp	x19, x20, [sp, #16]
    20f0:	a9025bf5 	stp	x21, x22, [sp, #32]
    20f4:	a90363f7 	stp	x23, x24, [sp, #48]
    20f8:	a9046bf9 	stp	x25, x26, [sp, #64]
    20fc:	b4001242 	cbz	x2, 2344 <mod_timer_pending+0x264>
timer_pending():
/data3/home/yuanqiliang/code/arm-kernel/./include/linux/timer.h:156
    2100:	aa0103f6 	mov	x22, x1
    2104:	aa0003f3 	mov	x19, x0
__mod_timer():
/data3/home/yuanqiliang/code/arm-kernel/kernel/time/timer.c:966
	if (timer_pending(timer)) {
    2108:	f9400401 	ldr	x1, [x0, #8]
    210c:	b4000b01 	cbz	x1, 226c <mod_timer_pending+0x18c>
/data3/home/yuanqiliang/code/arm-kernel/kernel/time/timer.c:974
		if (!diff)
    2110:	f9400801 	ldr	x1, [x0, #16]
/data3/home/yuanqiliang/code/arm-kernel/kernel/time/timer.c:975
			return 1;
    2114:	52800037 	mov	w23, #0x1                   	// #1
/data3/home/yuanqiliang/code/arm-kernel/kernel/time/timer.c:974
		if (!diff)
    2118:	eb0102df 	cmp	x22, x1
    211c:	54000960 	b.eq	2248 <mod_timer_pending+0x168>  // b.none
/data3/home/yuanqiliang/code/arm-kernel/kernel/time/timer.c:985
		base = lock_timer_base(timer, &flags);
    2120:	9101a3e1 	add	x1, sp, #0x68
    2124:	97fffe61 	bl	1aa8 <lock_timer_base>
    2128:	aa0003f4 	mov	x20, x0
forward_timer_base():
/data3/home/yuanqiliang/code/arm-kernel/kernel/time/timer.c:891
	if (likely(!base->must_forward_clk))
    212c:	39409400 	ldrb	w0, [x0, #37]
    2130:	350012e0 	cbnz	w0, 238c <mod_timer_pending+0x2ac>
    2134:	f9400a99 	ldr	x25, [x20, #16]
__mod_timer():
/data3/home/yuanqiliang/code/arm-kernel/kernel/time/timer.c:995
		idx = calc_wheel_index(expires, clk);
    2138:	aa1903e1 	mov	x1, x25
    213c:	aa1603e0 	mov	x0, x22
    2140:	97fff898 	bl	3a0 <calc_wheel_index>
    2144:	2a0003fa 	mov	w26, w0
timer_get_idx():
/data3/home/yuanqiliang/code/arm-kernel/kernel/time/timer.c:476
	return (timer->flags & TIMER_ARRAYMASK) >> TIMER_ARRAYSHIFT;
    2148:	b9402260 	ldr	w0, [x19, #32]
__mod_timer():
/data3/home/yuanqiliang/code/arm-kernel/kernel/time/timer.c:1002
		if (idx == timer_get_idx(timer)) {
    214c:	6b405b5f 	cmp	w26, w0, lsr #22
    2150:	54000ec0 	b.eq	2328 <mod_timer_pending+0x248>  // b.none
/data3/home/yuanqiliang/code/arm-kernel/kernel/time/timer.c:1015
	ret = detach_if_pending(timer, base, false);
    2154:	52800002 	mov	w2, #0x0                   	// #0
    2158:	aa1403e1 	mov	x1, x20
    215c:	aa1303e0 	mov	x0, x19
    2160:	97fff906 	bl	578 <detach_if_pending>
    2164:	2a0003f7 	mov	w23, w0
/data3/home/yuanqiliang/code/arm-kernel/kernel/time/timer.c:1016
	if (!ret && (options & MOD_TIMER_PENDING_ONLY))
    2168:	34000680 	cbz	w0, 2238 <mod_timer_pending+0x158>
/data3/home/yuanqiliang/code/arm-kernel/kernel/time/timer.c:1019
	new_base = get_target_base(base, timer->flags);
    216c:	f9002bfb 	str	x27, [sp, #80]
    2170:	b940227b 	ldr	w27, [x19, #32]
arch_static_branch_jump():
/data3/home/yuanqiliang/code/arm-kernel/./arch/arm64/include/asm/jump_label.h:34
	return true;
}

static __always_inline bool arch_static_branch_jump(struct static_key *key, bool branch)
{
	asm_volatile_goto("1: b %l[l_yes]\n\t"
    2174:	1400003c 	b	2264 <mod_timer_pending+0x184>
get_target_base():
/data3/home/yuanqiliang/code/arm-kernel/kernel/time/timer.c:874
	if (static_branch_likely(&timers_migration_enabled) &&
    2178:	120d0378 	and	w24, w27, #0x80000
    217c:	36a0137b 	tbz	w27, #20, 23e8 <mod_timer_pending+0x308>
get_timer_this_cpu_base():
/data3/home/yuanqiliang/code/arm-kernel/kernel/time/timer.c:854
	struct timer_base *base = this_cpu_ptr(&timer_bases[BASE_STD]);
    2180:	90000015 	adrp	x21, 0 <__round_jiffies>
    2184:	910002b5 	add	x21, x21, #0x0
    2188:	aa1503e0 	mov	x0, x21
__my_cpu_offset():
/data3/home/yuanqiliang/code/arm-kernel/./arch/arm64/include/asm/percpu.h:30
    218c:	d538d095 	mrs	x21, tpidr_el1
get_timer_this_cpu_base():
/data3/home/yuanqiliang/code/arm-kernel/kernel/time/timer.c:860
	if (IS_ENABLED(CONFIG_NO_HZ_COMMON) && (tflags & TIMER_DEFERRABLE))
    2190:	34000078 	cbz	w24, 219c <mod_timer_pending+0xbc>
/data3/home/yuanqiliang/code/arm-kernel/kernel/time/timer.c:861
		base = this_cpu_ptr(&timer_bases[BASE_DEF]);
    2194:	90000000 	adrp	x0, 0 <__round_jiffies>
    2198:	91000000 	add	x0, x0, #0x0
    219c:	8b150015 	add	x21, x0, x21
__mod_timer():
/data3/home/yuanqiliang/code/arm-kernel/kernel/time/timer.c:1021
	if (base != new_base) {
    21a0:	eb15029f 	cmp	x20, x21
    21a4:	54000d40 	b.eq	234c <mod_timer_pending+0x26c>  // b.none
/data3/home/yuanqiliang/code/arm-kernel/kernel/time/timer.c:1029
		if (likely(base->running_timer != timer)) {
    21a8:	f9400680 	ldr	x0, [x20, #8]
    21ac:	eb00027f 	cmp	x19, x0
    21b0:	54001320 	b.eq	2414 <mod_timer_pending+0x334>  // b.none
/data3/home/yuanqiliang/code/arm-kernel/kernel/time/timer.c:1031
			timer->flags |= TIMER_MIGRATING;
    21b4:	320e037b 	orr	w27, w27, #0x40000
queued_spin_unlock():
/data3/home/yuanqiliang/code/arm-kernel/./include/asm-generic/qspinlock.h:101
    21b8:	52800000 	mov	w0, #0x0                   	// #0
__mod_timer():
/data3/home/yuanqiliang/code/arm-kernel/kernel/time/timer.c:1031
    21bc:	b900227b 	str	w27, [x19, #32]
queued_spin_unlock():
/data3/home/yuanqiliang/code/arm-kernel/./include/asm-generic/qspinlock.h:101
    21c0:	089ffe80 	stlrb	w0, [x20]
__cmpxchg_case_acq_4():
/data3/home/yuanqiliang/code/arm-kernel/./arch/arm64/include/asm/atomic_ll_sc.h:272
    21c4:	d2800000 	mov	x0, #0x0                   	// #0
do_raw_spin_lock():
/data3/home/yuanqiliang/code/arm-kernel/./include/linux/spinlock.h:180
 extern void do_raw_spin_unlock(raw_spinlock_t *lock) __releases(lock);
#else
static inline void do_raw_spin_lock(raw_spinlock_t *lock) __acquires(lock)
{
	__acquire(lock);
	arch_spin_lock(&lock->raw_lock);
    21c8:	aa1503f4 	mov	x20, x21
__cmpxchg_case_acq_4():
/data3/home/yuanqiliang/code/arm-kernel/./arch/arm64/include/asm/atomic_ll_sc.h:272
    21cc:	d2800022 	mov	x2, #0x1                   	// #1
    21d0:	f98002b1 	prfm	pstl1strm, [x21]
    21d4:	885ffea1 	ldaxr	w1, [x21]
    21d8:	4a000023 	eor	w3, w1, w0
    21dc:	35000063 	cbnz	w3, 21e8 <mod_timer_pending+0x108>
    21e0:	88037ea2 	stxr	w3, w2, [x21]
    21e4:	35ffff83 	cbnz	w3, 21d4 <mod_timer_pending+0xf4>
queued_spin_lock():
/data3/home/yuanqiliang/code/arm-kernel/./include/asm-generic/qspinlock.h:86
	if (likely(val == 0))
    21e8:	350011a1 	cbnz	w1, 241c <mod_timer_pending+0x33c>
__mod_timer():
/data3/home/yuanqiliang/code/arm-kernel/kernel/time/timer.c:1036
			WRITE_ONCE(timer->flags,
    21ec:	b9402260 	ldr	w0, [x19, #32]
    21f0:	b94022a1 	ldr	w1, [x21, #32]
    21f4:	120d3000 	and	w0, w0, #0xfff80000
    21f8:	2a010000 	orr	w0, w0, w1
__write_once_size():
/data3/home/yuanqiliang/code/arm-kernel/./include/linux/compiler.h:219
	case 4: *(volatile __u32 *)p = *(__u32 *)res; break;
    21fc:	b9002260 	str	w0, [x19, #32]
forward_timer_base():
/data3/home/yuanqiliang/code/arm-kernel/kernel/time/timer.c:891
	if (likely(!base->must_forward_clk))
    2200:	394096a0 	ldrb	w0, [x21, #37]
    2204:	35000a80 	cbnz	w0, 2354 <mod_timer_pending+0x274>
    2208:	b940227b 	ldr	w27, [x19, #32]
arch_static_branch():
/data3/home/yuanqiliang/code/arm-kernel/./arch/arm64/include/asm/jump_label.h:20
	asm_volatile_goto("1: nop\n\t"
    220c:	d503201f 	nop
__mod_timer():
/data3/home/yuanqiliang/code/arm-kernel/kernel/time/timer.c:1044
	timer->expires = expires;
    2210:	f9000a76 	str	x22, [x19, #16]
/data3/home/yuanqiliang/code/arm-kernel/kernel/time/timer.c:1052
	if (idx != UINT_MAX && clk == base->clk) {
    2214:	3100075f 	cmn	w26, #0x1
    2218:	54000080 	b.eq	2228 <mod_timer_pending+0x148>  // b.none
    221c:	f9400aa0 	ldr	x0, [x21, #16]
    2220:	eb19001f 	cmp	x0, x25
    2224:	54000ce0 	b.eq	23c0 <mod_timer_pending+0x2e0>  // b.none
/data3/home/yuanqiliang/code/arm-kernel/kernel/time/timer.c:1056
		internal_add_timer(base, timer);
    2228:	aa1303e1 	mov	x1, x19
    222c:	aa1503e0 	mov	x0, x21
    2230:	97ffffa0 	bl	20b0 <internal_add_timer>
    2234:	f9402bfb 	ldr	x27, [sp, #80]
queued_spin_unlock():
/data3/home/yuanqiliang/code/arm-kernel/./include/asm-generic/qspinlock.h:101
	smp_store_release(&lock->locked, 0);
    2238:	52800001 	mov	w1, #0x0                   	// #0
__mod_timer():
/data3/home/yuanqiliang/code/arm-kernel/kernel/time/timer.c:1060
	raw_spin_unlock_irqrestore(&base->lock, flags);
    223c:	f94037e0 	ldr	x0, [sp, #104]
queued_spin_unlock():
/data3/home/yuanqiliang/code/arm-kernel/./include/asm-generic/qspinlock.h:101
    2240:	089ffe81 	stlrb	w1, [x20]
arch_local_irq_restore():
/data3/home/yuanqiliang/code/arm-kernel/./arch/arm64/include/asm/irqflags.h:77
    2244:	d51b4220 	msr	daif, x0
mod_timer_pending():
/data3/home/yuanqiliang/code/arm-kernel/kernel/time/timer.c:1078
}
    2248:	2a1703e0 	mov	w0, w23
    224c:	a94153f3 	ldp	x19, x20, [sp, #16]
    2250:	a9425bf5 	ldp	x21, x22, [sp, #32]
    2254:	a94363f7 	ldp	x23, x24, [sp, #48]
    2258:	a9446bf9 	ldp	x25, x26, [sp, #64]
    225c:	a8c77bfd 	ldp	x29, x30, [sp], #112
    2260:	d65f03c0 	ret
    2264:	120d0378 	and	w24, w27, #0x80000
    2268:	17ffffc6 	b	2180 <mod_timer_pending+0xa0>
__mod_timer():
/data3/home/yuanqiliang/code/arm-kernel/kernel/time/timer.c:1011
		base = lock_timer_base(timer, &flags);
    226c:	9101a3e1 	add	x1, sp, #0x68
    2270:	97fffe0e 	bl	1aa8 <lock_timer_base>
    2274:	aa0003f4 	mov	x20, x0
forward_timer_base():
/data3/home/yuanqiliang/code/arm-kernel/kernel/time/timer.c:891
	if (likely(!base->must_forward_clk))
    2278:	39409400 	ldrb	w0, [x0, #37]
__mod_timer():
/data3/home/yuanqiliang/code/arm-kernel/kernel/time/timer.c:956
	unsigned long clk = 0, flags;
    227c:	d2800019 	mov	x25, #0x0                   	// #0
/data3/home/yuanqiliang/code/arm-kernel/kernel/time/timer.c:955
	unsigned int idx = UINT_MAX;
    2280:	1280001a 	mov	w26, #0xffffffff            	// #-1
forward_timer_base():
/data3/home/yuanqiliang/code/arm-kernel/kernel/time/timer.c:891
	if (likely(!base->must_forward_clk))
    2284:	34fff680 	cbz	w0, 2154 <mod_timer_pending+0x74>
__read_once_size():
/data3/home/yuanqiliang/code/arm-kernel/./include/linux/compiler.h:193
	__READ_ONCE_SIZE;
    2288:	90000001 	adrp	x1, 0 <jiffies>
forward_timer_base():
/data3/home/yuanqiliang/code/arm-kernel/kernel/time/timer.c:895
	base->must_forward_clk = base->is_idle;
    228c:	39409282 	ldrb	w2, [x20, #36]
/data3/home/yuanqiliang/code/arm-kernel/kernel/time/timer.c:896
	if ((long)(jnow - base->clk) < 2)
    2290:	f9400a80 	ldr	x0, [x20, #16]
/data3/home/yuanqiliang/code/arm-kernel/kernel/time/timer.c:895
	base->must_forward_clk = base->is_idle;
    2294:	39009682 	strb	w2, [x20, #37]
__read_once_size():
/data3/home/yuanqiliang/code/arm-kernel/./include/linux/compiler.h:193
    2298:	f9400021 	ldr	x1, [x1]
forward_timer_base():
/data3/home/yuanqiliang/code/arm-kernel/kernel/time/timer.c:896
	if ((long)(jnow - base->clk) < 2)
    229c:	cb000020 	sub	x0, x1, x0
    22a0:	f100041f 	cmp	x0, #0x1
    22a4:	54fff58d 	b.le	2154 <mod_timer_pending+0x74>
/data3/home/yuanqiliang/code/arm-kernel/kernel/time/timer.c:903
	if (time_after(base->next_expiry, jnow))
    22a8:	f9400e80 	ldr	x0, [x20, #24]
    22ac:	eb00003f 	cmp	x1, x0
    22b0:	54000d44 	b.mi	2458 <mod_timer_pending+0x378>  // b.first
/data3/home/yuanqiliang/code/arm-kernel/kernel/time/timer.c:906
		base->clk = base->next_expiry;
    22b4:	f9000a80 	str	x0, [x20, #16]
    22b8:	17ffffa7 	b	2154 <mod_timer_pending+0x74>
trace_timer_start():
/data3/home/yuanqiliang/code/arm-kernel/./include/trace/events/timer.h:52
TRACE_EVENT(timer_start,
    22bc:	90000000 	adrp	x0, 0 <cpu_number>
    22c0:	91000000 	add	x0, x0, #0x0
__my_cpu_offset():
/data3/home/yuanqiliang/code/arm-kernel/./arch/arm64/include/asm/percpu.h:30
    22c4:	d538d081 	mrs	x1, tpidr_el1
trace_timer_start():
/data3/home/yuanqiliang/code/arm-kernel/./include/trace/events/timer.h:52
    22c8:	b8616801 	ldr	w1, [x0, x1]
test_bit():
/data3/home/yuanqiliang/code/arm-kernel/./include/asm-generic/bitops/non-atomic.h:106
    22cc:	90000002 	adrp	x2, 0 <__cpu_online_mask>
    22d0:	91000042 	add	x2, x2, #0x0
    22d4:	7100003f 	cmp	w1, #0x0
    22d8:	1100fc20 	add	w0, w1, #0x3f
    22dc:	1a81b000 	csel	w0, w0, w1, lt  // lt = tstop
    22e0:	13067c00 	asr	w0, w0, #6
    22e4:	93407c00 	sxtw	x0, w0
    22e8:	f8607840 	ldr	x0, [x2, x0, lsl #3]
    22ec:	9ac12401 	lsr	x1, x0, x1
trace_timer_start():
/data3/home/yuanqiliang/code/arm-kernel/./include/trace/events/timer.h:52
    22f0:	3607f901 	tbz	w1, #0, 2210 <mod_timer_pending+0x130>
__read_once_size():
/data3/home/yuanqiliang/code/arm-kernel/./include/linux/compiler.h:193
    22f4:	90000000 	adrp	x0, 0 <__round_jiffies>
    22f8:	91000000 	add	x0, x0, #0x0
    22fc:	f9407418 	ldr	x24, [x0, #232]
trace_timer_start():
/data3/home/yuanqiliang/code/arm-kernel/./include/trace/events/timer.h:52
    2300:	b4000138 	cbz	x24, 2324 <mod_timer_pending+0x244>
    2304:	f9400304 	ldr	x4, [x24]
    2308:	2a1b03e3 	mov	w3, w27
    230c:	f9400700 	ldr	x0, [x24, #8]
    2310:	aa1603e2 	mov	x2, x22
    2314:	aa1303e1 	mov	x1, x19
    2318:	d63f0080 	blr	x4
    231c:	f8418f04 	ldr	x4, [x24, #24]!
    2320:	b5ffff44 	cbnz	x4, 2308 <mod_timer_pending+0x228>
    2324:	17ffffbb 	b	2210 <mod_timer_pending+0x130>
__mod_timer():
/data3/home/yuanqiliang/code/arm-kernel/kernel/time/timer.c:1007
			ret = 1;
    2328:	52800037 	mov	w23, #0x1                   	// #1
queued_spin_unlock():
/data3/home/yuanqiliang/code/arm-kernel/./include/asm-generic/qspinlock.h:101
    232c:	52800001 	mov	w1, #0x0                   	// #0
__mod_timer():
/data3/home/yuanqiliang/code/arm-kernel/kernel/time/timer.c:1004
				timer->expires = expires;
    2330:	f9000a76 	str	x22, [x19, #16]
/data3/home/yuanqiliang/code/arm-kernel/kernel/time/timer.c:1060
	raw_spin_unlock_irqrestore(&base->lock, flags);
    2334:	f94037e0 	ldr	x0, [sp, #104]
queued_spin_unlock():
/data3/home/yuanqiliang/code/arm-kernel/./include/asm-generic/qspinlock.h:101
    2338:	089ffe81 	stlrb	w1, [x20]
arch_local_irq_restore():
/data3/home/yuanqiliang/code/arm-kernel/./arch/arm64/include/asm/irqflags.h:77
    233c:	d51b4220 	msr	daif, x0
__mod_timer():
/data3/home/yuanqiliang/code/arm-kernel/kernel/time/timer.c:1062
	return ret;
    2340:	17ffffc2 	b	2248 <mod_timer_pending+0x168>
    2344:	f9002bfb 	str	x27, [sp, #80]
/data3/home/yuanqiliang/code/arm-kernel/kernel/time/timer.c:959
	BUG_ON(!timer->function);
    2348:	d4210000 	brk	#0x800
    234c:	aa1503f4 	mov	x20, x21
    2350:	17ffffaf 	b	220c <mod_timer_pending+0x12c>
__read_once_size():
/data3/home/yuanqiliang/code/arm-kernel/./include/linux/compiler.h:193
    2354:	90000001 	adrp	x1, 0 <jiffies>
forward_timer_base():
/data3/home/yuanqiliang/code/arm-kernel/kernel/time/timer.c:895
	base->must_forward_clk = base->is_idle;
    2358:	394092a2 	ldrb	w2, [x21, #36]
/data3/home/yuanqiliang/code/arm-kernel/kernel/time/timer.c:896
	if ((long)(jnow - base->clk) < 2)
    235c:	f9400aa0 	ldr	x0, [x21, #16]
/data3/home/yuanqiliang/code/arm-kernel/kernel/time/timer.c:895
	base->must_forward_clk = base->is_idle;
    2360:	390096a2 	strb	w2, [x21, #37]
__read_once_size():
/data3/home/yuanqiliang/code/arm-kernel/./include/linux/compiler.h:193
    2364:	f9400021 	ldr	x1, [x1]
forward_timer_base():
/data3/home/yuanqiliang/code/arm-kernel/kernel/time/timer.c:896
	if ((long)(jnow - base->clk) < 2)
    2368:	cb000020 	sub	x0, x1, x0
    236c:	f100041f 	cmp	x0, #0x1
    2370:	54fff4cd 	b.le	2208 <mod_timer_pending+0x128>
/data3/home/yuanqiliang/code/arm-kernel/kernel/time/timer.c:903
	if (time_after(base->next_expiry, jnow))
    2374:	f9400ea0 	ldr	x0, [x21, #24]
    2378:	eb00003f 	cmp	x1, x0
    237c:	54000684 	b.mi	244c <mod_timer_pending+0x36c>  // b.first
/data3/home/yuanqiliang/code/arm-kernel/kernel/time/timer.c:906
		base->clk = base->next_expiry;
    2380:	f9000aa0 	str	x0, [x21, #16]
    2384:	b940227b 	ldr	w27, [x19, #32]
    2388:	17ffffa1 	b	220c <mod_timer_pending+0x12c>
__read_once_size():
/data3/home/yuanqiliang/code/arm-kernel/./include/linux/compiler.h:193
    238c:	90000000 	adrp	x0, 0 <jiffies>
forward_timer_base():
/data3/home/yuanqiliang/code/arm-kernel/kernel/time/timer.c:895
	base->must_forward_clk = base->is_idle;
    2390:	39409281 	ldrb	w1, [x20, #36]
/data3/home/yuanqiliang/code/arm-kernel/kernel/time/timer.c:896
	if ((long)(jnow - base->clk) < 2)
    2394:	f9400a99 	ldr	x25, [x20, #16]
/data3/home/yuanqiliang/code/arm-kernel/kernel/time/timer.c:895
	base->must_forward_clk = base->is_idle;
    2398:	39009681 	strb	w1, [x20, #37]
__read_once_size():
/data3/home/yuanqiliang/code/arm-kernel/./include/linux/compiler.h:193
    239c:	f9400000 	ldr	x0, [x0]
forward_timer_base():
/data3/home/yuanqiliang/code/arm-kernel/kernel/time/timer.c:896
	if ((long)(jnow - base->clk) < 2)
    23a0:	cb190001 	sub	x1, x0, x25
    23a4:	f100043f 	cmp	x1, #0x1
    23a8:	54ffec8d 	b.le	2138 <mod_timer_pending+0x58>
/data3/home/yuanqiliang/code/arm-kernel/kernel/time/timer.c:903
	if (time_after(base->next_expiry, jnow))
    23ac:	f9400e99 	ldr	x25, [x20, #24]
    23b0:	eb19001f 	cmp	x0, x25
    23b4:	540003a4 	b.mi	2428 <mod_timer_pending+0x348>  // b.first
/data3/home/yuanqiliang/code/arm-kernel/kernel/time/timer.c:906
		base->clk = base->next_expiry;
    23b8:	f9000a99 	str	x25, [x20, #16]
    23bc:	17ffff5f 	b	2138 <mod_timer_pending+0x58>
__mod_timer():
/data3/home/yuanqiliang/code/arm-kernel/kernel/time/timer.c:1053
		enqueue_timer(base, timer, idx);
    23c0:	2a1a03e2 	mov	w2, w26
    23c4:	aa1303e1 	mov	x1, x19
    23c8:	aa1503e0 	mov	x0, x21
    23cc:	97fff83f 	bl	4c8 <enqueue_timer>
/data3/home/yuanqiliang/code/arm-kernel/kernel/time/timer.c:1054
		trigger_dyntick_cpu(base, timer);
    23d0:	aa1503e0 	mov	x0, x21
    23d4:	91008262 	add	x2, x19, #0x20
    23d8:	91004261 	add	x1, x19, #0x10
    23dc:	97ffff23 	bl	2068 <trigger_dyntick_cpu.isra.3>
    23e0:	f9402bfb 	ldr	x27, [sp, #80]
    23e4:	17ffff95 	b	2238 <mod_timer_pending+0x158>
get_target_base():
/data3/home/yuanqiliang/code/arm-kernel/kernel/time/timer.c:876
		return get_timer_cpu_base(tflags, get_nohz_timer_target());
    23e8:	94000000 	bl	0 <get_nohz_timer_target>
get_timer_cpu_base():
/data3/home/yuanqiliang/code/arm-kernel/kernel/time/timer.c:841
	struct timer_base *base = per_cpu_ptr(&timer_bases[BASE_STD], cpu);
    23ec:	90000002 	adrp	x2, 0 <__per_cpu_offset>
    23f0:	91000042 	add	x2, x2, #0x0
    23f4:	90000001 	adrp	x1, 0 <__round_jiffies>
    23f8:	91000035 	add	x21, x1, #0x0
    23fc:	aa1503e1 	mov	x1, x21
    2400:	f8605842 	ldr	x2, [x2, w0, uxtw #3]
/data3/home/yuanqiliang/code/arm-kernel/kernel/time/timer.c:847
	if (IS_ENABLED(CONFIG_NO_HZ_COMMON) && (tflags & TIMER_DEFERRABLE))
    2404:	35000198 	cbnz	w24, 2434 <mod_timer_pending+0x354>
/data3/home/yuanqiliang/code/arm-kernel/kernel/time/timer.c:841
	struct timer_base *base = per_cpu_ptr(&timer_bases[BASE_STD], cpu);
    2408:	8b020035 	add	x21, x1, x2
    240c:	b940227b 	ldr	w27, [x19, #32]
    2410:	17ffff64 	b	21a0 <mod_timer_pending+0xc0>
__mod_timer():
/data3/home/yuanqiliang/code/arm-kernel/kernel/time/timer.c:1029
		if (likely(base->running_timer != timer)) {
    2414:	aa1403f5 	mov	x21, x20
    2418:	17ffff7d 	b	220c <mod_timer_pending+0x12c>
queued_spin_lock():
/data3/home/yuanqiliang/code/arm-kernel/./include/asm-generic/qspinlock.h:88
	queued_spin_lock_slowpath(lock, val);
    241c:	aa1503e0 	mov	x0, x21
    2420:	94000000 	bl	0 <queued_spin_lock_slowpath>
    2424:	17ffff72 	b	21ec <mod_timer_pending+0x10c>
forward_timer_base():
/data3/home/yuanqiliang/code/arm-kernel/kernel/time/timer.c:904
		base->clk = jnow;
    2428:	aa0003f9 	mov	x25, x0
    242c:	f9000a80 	str	x0, [x20, #16]
    2430:	17ffff42 	b	2138 <mod_timer_pending+0x58>
get_timer_cpu_base():
/data3/home/yuanqiliang/code/arm-kernel/kernel/time/timer.c:848
		base = per_cpu_ptr(&timer_bases[BASE_DEF], cpu);
    2434:	90000000 	adrp	x0, 0 <__round_jiffies>
    2438:	91000015 	add	x21, x0, #0x0
    243c:	aa1503e0 	mov	x0, x21
    2440:	b940227b 	ldr	w27, [x19, #32]
    2444:	8b000055 	add	x21, x2, x0
    2448:	17ffff56 	b	21a0 <mod_timer_pending+0xc0>
forward_timer_base():
/data3/home/yuanqiliang/code/arm-kernel/kernel/time/timer.c:904
		base->clk = jnow;
    244c:	f9000aa1 	str	x1, [x21, #16]
    2450:	b940227b 	ldr	w27, [x19, #32]
    2454:	17ffff6e 	b	220c <mod_timer_pending+0x12c>
    2458:	f9000a81 	str	x1, [x20, #16]
    245c:	17ffff3e 	b	2154 <mod_timer_pending+0x74>

0000000000002460 <mod_timer>:
mod_timer():
/data3/home/yuanqiliang/code/arm-kernel/kernel/time/timer.c:1102
{
    2460:	a9b97bfd 	stp	x29, x30, [sp, #-112]!
    2464:	910003fd 	mov	x29, sp
    2468:	a90153f3 	stp	x19, x20, [sp, #16]
    246c:	a9025bf5 	stp	x21, x22, [sp, #32]
    2470:	a90363f7 	stp	x23, x24, [sp, #48]
    2474:	a9046bf9 	stp	x25, x26, [sp, #64]
    2478:	f9002bfb 	str	x27, [sp, #80]
__mod_timer():
/data3/home/yuanqiliang/code/arm-kernel/kernel/time/timer.c:959
	BUG_ON(!timer->function);
    247c:	f9400c02 	ldr	x2, [x0, #24]
    2480:	b4001202 	cbz	x2, 26c0 <mod_timer+0x260>
timer_pending():
/data3/home/yuanqiliang/code/arm-kernel/./include/linux/timer.h:156
    2484:	aa0103f5 	mov	x21, x1
    2488:	aa0003f3 	mov	x19, x0
__mod_timer():
/data3/home/yuanqiliang/code/arm-kernel/kernel/time/timer.c:966
	if (timer_pending(timer)) {
    248c:	f9400401 	ldr	x1, [x0, #8]
    2490:	b4000e81 	cbz	x1, 2660 <mod_timer+0x200>
/data3/home/yuanqiliang/code/arm-kernel/kernel/time/timer.c:974
		if (!diff)
    2494:	f9400801 	ldr	x1, [x0, #16]
/data3/home/yuanqiliang/code/arm-kernel/kernel/time/timer.c:975
			return 1;
    2498:	52800038 	mov	w24, #0x1                   	// #1
/data3/home/yuanqiliang/code/arm-kernel/kernel/time/timer.c:974
		if (!diff)
    249c:	eb0102bf 	cmp	x21, x1
    24a0:	54000960 	b.eq	25cc <mod_timer+0x16c>  // b.none
/data3/home/yuanqiliang/code/arm-kernel/kernel/time/timer.c:985
		base = lock_timer_base(timer, &flags);
    24a4:	9101a3e1 	add	x1, sp, #0x68
    24a8:	97fffd80 	bl	1aa8 <lock_timer_base>
    24ac:	aa0003f6 	mov	x22, x0
forward_timer_base():
/data3/home/yuanqiliang/code/arm-kernel/kernel/time/timer.c:891
	if (likely(!base->must_forward_clk))
    24b0:	39409400 	ldrb	w0, [x0, #37]
    24b4:	35001560 	cbnz	w0, 2760 <mod_timer+0x300>
    24b8:	f9400ada 	ldr	x26, [x22, #16]
__mod_timer():
/data3/home/yuanqiliang/code/arm-kernel/kernel/time/timer.c:995
		idx = calc_wheel_index(expires, clk);
    24bc:	aa1a03e1 	mov	x1, x26
    24c0:	aa1503e0 	mov	x0, x21
    24c4:	97fff7b7 	bl	3a0 <calc_wheel_index>
    24c8:	2a0003f9 	mov	w25, w0
timer_get_idx():
/data3/home/yuanqiliang/code/arm-kernel/kernel/time/timer.c:476
	return (timer->flags & TIMER_ARRAYMASK) >> TIMER_ARRAYSHIFT;
    24cc:	b9402260 	ldr	w0, [x19, #32]
__mod_timer():
/data3/home/yuanqiliang/code/arm-kernel/kernel/time/timer.c:1002
		if (idx == timer_get_idx(timer)) {
    24d0:	6b405b3f 	cmp	w25, w0, lsr #22
    24d4:	54000ee0 	b.eq	26b0 <mod_timer+0x250>  // b.none
/data3/home/yuanqiliang/code/arm-kernel/kernel/time/timer.c:1015
	ret = detach_if_pending(timer, base, false);
    24d8:	52800002 	mov	w2, #0x0                   	// #0
    24dc:	aa1603e1 	mov	x1, x22
    24e0:	aa1303e0 	mov	x0, x19
    24e4:	97fff825 	bl	578 <detach_if_pending>
/data3/home/yuanqiliang/code/arm-kernel/kernel/time/timer.c:1019
	new_base = get_target_base(base, timer->flags);
    24e8:	b9402277 	ldr	w23, [x19, #32]
/data3/home/yuanqiliang/code/arm-kernel/kernel/time/timer.c:1015
	ret = detach_if_pending(timer, base, false);
    24ec:	2a0003f8 	mov	w24, w0
arch_static_branch_jump():
/data3/home/yuanqiliang/code/arm-kernel/./arch/arm64/include/asm/jump_label.h:34
	asm_volatile_goto("1: b %l[l_yes]\n\t"
    24f0:	1400005a 	b	2658 <mod_timer+0x1f8>
get_target_base():
/data3/home/yuanqiliang/code/arm-kernel/kernel/time/timer.c:874
	if (static_branch_likely(&timers_migration_enabled) &&
    24f4:	120d02fb 	and	w27, w23, #0x80000
    24f8:	36a00f97 	tbz	w23, #20, 26e8 <mod_timer+0x288>
get_timer_this_cpu_base():
/data3/home/yuanqiliang/code/arm-kernel/kernel/time/timer.c:854
	struct timer_base *base = this_cpu_ptr(&timer_bases[BASE_STD]);
    24fc:	90000014 	adrp	x20, 0 <__round_jiffies>
    2500:	91000294 	add	x20, x20, #0x0
    2504:	aa1403e0 	mov	x0, x20
__my_cpu_offset():
/data3/home/yuanqiliang/code/arm-kernel/./arch/arm64/include/asm/percpu.h:30
    2508:	d538d081 	mrs	x1, tpidr_el1
get_timer_this_cpu_base():
/data3/home/yuanqiliang/code/arm-kernel/kernel/time/timer.c:860
	if (IS_ENABLED(CONFIG_NO_HZ_COMMON) && (tflags & TIMER_DEFERRABLE))
    250c:	3400009b 	cbz	w27, 251c <mod_timer+0xbc>
/data3/home/yuanqiliang/code/arm-kernel/kernel/time/timer.c:861
		base = this_cpu_ptr(&timer_bases[BASE_DEF]);
    2510:	90000000 	adrp	x0, 0 <__round_jiffies>
    2514:	91000014 	add	x20, x0, #0x0
    2518:	aa1403e0 	mov	x0, x20
    251c:	8b010014 	add	x20, x0, x1
__mod_timer():
/data3/home/yuanqiliang/code/arm-kernel/kernel/time/timer.c:1021
	if (base != new_base) {
    2520:	aa1403fb 	mov	x27, x20
    2524:	eb1402df 	cmp	x22, x20
    2528:	54000360 	b.eq	2594 <mod_timer+0x134>  // b.none
/data3/home/yuanqiliang/code/arm-kernel/kernel/time/timer.c:1029
		if (likely(base->running_timer != timer)) {
    252c:	f94006c0 	ldr	x0, [x22, #8]
    2530:	aa1603fb 	mov	x27, x22
    2534:	eb00027f 	cmp	x19, x0
    2538:	540012e0 	b.eq	2794 <mod_timer+0x334>  // b.none
/data3/home/yuanqiliang/code/arm-kernel/kernel/time/timer.c:1031
			timer->flags |= TIMER_MIGRATING;
    253c:	320e02f7 	orr	w23, w23, #0x40000
queued_spin_unlock():
/data3/home/yuanqiliang/code/arm-kernel/./include/asm-generic/qspinlock.h:101
	smp_store_release(&lock->locked, 0);
    2540:	52800000 	mov	w0, #0x0                   	// #0
__mod_timer():
/data3/home/yuanqiliang/code/arm-kernel/kernel/time/timer.c:1031
    2544:	b9002277 	str	w23, [x19, #32]
queued_spin_unlock():
/data3/home/yuanqiliang/code/arm-kernel/./include/asm-generic/qspinlock.h:101
    2548:	089ffec0 	stlrb	w0, [x22]
__cmpxchg_case_acq_4():
/data3/home/yuanqiliang/code/arm-kernel/./arch/arm64/include/asm/atomic_ll_sc.h:272
    254c:	d2800000 	mov	x0, #0x0                   	// #0
do_raw_spin_lock():
/data3/home/yuanqiliang/code/arm-kernel/./include/linux/spinlock.h:180
    2550:	aa1403fb 	mov	x27, x20
__cmpxchg_case_acq_4():
/data3/home/yuanqiliang/code/arm-kernel/./arch/arm64/include/asm/atomic_ll_sc.h:272
    2554:	d2800022 	mov	x2, #0x1                   	// #1
    2558:	f9800291 	prfm	pstl1strm, [x20]
    255c:	885ffe81 	ldaxr	w1, [x20]
    2560:	4a000023 	eor	w3, w1, w0
    2564:	35000063 	cbnz	w3, 2570 <mod_timer+0x110>
    2568:	88037e82 	stxr	w3, w2, [x20]
    256c:	35ffff83 	cbnz	w3, 255c <mod_timer+0xfc>
queued_spin_lock():
/data3/home/yuanqiliang/code/arm-kernel/./include/asm-generic/qspinlock.h:86
	if (likely(val == 0))
    2570:	35001161 	cbnz	w1, 279c <mod_timer+0x33c>
__mod_timer():
/data3/home/yuanqiliang/code/arm-kernel/kernel/time/timer.c:1036
			WRITE_ONCE(timer->flags,
    2574:	b9402260 	ldr	w0, [x19, #32]
    2578:	b9402281 	ldr	w1, [x20, #32]
    257c:	120d3000 	and	w0, w0, #0xfff80000
    2580:	2a010000 	orr	w0, w0, w1
__write_once_size():
/data3/home/yuanqiliang/code/arm-kernel/./include/linux/compiler.h:219
	case 4: *(volatile __u32 *)p = *(__u32 *)res; break;
    2584:	b9002260 	str	w0, [x19, #32]
forward_timer_base():
/data3/home/yuanqiliang/code/arm-kernel/kernel/time/timer.c:891
	if (likely(!base->must_forward_clk))
    2588:	39409680 	ldrb	w0, [x20, #37]
    258c:	35000c80 	cbnz	w0, 271c <mod_timer+0x2bc>
    2590:	b9402277 	ldr	w23, [x19, #32]
arch_static_branch():
/data3/home/yuanqiliang/code/arm-kernel/./arch/arm64/include/asm/jump_label.h:20
	asm_volatile_goto("1: nop\n\t"
    2594:	d503201f 	nop
__mod_timer():
/data3/home/yuanqiliang/code/arm-kernel/kernel/time/timer.c:1044
	timer->expires = expires;
    2598:	f9000a75 	str	x21, [x19, #16]
/data3/home/yuanqiliang/code/arm-kernel/kernel/time/timer.c:1052
	if (idx != UINT_MAX && clk == base->clk) {
    259c:	3100073f 	cmn	w25, #0x1
    25a0:	54000080 	b.eq	25b0 <mod_timer+0x150>  // b.none
    25a4:	f9400a80 	ldr	x0, [x20, #16]
    25a8:	eb1a001f 	cmp	x0, x26
    25ac:	540008c0 	b.eq	26c4 <mod_timer+0x264>  // b.none
/data3/home/yuanqiliang/code/arm-kernel/kernel/time/timer.c:1056
		internal_add_timer(base, timer);
    25b0:	aa1303e1 	mov	x1, x19
    25b4:	aa1403e0 	mov	x0, x20
    25b8:	97fffebe 	bl	20b0 <internal_add_timer>
queued_spin_unlock():
/data3/home/yuanqiliang/code/arm-kernel/./include/asm-generic/qspinlock.h:101
	smp_store_release(&lock->locked, 0);
    25bc:	52800001 	mov	w1, #0x0                   	// #0
__mod_timer():
/data3/home/yuanqiliang/code/arm-kernel/kernel/time/timer.c:1060
	raw_spin_unlock_irqrestore(&base->lock, flags);
    25c0:	f94037e0 	ldr	x0, [sp, #104]
queued_spin_unlock():
/data3/home/yuanqiliang/code/arm-kernel/./include/asm-generic/qspinlock.h:101
    25c4:	089fff61 	stlrb	w1, [x27]
arch_local_irq_restore():
/data3/home/yuanqiliang/code/arm-kernel/./arch/arm64/include/asm/irqflags.h:77
    25c8:	d51b4220 	msr	daif, x0
mod_timer():
/data3/home/yuanqiliang/code/arm-kernel/kernel/time/timer.c:1104
}
    25cc:	2a1803e0 	mov	w0, w24
    25d0:	a94153f3 	ldp	x19, x20, [sp, #16]
    25d4:	a9425bf5 	ldp	x21, x22, [sp, #32]
    25d8:	a94363f7 	ldp	x23, x24, [sp, #48]
    25dc:	a9446bf9 	ldp	x25, x26, [sp, #64]
    25e0:	f9402bfb 	ldr	x27, [sp, #80]
    25e4:	a8c77bfd 	ldp	x29, x30, [sp], #112
    25e8:	d65f03c0 	ret
trace_timer_start():
/data3/home/yuanqiliang/code/arm-kernel/./include/trace/events/timer.h:52
    25ec:	90000000 	adrp	x0, 0 <cpu_number>
    25f0:	91000000 	add	x0, x0, #0x0
__my_cpu_offset():
/data3/home/yuanqiliang/code/arm-kernel/./arch/arm64/include/asm/percpu.h:30
    25f4:	d538d081 	mrs	x1, tpidr_el1
trace_timer_start():
/data3/home/yuanqiliang/code/arm-kernel/./include/trace/events/timer.h:52
    25f8:	b8616801 	ldr	w1, [x0, x1]
test_bit():
/data3/home/yuanqiliang/code/arm-kernel/./include/asm-generic/bitops/non-atomic.h:106
    25fc:	90000002 	adrp	x2, 0 <__cpu_online_mask>
    2600:	91000042 	add	x2, x2, #0x0
    2604:	7100003f 	cmp	w1, #0x0
    2608:	1100fc20 	add	w0, w1, #0x3f
    260c:	1a81b000 	csel	w0, w0, w1, lt  // lt = tstop
    2610:	13067c00 	asr	w0, w0, #6
    2614:	93407c00 	sxtw	x0, w0
    2618:	f8607840 	ldr	x0, [x2, x0, lsl #3]
    261c:	9ac12401 	lsr	x1, x0, x1
trace_timer_start():
/data3/home/yuanqiliang/code/arm-kernel/./include/trace/events/timer.h:52
    2620:	3607fbc1 	tbz	w1, #0, 2598 <mod_timer+0x138>
__read_once_size():
/data3/home/yuanqiliang/code/arm-kernel/./include/linux/compiler.h:193
	__READ_ONCE_SIZE;
    2624:	90000000 	adrp	x0, 0 <__round_jiffies>
    2628:	91000000 	add	x0, x0, #0x0
    262c:	f9407416 	ldr	x22, [x0, #232]
trace_timer_start():
/data3/home/yuanqiliang/code/arm-kernel/./include/trace/events/timer.h:52
    2630:	b4000136 	cbz	x22, 2654 <mod_timer+0x1f4>
    2634:	f94002c4 	ldr	x4, [x22]
    2638:	2a1703e3 	mov	w3, w23
    263c:	f94006c0 	ldr	x0, [x22, #8]
    2640:	aa1503e2 	mov	x2, x21
    2644:	aa1303e1 	mov	x1, x19
    2648:	d63f0080 	blr	x4
    264c:	f8418ec4 	ldr	x4, [x22, #24]!
    2650:	b5ffff44 	cbnz	x4, 2638 <mod_timer+0x1d8>
    2654:	17ffffd1 	b	2598 <mod_timer+0x138>
    2658:	120d02fb 	and	w27, w23, #0x80000
    265c:	17ffffa8 	b	24fc <mod_timer+0x9c>
__mod_timer():
/data3/home/yuanqiliang/code/arm-kernel/kernel/time/timer.c:1011
		base = lock_timer_base(timer, &flags);
    2660:	9101a3e1 	add	x1, sp, #0x68
    2664:	97fffd11 	bl	1aa8 <lock_timer_base>
    2668:	aa0003f6 	mov	x22, x0
forward_timer_base():
/data3/home/yuanqiliang/code/arm-kernel/kernel/time/timer.c:891
	if (likely(!base->must_forward_clk))
    266c:	39409400 	ldrb	w0, [x0, #37]
__mod_timer():
/data3/home/yuanqiliang/code/arm-kernel/kernel/time/timer.c:956
	unsigned long clk = 0, flags;
    2670:	d280001a 	mov	x26, #0x0                   	// #0
/data3/home/yuanqiliang/code/arm-kernel/kernel/time/timer.c:955
	unsigned int idx = UINT_MAX;
    2674:	12800019 	mov	w25, #0xffffffff            	// #-1
forward_timer_base():
/data3/home/yuanqiliang/code/arm-kernel/kernel/time/timer.c:891
	if (likely(!base->must_forward_clk))
    2678:	34fff300 	cbz	w0, 24d8 <mod_timer+0x78>
__read_once_size():
/data3/home/yuanqiliang/code/arm-kernel/./include/linux/compiler.h:193
    267c:	90000001 	adrp	x1, 0 <jiffies>
forward_timer_base():
/data3/home/yuanqiliang/code/arm-kernel/kernel/time/timer.c:895
	base->must_forward_clk = base->is_idle;
    2680:	394092c2 	ldrb	w2, [x22, #36]
/data3/home/yuanqiliang/code/arm-kernel/kernel/time/timer.c:896
	if ((long)(jnow - base->clk) < 2)
    2684:	f9400ac0 	ldr	x0, [x22, #16]
/data3/home/yuanqiliang/code/arm-kernel/kernel/time/timer.c:895
	base->must_forward_clk = base->is_idle;
    2688:	390096c2 	strb	w2, [x22, #37]
__read_once_size():
/data3/home/yuanqiliang/code/arm-kernel/./include/linux/compiler.h:193
    268c:	f9400021 	ldr	x1, [x1]
forward_timer_base():
/data3/home/yuanqiliang/code/arm-kernel/kernel/time/timer.c:896
	if ((long)(jnow - base->clk) < 2)
    2690:	cb000020 	sub	x0, x1, x0
    2694:	f100041f 	cmp	x0, #0x1
    2698:	54fff20d 	b.le	24d8 <mod_timer+0x78>
/data3/home/yuanqiliang/code/arm-kernel/kernel/time/timer.c:903
	if (time_after(base->next_expiry, jnow))
    269c:	f9400ec0 	ldr	x0, [x22, #24]
    26a0:	eb00003f 	cmp	x1, x0
    26a4:	540008e4 	b.mi	27c0 <mod_timer+0x360>  // b.first
/data3/home/yuanqiliang/code/arm-kernel/kernel/time/timer.c:906
		base->clk = base->next_expiry;
    26a8:	f9000ac0 	str	x0, [x22, #16]
    26ac:	17ffff8b 	b	24d8 <mod_timer+0x78>
__mod_timer():
/data3/home/yuanqiliang/code/arm-kernel/kernel/time/timer.c:1004
				timer->expires = expires;
    26b0:	aa1603fb 	mov	x27, x22
/data3/home/yuanqiliang/code/arm-kernel/kernel/time/timer.c:1007
			ret = 1;
    26b4:	52800038 	mov	w24, #0x1                   	// #1
/data3/home/yuanqiliang/code/arm-kernel/kernel/time/timer.c:1004
				timer->expires = expires;
    26b8:	f9000a75 	str	x21, [x19, #16]
/data3/home/yuanqiliang/code/arm-kernel/kernel/time/timer.c:1008
			goto out_unlock;
    26bc:	17ffffc0 	b	25bc <mod_timer+0x15c>
/data3/home/yuanqiliang/code/arm-kernel/kernel/time/timer.c:959
	BUG_ON(!timer->function);
    26c0:	d4210000 	brk	#0x800
/data3/home/yuanqiliang/code/arm-kernel/kernel/time/timer.c:1053
		enqueue_timer(base, timer, idx);
    26c4:	2a1903e2 	mov	w2, w25
    26c8:	aa1303e1 	mov	x1, x19
    26cc:	aa1403e0 	mov	x0, x20
    26d0:	97fff77e 	bl	4c8 <enqueue_timer>
/data3/home/yuanqiliang/code/arm-kernel/kernel/time/timer.c:1054
		trigger_dyntick_cpu(base, timer);
    26d4:	aa1403e0 	mov	x0, x20
    26d8:	91008262 	add	x2, x19, #0x20
    26dc:	91004261 	add	x1, x19, #0x10
    26e0:	97fffe62 	bl	2068 <trigger_dyntick_cpu.isra.3>
    26e4:	17ffffb6 	b	25bc <mod_timer+0x15c>
get_target_base():
/data3/home/yuanqiliang/code/arm-kernel/kernel/time/timer.c:876
		return get_timer_cpu_base(tflags, get_nohz_timer_target());
    26e8:	94000000 	bl	0 <get_nohz_timer_target>
get_timer_cpu_base():
/data3/home/yuanqiliang/code/arm-kernel/kernel/time/timer.c:841
	struct timer_base *base = per_cpu_ptr(&timer_bases[BASE_STD], cpu);
    26ec:	90000014 	adrp	x20, 0 <__round_jiffies>
    26f0:	90000002 	adrp	x2, 0 <__per_cpu_offset>
    26f4:	91000042 	add	x2, x2, #0x0
    26f8:	91000294 	add	x20, x20, #0x0
    26fc:	aa1403e1 	mov	x1, x20
    2700:	f8605854 	ldr	x20, [x2, w0, uxtw #3]
/data3/home/yuanqiliang/code/arm-kernel/kernel/time/timer.c:847
	if (IS_ENABLED(CONFIG_NO_HZ_COMMON) && (tflags & TIMER_DEFERRABLE))
    2704:	3400029b 	cbz	w27, 2754 <mod_timer+0x2f4>
/data3/home/yuanqiliang/code/arm-kernel/kernel/time/timer.c:848
		base = per_cpu_ptr(&timer_bases[BASE_DEF], cpu);
    2708:	90000000 	adrp	x0, 0 <__round_jiffies>
    270c:	b9402277 	ldr	w23, [x19, #32]
    2710:	91000000 	add	x0, x0, #0x0
    2714:	8b000294 	add	x20, x20, x0
    2718:	17ffff82 	b	2520 <mod_timer+0xc0>
__read_once_size():
/data3/home/yuanqiliang/code/arm-kernel/./include/linux/compiler.h:193
    271c:	90000001 	adrp	x1, 0 <jiffies>
forward_timer_base():
/data3/home/yuanqiliang/code/arm-kernel/kernel/time/timer.c:895
	base->must_forward_clk = base->is_idle;
    2720:	39409282 	ldrb	w2, [x20, #36]
/data3/home/yuanqiliang/code/arm-kernel/kernel/time/timer.c:896
	if ((long)(jnow - base->clk) < 2)
    2724:	f9400a80 	ldr	x0, [x20, #16]
/data3/home/yuanqiliang/code/arm-kernel/kernel/time/timer.c:895
	base->must_forward_clk = base->is_idle;
    2728:	39009682 	strb	w2, [x20, #37]
__read_once_size():
/data3/home/yuanqiliang/code/arm-kernel/./include/linux/compiler.h:193
    272c:	f9400021 	ldr	x1, [x1]
forward_timer_base():
/data3/home/yuanqiliang/code/arm-kernel/kernel/time/timer.c:896
	if ((long)(jnow - base->clk) < 2)
    2730:	cb000020 	sub	x0, x1, x0
    2734:	f100041f 	cmp	x0, #0x1
    2738:	54fff2cd 	b.le	2590 <mod_timer+0x130>
/data3/home/yuanqiliang/code/arm-kernel/kernel/time/timer.c:903
	if (time_after(base->next_expiry, jnow))
    273c:	f9400e80 	ldr	x0, [x20, #24]
    2740:	eb00003f 	cmp	x1, x0
    2744:	54000384 	b.mi	27b4 <mod_timer+0x354>  // b.first
/data3/home/yuanqiliang/code/arm-kernel/kernel/time/timer.c:906
		base->clk = base->next_expiry;
    2748:	f9000a80 	str	x0, [x20, #16]
    274c:	b9402277 	ldr	w23, [x19, #32]
    2750:	17ffff91 	b	2594 <mod_timer+0x134>
get_timer_cpu_base():
/data3/home/yuanqiliang/code/arm-kernel/kernel/time/timer.c:841
	struct timer_base *base = per_cpu_ptr(&timer_bases[BASE_STD], cpu);
    2754:	8b140034 	add	x20, x1, x20
    2758:	b9402277 	ldr	w23, [x19, #32]
    275c:	17ffff71 	b	2520 <mod_timer+0xc0>
__read_once_size():
/data3/home/yuanqiliang/code/arm-kernel/./include/linux/compiler.h:193
    2760:	90000000 	adrp	x0, 0 <jiffies>
forward_timer_base():
/data3/home/yuanqiliang/code/arm-kernel/kernel/time/timer.c:895
	base->must_forward_clk = base->is_idle;
    2764:	394092c1 	ldrb	w1, [x22, #36]
/data3/home/yuanqiliang/code/arm-kernel/kernel/time/timer.c:896
	if ((long)(jnow - base->clk) < 2)
    2768:	f9400ada 	ldr	x26, [x22, #16]
/data3/home/yuanqiliang/code/arm-kernel/kernel/time/timer.c:895
	base->must_forward_clk = base->is_idle;
    276c:	390096c1 	strb	w1, [x22, #37]
__read_once_size():
/data3/home/yuanqiliang/code/arm-kernel/./include/linux/compiler.h:193
    2770:	f9400000 	ldr	x0, [x0]
forward_timer_base():
/data3/home/yuanqiliang/code/arm-kernel/kernel/time/timer.c:896
	if ((long)(jnow - base->clk) < 2)
    2774:	cb1a0001 	sub	x1, x0, x26
    2778:	f100043f 	cmp	x1, #0x1
    277c:	54ffea0d 	b.le	24bc <mod_timer+0x5c>
/data3/home/yuanqiliang/code/arm-kernel/kernel/time/timer.c:903
	if (time_after(base->next_expiry, jnow))
    2780:	f9400eda 	ldr	x26, [x22, #24]
    2784:	eb1a001f 	cmp	x0, x26
    2788:	54000104 	b.mi	27a8 <mod_timer+0x348>  // b.first
/data3/home/yuanqiliang/code/arm-kernel/kernel/time/timer.c:906
		base->clk = base->next_expiry;
    278c:	f9000ada 	str	x26, [x22, #16]
    2790:	17ffff4b 	b	24bc <mod_timer+0x5c>
__mod_timer():
/data3/home/yuanqiliang/code/arm-kernel/kernel/time/timer.c:1029
		if (likely(base->running_timer != timer)) {
    2794:	aa1603f4 	mov	x20, x22
    2798:	17ffff7f 	b	2594 <mod_timer+0x134>
queued_spin_lock():
/data3/home/yuanqiliang/code/arm-kernel/./include/asm-generic/qspinlock.h:88
	queued_spin_lock_slowpath(lock, val);
    279c:	aa1403e0 	mov	x0, x20
    27a0:	94000000 	bl	0 <queued_spin_lock_slowpath>
    27a4:	17ffff74 	b	2574 <mod_timer+0x114>
forward_timer_base():
/data3/home/yuanqiliang/code/arm-kernel/kernel/time/timer.c:904
		base->clk = jnow;
    27a8:	aa0003fa 	mov	x26, x0
    27ac:	f9000ac0 	str	x0, [x22, #16]
    27b0:	17ffff43 	b	24bc <mod_timer+0x5c>
    27b4:	f9000a81 	str	x1, [x20, #16]
    27b8:	b9402277 	ldr	w23, [x19, #32]
    27bc:	17ffff76 	b	2594 <mod_timer+0x134>
    27c0:	f9000ac1 	str	x1, [x22, #16]
    27c4:	17ffff45 	b	24d8 <mod_timer+0x78>

00000000000027c8 <add_timer>:
add_timer():
/data3/home/yuanqiliang/code/arm-kernel/kernel/time/timer.c:1137
{
    27c8:	a9bf7bfd 	stp	x29, x30, [sp, #-16]!
    27cc:	910003fd 	mov	x29, sp
/data3/home/yuanqiliang/code/arm-kernel/kernel/time/timer.c:1138
	BUG_ON(timer_pending(timer));
    27d0:	f9400402 	ldr	x2, [x0, #8]
    27d4:	b50000a2 	cbnz	x2, 27e8 <add_timer+0x20>
/data3/home/yuanqiliang/code/arm-kernel/kernel/time/timer.c:1139
	mod_timer(timer, timer->expires);
    27d8:	f9400801 	ldr	x1, [x0, #16]
    27dc:	94000000 	bl	2460 <mod_timer>
/data3/home/yuanqiliang/code/arm-kernel/kernel/time/timer.c:1140
}
    27e0:	a8c17bfd 	ldp	x29, x30, [sp], #16
    27e4:	d65f03c0 	ret
/data3/home/yuanqiliang/code/arm-kernel/kernel/time/timer.c:1138
	BUG_ON(timer_pending(timer));
    27e8:	d4210000 	brk	#0x800
    27ec:	d503201f 	nop

00000000000027f0 <timer_reduce>:
timer_reduce():
/data3/home/yuanqiliang/code/arm-kernel/kernel/time/timer.c:1117
{
    27f0:	a9b97bfd 	stp	x29, x30, [sp, #-112]!
    27f4:	910003fd 	mov	x29, sp
__mod_timer():
/data3/home/yuanqiliang/code/arm-kernel/kernel/time/timer.c:959
	BUG_ON(!timer->function);
    27f8:	f9400c02 	ldr	x2, [x0, #24]
    27fc:	a90153f3 	stp	x19, x20, [sp, #16]
    2800:	a9025bf5 	stp	x21, x22, [sp, #32]
    2804:	a90363f7 	stp	x23, x24, [sp, #48]
    2808:	b40015c2 	cbz	x2, 2ac0 <timer_reduce+0x2d0>
timer_pending():
/data3/home/yuanqiliang/code/arm-kernel/./include/linux/timer.h:156
    280c:	aa0103f5 	mov	x21, x1
    2810:	aa0003f3 	mov	x19, x0
__mod_timer():
/data3/home/yuanqiliang/code/arm-kernel/kernel/time/timer.c:966
	if (timer_pending(timer)) {
    2814:	f9400401 	ldr	x1, [x0, #8]
    2818:	b4001081 	cbz	x1, 2a28 <timer_reduce+0x238>
/data3/home/yuanqiliang/code/arm-kernel/kernel/time/timer.c:972
		long diff = timer->expires - expires;
    281c:	f9400802 	ldr	x2, [x0, #16]
/data3/home/yuanqiliang/code/arm-kernel/kernel/time/timer.c:977
			return 1;
    2820:	52800037 	mov	w23, #0x1                   	// #1
/data3/home/yuanqiliang/code/arm-kernel/kernel/time/timer.c:972
		long diff = timer->expires - expires;
    2824:	cb150042 	sub	x2, x2, x21
/data3/home/yuanqiliang/code/arm-kernel/kernel/time/timer.c:976
		if (options & MOD_TIMER_REDUCE && diff <= 0)
    2828:	f100005f 	cmp	x2, #0x0
    282c:	540000ec 	b.gt	2848 <timer_reduce+0x58>
timer_reduce():
/data3/home/yuanqiliang/code/arm-kernel/kernel/time/timer.c:1119
}
    2830:	2a1703e0 	mov	w0, w23
    2834:	a94153f3 	ldp	x19, x20, [sp, #16]
    2838:	a9425bf5 	ldp	x21, x22, [sp, #32]
    283c:	a94363f7 	ldp	x23, x24, [sp, #48]
    2840:	a8c77bfd 	ldp	x29, x30, [sp], #112
    2844:	d65f03c0 	ret
__mod_timer():
/data3/home/yuanqiliang/code/arm-kernel/kernel/time/timer.c:985
		base = lock_timer_base(timer, &flags);
    2848:	9101a3e1 	add	x1, sp, #0x68
    284c:	97fffc97 	bl	1aa8 <lock_timer_base>
    2850:	aa0003f6 	mov	x22, x0
forward_timer_base():
/data3/home/yuanqiliang/code/arm-kernel/kernel/time/timer.c:891
	if (likely(!base->must_forward_clk))
    2854:	39409400 	ldrb	w0, [x0, #37]
    2858:	350018c0 	cbnz	w0, 2b70 <timer_reduce+0x380>
__mod_timer():
/data3/home/yuanqiliang/code/arm-kernel/kernel/time/timer.c:988
		if (timer_pending(timer) && (options & MOD_TIMER_REDUCE) &&
    285c:	f9400660 	ldr	x0, [x19, #8]
    2860:	b4001100 	cbz	x0, 2a80 <timer_reduce+0x290>
/data3/home/yuanqiliang/code/arm-kernel/kernel/time/timer.c:989
		    time_before_eq(timer->expires, expires)) {
    2864:	f9400a60 	ldr	x0, [x19, #16]
    2868:	aa1603f8 	mov	x24, x22
/data3/home/yuanqiliang/code/arm-kernel/kernel/time/timer.c:990
			ret = 1;
    286c:	52800037 	mov	w23, #0x1                   	// #1
/data3/home/yuanqiliang/code/arm-kernel/kernel/time/timer.c:989
		    time_before_eq(timer->expires, expires)) {
    2870:	eb0002bf 	cmp	x21, x0
    2874:	540008a5 	b.pl	2988 <timer_reduce+0x198>  // b.nfrst
/data3/home/yuanqiliang/code/arm-kernel/kernel/time/timer.c:994
		clk = base->clk;
    2878:	a9046bf9 	stp	x25, x26, [sp, #64]
/data3/home/yuanqiliang/code/arm-kernel/kernel/time/timer.c:995
		idx = calc_wheel_index(expires, clk);
    287c:	aa1503e0 	mov	x0, x21
/data3/home/yuanqiliang/code/arm-kernel/kernel/time/timer.c:994
		clk = base->clk;
    2880:	f9400ada 	ldr	x26, [x22, #16]
/data3/home/yuanqiliang/code/arm-kernel/kernel/time/timer.c:995
		idx = calc_wheel_index(expires, clk);
    2884:	aa1a03e1 	mov	x1, x26
    2888:	97fff6c6 	bl	3a0 <calc_wheel_index>
    288c:	2a0003f9 	mov	w25, w0
timer_get_idx():
/data3/home/yuanqiliang/code/arm-kernel/kernel/time/timer.c:476
	return (timer->flags & TIMER_ARRAYMASK) >> TIMER_ARRAYSHIFT;
    2890:	b9402260 	ldr	w0, [x19, #32]
__mod_timer():
/data3/home/yuanqiliang/code/arm-kernel/kernel/time/timer.c:1002
		if (idx == timer_get_idx(timer)) {
    2894:	6b405b3f 	cmp	w25, w0, lsr #22
    2898:	540014c0 	b.eq	2b30 <timer_reduce+0x340>  // b.none
    289c:	f9002bfb 	str	x27, [sp, #80]
/data3/home/yuanqiliang/code/arm-kernel/kernel/time/timer.c:1015
	ret = detach_if_pending(timer, base, false);
    28a0:	52800002 	mov	w2, #0x0                   	// #0
    28a4:	aa1603e1 	mov	x1, x22
    28a8:	aa1303e0 	mov	x0, x19
    28ac:	97fff733 	bl	578 <detach_if_pending>
/data3/home/yuanqiliang/code/arm-kernel/kernel/time/timer.c:1019
	new_base = get_target_base(base, timer->flags);
    28b0:	b940227b 	ldr	w27, [x19, #32]
/data3/home/yuanqiliang/code/arm-kernel/kernel/time/timer.c:1015
	ret = detach_if_pending(timer, base, false);
    28b4:	2a0003f7 	mov	w23, w0
arch_static_branch_jump():
/data3/home/yuanqiliang/code/arm-kernel/./arch/arm64/include/asm/jump_label.h:34
	asm_volatile_goto("1: b %l[l_yes]\n\t"
    28b8:	1400005a 	b	2a20 <timer_reduce+0x230>
get_target_base():
/data3/home/yuanqiliang/code/arm-kernel/kernel/time/timer.c:874
	if (static_branch_likely(&timers_migration_enabled) &&
    28bc:	120d0378 	and	w24, w27, #0x80000
    28c0:	36a0143b 	tbz	w27, #20, 2b44 <timer_reduce+0x354>
get_timer_this_cpu_base():
/data3/home/yuanqiliang/code/arm-kernel/kernel/time/timer.c:854
	struct timer_base *base = this_cpu_ptr(&timer_bases[BASE_STD]);
    28c4:	90000014 	adrp	x20, 0 <__round_jiffies>
    28c8:	91000294 	add	x20, x20, #0x0
    28cc:	aa1403e0 	mov	x0, x20
__my_cpu_offset():
/data3/home/yuanqiliang/code/arm-kernel/./arch/arm64/include/asm/percpu.h:30
    28d0:	d538d094 	mrs	x20, tpidr_el1
get_timer_this_cpu_base():
/data3/home/yuanqiliang/code/arm-kernel/kernel/time/timer.c:860
	if (IS_ENABLED(CONFIG_NO_HZ_COMMON) && (tflags & TIMER_DEFERRABLE))
    28d4:	34000078 	cbz	w24, 28e0 <timer_reduce+0xf0>
/data3/home/yuanqiliang/code/arm-kernel/kernel/time/timer.c:861
		base = this_cpu_ptr(&timer_bases[BASE_DEF]);
    28d8:	90000000 	adrp	x0, 0 <__round_jiffies>
    28dc:	91000000 	add	x0, x0, #0x0
    28e0:	8b140014 	add	x20, x0, x20
__mod_timer():
/data3/home/yuanqiliang/code/arm-kernel/kernel/time/timer.c:1021
	if (base != new_base) {
    28e4:	aa1403f8 	mov	x24, x20
    28e8:	eb1402df 	cmp	x22, x20
    28ec:	54000360 	b.eq	2958 <timer_reduce+0x168>  // b.none
/data3/home/yuanqiliang/code/arm-kernel/kernel/time/timer.c:1029
		if (likely(base->running_timer != timer)) {
    28f0:	f94006c0 	ldr	x0, [x22, #8]
    28f4:	aa1603f8 	mov	x24, x22
    28f8:	eb00027f 	cmp	x19, x0
    28fc:	54001540 	b.eq	2ba4 <timer_reduce+0x3b4>  // b.none
/data3/home/yuanqiliang/code/arm-kernel/kernel/time/timer.c:1031
			timer->flags |= TIMER_MIGRATING;
    2900:	320e037b 	orr	w27, w27, #0x40000
queued_spin_unlock():
/data3/home/yuanqiliang/code/arm-kernel/./include/asm-generic/qspinlock.h:101
	smp_store_release(&lock->locked, 0);
    2904:	52800000 	mov	w0, #0x0                   	// #0
__mod_timer():
/data3/home/yuanqiliang/code/arm-kernel/kernel/time/timer.c:1031
    2908:	b900227b 	str	w27, [x19, #32]
queued_spin_unlock():
/data3/home/yuanqiliang/code/arm-kernel/./include/asm-generic/qspinlock.h:101
    290c:	089ffec0 	stlrb	w0, [x22]
__cmpxchg_case_acq_4():
/data3/home/yuanqiliang/code/arm-kernel/./arch/arm64/include/asm/atomic_ll_sc.h:272
    2910:	d2800000 	mov	x0, #0x0                   	// #0
do_raw_spin_lock():
/data3/home/yuanqiliang/code/arm-kernel/./include/linux/spinlock.h:180
    2914:	aa1403f8 	mov	x24, x20
__cmpxchg_case_acq_4():
/data3/home/yuanqiliang/code/arm-kernel/./arch/arm64/include/asm/atomic_ll_sc.h:272
    2918:	d2800022 	mov	x2, #0x1                   	// #1
    291c:	f9800291 	prfm	pstl1strm, [x20]
    2920:	885ffe81 	ldaxr	w1, [x20]
    2924:	4a000023 	eor	w3, w1, w0
    2928:	35000063 	cbnz	w3, 2934 <timer_reduce+0x144>
    292c:	88037e82 	stxr	w3, w2, [x20]
    2930:	35ffff83 	cbnz	w3, 2920 <timer_reduce+0x130>
queued_spin_lock():
/data3/home/yuanqiliang/code/arm-kernel/./include/asm-generic/qspinlock.h:86
	if (likely(val == 0))
    2934:	350013c1 	cbnz	w1, 2bac <timer_reduce+0x3bc>
__mod_timer():
/data3/home/yuanqiliang/code/arm-kernel/kernel/time/timer.c:1036
			WRITE_ONCE(timer->flags,
    2938:	b9402260 	ldr	w0, [x19, #32]
    293c:	b9402281 	ldr	w1, [x20, #32]
    2940:	120d3000 	and	w0, w0, #0xfff80000
    2944:	2a010000 	orr	w0, w0, w1
__write_once_size():
/data3/home/yuanqiliang/code/arm-kernel/./include/linux/compiler.h:219
	case 4: *(volatile __u32 *)p = *(__u32 *)res; break;
    2948:	b9002260 	str	w0, [x19, #32]
forward_timer_base():
/data3/home/yuanqiliang/code/arm-kernel/kernel/time/timer.c:891
	if (likely(!base->must_forward_clk))
    294c:	39409680 	ldrb	w0, [x20, #37]
    2950:	35000d40 	cbnz	w0, 2af8 <timer_reduce+0x308>
    2954:	b940227b 	ldr	w27, [x19, #32]
arch_static_branch():
/data3/home/yuanqiliang/code/arm-kernel/./arch/arm64/include/asm/jump_label.h:20
	asm_volatile_goto("1: nop\n\t"
    2958:	d503201f 	nop
__mod_timer():
/data3/home/yuanqiliang/code/arm-kernel/kernel/time/timer.c:1044
	timer->expires = expires;
    295c:	f9000a75 	str	x21, [x19, #16]
/data3/home/yuanqiliang/code/arm-kernel/kernel/time/timer.c:1052
	if (idx != UINT_MAX && clk == base->clk) {
    2960:	3100073f 	cmn	w25, #0x1
    2964:	54000080 	b.eq	2974 <timer_reduce+0x184>  // b.none
    2968:	f9400a80 	ldr	x0, [x20, #16]
    296c:	eb1a001f 	cmp	x0, x26
    2970:	54000ae0 	b.eq	2acc <timer_reduce+0x2dc>  // b.none
/data3/home/yuanqiliang/code/arm-kernel/kernel/time/timer.c:1056
		internal_add_timer(base, timer);
    2974:	aa1303e1 	mov	x1, x19
    2978:	aa1403e0 	mov	x0, x20
    297c:	97fffdcd 	bl	20b0 <internal_add_timer>
    2980:	a9446bf9 	ldp	x25, x26, [sp, #64]
    2984:	f9402bfb 	ldr	x27, [sp, #80]
queued_spin_unlock():
/data3/home/yuanqiliang/code/arm-kernel/./include/asm-generic/qspinlock.h:101
	smp_store_release(&lock->locked, 0);
    2988:	52800001 	mov	w1, #0x0                   	// #0
__mod_timer():
/data3/home/yuanqiliang/code/arm-kernel/kernel/time/timer.c:1060
	raw_spin_unlock_irqrestore(&base->lock, flags);
    298c:	f94037e0 	ldr	x0, [sp, #104]
queued_spin_unlock():
/data3/home/yuanqiliang/code/arm-kernel/./include/asm-generic/qspinlock.h:101
    2990:	089fff01 	stlrb	w1, [x24]
arch_local_irq_restore():
/data3/home/yuanqiliang/code/arm-kernel/./arch/arm64/include/asm/irqflags.h:77
    2994:	d51b4220 	msr	daif, x0
timer_reduce():
/data3/home/yuanqiliang/code/arm-kernel/kernel/time/timer.c:1119
}
    2998:	2a1703e0 	mov	w0, w23
    299c:	a94153f3 	ldp	x19, x20, [sp, #16]
    29a0:	a9425bf5 	ldp	x21, x22, [sp, #32]
    29a4:	a94363f7 	ldp	x23, x24, [sp, #48]
    29a8:	a8c77bfd 	ldp	x29, x30, [sp], #112
    29ac:	d65f03c0 	ret
trace_timer_start():
/data3/home/yuanqiliang/code/arm-kernel/./include/trace/events/timer.h:52
    29b0:	90000000 	adrp	x0, 0 <cpu_number>
    29b4:	91000000 	add	x0, x0, #0x0
__my_cpu_offset():
/data3/home/yuanqiliang/code/arm-kernel/./arch/arm64/include/asm/percpu.h:30
    29b8:	d538d081 	mrs	x1, tpidr_el1
trace_timer_start():
/data3/home/yuanqiliang/code/arm-kernel/./include/trace/events/timer.h:52
    29bc:	b8616801 	ldr	w1, [x0, x1]
test_bit():
/data3/home/yuanqiliang/code/arm-kernel/./include/asm-generic/bitops/non-atomic.h:106
    29c0:	90000002 	adrp	x2, 0 <__cpu_online_mask>
    29c4:	91000042 	add	x2, x2, #0x0
    29c8:	7100003f 	cmp	w1, #0x0
    29cc:	1100fc20 	add	w0, w1, #0x3f
    29d0:	1a81b000 	csel	w0, w0, w1, lt  // lt = tstop
    29d4:	13067c00 	asr	w0, w0, #6
    29d8:	93407c00 	sxtw	x0, w0
    29dc:	f8607840 	ldr	x0, [x2, x0, lsl #3]
    29e0:	9ac12401 	lsr	x1, x0, x1
trace_timer_start():
/data3/home/yuanqiliang/code/arm-kernel/./include/trace/events/timer.h:52
    29e4:	3607fbc1 	tbz	w1, #0, 295c <timer_reduce+0x16c>
__read_once_size():
/data3/home/yuanqiliang/code/arm-kernel/./include/linux/compiler.h:193
	__READ_ONCE_SIZE;
    29e8:	90000000 	adrp	x0, 0 <__round_jiffies>
    29ec:	91000000 	add	x0, x0, #0x0
    29f0:	f9407416 	ldr	x22, [x0, #232]
trace_timer_start():
/data3/home/yuanqiliang/code/arm-kernel/./include/trace/events/timer.h:52
    29f4:	b4000156 	cbz	x22, 2a1c <timer_reduce+0x22c>
    29f8:	f94002c4 	ldr	x4, [x22]
    29fc:	d503201f 	nop
    2a00:	2a1b03e3 	mov	w3, w27
    2a04:	f94006c0 	ldr	x0, [x22, #8]
    2a08:	aa1503e2 	mov	x2, x21
    2a0c:	aa1303e1 	mov	x1, x19
    2a10:	d63f0080 	blr	x4
    2a14:	f8418ec4 	ldr	x4, [x22, #24]!
    2a18:	b5ffff44 	cbnz	x4, 2a00 <timer_reduce+0x210>
    2a1c:	17ffffd0 	b	295c <timer_reduce+0x16c>
    2a20:	120d0378 	and	w24, w27, #0x80000
    2a24:	17ffffa8 	b	28c4 <timer_reduce+0xd4>
__mod_timer():
/data3/home/yuanqiliang/code/arm-kernel/kernel/time/timer.c:1011
		base = lock_timer_base(timer, &flags);
    2a28:	9101a3e1 	add	x1, sp, #0x68
    2a2c:	a9046bf9 	stp	x25, x26, [sp, #64]
/data3/home/yuanqiliang/code/arm-kernel/kernel/time/timer.c:956
	unsigned long clk = 0, flags;
    2a30:	d280001a 	mov	x26, #0x0                   	// #0
    2a34:	f9002bfb 	str	x27, [sp, #80]
/data3/home/yuanqiliang/code/arm-kernel/kernel/time/timer.c:1011
		base = lock_timer_base(timer, &flags);
    2a38:	97fffc1c 	bl	1aa8 <lock_timer_base>
    2a3c:	aa0003f6 	mov	x22, x0
forward_timer_base():
/data3/home/yuanqiliang/code/arm-kernel/kernel/time/timer.c:891
	if (likely(!base->must_forward_clk))
    2a40:	39409400 	ldrb	w0, [x0, #37]
__mod_timer():
/data3/home/yuanqiliang/code/arm-kernel/kernel/time/timer.c:955
	unsigned int idx = UINT_MAX;
    2a44:	12800019 	mov	w25, #0xffffffff            	// #-1
forward_timer_base():
/data3/home/yuanqiliang/code/arm-kernel/kernel/time/timer.c:891
	if (likely(!base->must_forward_clk))
    2a48:	34fff2c0 	cbz	w0, 28a0 <timer_reduce+0xb0>
__read_once_size():
/data3/home/yuanqiliang/code/arm-kernel/./include/linux/compiler.h:193
    2a4c:	90000001 	adrp	x1, 0 <jiffies>
forward_timer_base():
/data3/home/yuanqiliang/code/arm-kernel/kernel/time/timer.c:895
	base->must_forward_clk = base->is_idle;
    2a50:	394092c2 	ldrb	w2, [x22, #36]
/data3/home/yuanqiliang/code/arm-kernel/kernel/time/timer.c:896
	if ((long)(jnow - base->clk) < 2)
    2a54:	f9400ac0 	ldr	x0, [x22, #16]
/data3/home/yuanqiliang/code/arm-kernel/kernel/time/timer.c:895
	base->must_forward_clk = base->is_idle;
    2a58:	390096c2 	strb	w2, [x22, #37]
__read_once_size():
/data3/home/yuanqiliang/code/arm-kernel/./include/linux/compiler.h:193
    2a5c:	f9400021 	ldr	x1, [x1]
forward_timer_base():
/data3/home/yuanqiliang/code/arm-kernel/kernel/time/timer.c:896
	if ((long)(jnow - base->clk) < 2)
    2a60:	cb000020 	sub	x0, x1, x0
    2a64:	f100041f 	cmp	x0, #0x1
    2a68:	54fff1cd 	b.le	28a0 <timer_reduce+0xb0>
/data3/home/yuanqiliang/code/arm-kernel/kernel/time/timer.c:903
	if (time_after(base->next_expiry, jnow))
    2a6c:	f9400ec0 	ldr	x0, [x22, #24]
    2a70:	eb00003f 	cmp	x1, x0
    2a74:	54000b24 	b.mi	2bd8 <timer_reduce+0x3e8>  // b.first
/data3/home/yuanqiliang/code/arm-kernel/kernel/time/timer.c:906
		base->clk = base->next_expiry;
    2a78:	f9000ac0 	str	x0, [x22, #16]
    2a7c:	17ffff89 	b	28a0 <timer_reduce+0xb0>
__mod_timer():
/data3/home/yuanqiliang/code/arm-kernel/kernel/time/timer.c:994
		clk = base->clk;
    2a80:	a9046bf9 	stp	x25, x26, [sp, #64]
/data3/home/yuanqiliang/code/arm-kernel/kernel/time/timer.c:995
		idx = calc_wheel_index(expires, clk);
    2a84:	aa1503e0 	mov	x0, x21
/data3/home/yuanqiliang/code/arm-kernel/kernel/time/timer.c:994
		clk = base->clk;
    2a88:	f9400ada 	ldr	x26, [x22, #16]
/data3/home/yuanqiliang/code/arm-kernel/kernel/time/timer.c:995
		idx = calc_wheel_index(expires, clk);
    2a8c:	aa1a03e1 	mov	x1, x26
    2a90:	97fff644 	bl	3a0 <calc_wheel_index>
    2a94:	2a0003f9 	mov	w25, w0
timer_get_idx():
/data3/home/yuanqiliang/code/arm-kernel/kernel/time/timer.c:476
	return (timer->flags & TIMER_ARRAYMASK) >> TIMER_ARRAYSHIFT;
    2a98:	b9402260 	ldr	w0, [x19, #32]
__mod_timer():
/data3/home/yuanqiliang/code/arm-kernel/kernel/time/timer.c:1002
		if (idx == timer_get_idx(timer)) {
    2a9c:	6b405b3f 	cmp	w25, w0, lsr #22
    2aa0:	54ffefe1 	b.ne	289c <timer_reduce+0xac>  // b.any
/data3/home/yuanqiliang/code/arm-kernel/kernel/time/timer.c:1005
			else if (time_after(timer->expires, expires))
    2aa4:	f9400a60 	ldr	x0, [x19, #16]
    2aa8:	aa1603f8 	mov	x24, x22
/data3/home/yuanqiliang/code/arm-kernel/kernel/time/timer.c:1007
			ret = 1;
    2aac:	52800037 	mov	w23, #0x1                   	// #1
/data3/home/yuanqiliang/code/arm-kernel/kernel/time/timer.c:1005
			else if (time_after(timer->expires, expires))
    2ab0:	eb0002bf 	cmp	x21, x0
    2ab4:	540003e4 	b.mi	2b30 <timer_reduce+0x340>  // b.first
    2ab8:	a9446bf9 	ldp	x25, x26, [sp, #64]
    2abc:	17ffffb3 	b	2988 <timer_reduce+0x198>
    2ac0:	a9046bf9 	stp	x25, x26, [sp, #64]
    2ac4:	f9002bfb 	str	x27, [sp, #80]
/data3/home/yuanqiliang/code/arm-kernel/kernel/time/timer.c:959
	BUG_ON(!timer->function);
    2ac8:	d4210000 	brk	#0x800
/data3/home/yuanqiliang/code/arm-kernel/kernel/time/timer.c:1053
		enqueue_timer(base, timer, idx);
    2acc:	2a1903e2 	mov	w2, w25
    2ad0:	aa1303e1 	mov	x1, x19
    2ad4:	aa1403e0 	mov	x0, x20
    2ad8:	97fff67c 	bl	4c8 <enqueue_timer>
/data3/home/yuanqiliang/code/arm-kernel/kernel/time/timer.c:1054
		trigger_dyntick_cpu(base, timer);
    2adc:	aa1403e0 	mov	x0, x20
    2ae0:	91008262 	add	x2, x19, #0x20
    2ae4:	91004261 	add	x1, x19, #0x10
    2ae8:	97fffd60 	bl	2068 <trigger_dyntick_cpu.isra.3>
    2aec:	a9446bf9 	ldp	x25, x26, [sp, #64]
    2af0:	f9402bfb 	ldr	x27, [sp, #80]
    2af4:	17ffffa5 	b	2988 <timer_reduce+0x198>
__read_once_size():
/data3/home/yuanqiliang/code/arm-kernel/./include/linux/compiler.h:193
    2af8:	90000001 	adrp	x1, 0 <jiffies>
forward_timer_base():
/data3/home/yuanqiliang/code/arm-kernel/kernel/time/timer.c:895
	base->must_forward_clk = base->is_idle;
    2afc:	39409282 	ldrb	w2, [x20, #36]
/data3/home/yuanqiliang/code/arm-kernel/kernel/time/timer.c:896
	if ((long)(jnow - base->clk) < 2)
    2b00:	f9400a80 	ldr	x0, [x20, #16]
/data3/home/yuanqiliang/code/arm-kernel/kernel/time/timer.c:895
	base->must_forward_clk = base->is_idle;
    2b04:	39009682 	strb	w2, [x20, #37]
__read_once_size():
/data3/home/yuanqiliang/code/arm-kernel/./include/linux/compiler.h:193
    2b08:	f9400021 	ldr	x1, [x1]
forward_timer_base():
/data3/home/yuanqiliang/code/arm-kernel/kernel/time/timer.c:896
	if ((long)(jnow - base->clk) < 2)
    2b0c:	cb000020 	sub	x0, x1, x0
    2b10:	f100041f 	cmp	x0, #0x1
    2b14:	54fff20d 	b.le	2954 <timer_reduce+0x164>
/data3/home/yuanqiliang/code/arm-kernel/kernel/time/timer.c:903
	if (time_after(base->next_expiry, jnow))
    2b18:	f9400e80 	ldr	x0, [x20, #24]
    2b1c:	eb00003f 	cmp	x1, x0
    2b20:	54000564 	b.mi	2bcc <timer_reduce+0x3dc>  // b.first
/data3/home/yuanqiliang/code/arm-kernel/kernel/time/timer.c:906
		base->clk = base->next_expiry;
    2b24:	f9000a80 	str	x0, [x20, #16]
    2b28:	b940227b 	ldr	w27, [x19, #32]
    2b2c:	17ffff8b 	b	2958 <timer_reduce+0x168>
__mod_timer():
/data3/home/yuanqiliang/code/arm-kernel/kernel/time/timer.c:1006
				timer->expires = expires;
    2b30:	f9000a75 	str	x21, [x19, #16]
    2b34:	aa1603f8 	mov	x24, x22
/data3/home/yuanqiliang/code/arm-kernel/kernel/time/timer.c:1007
			ret = 1;
    2b38:	52800037 	mov	w23, #0x1                   	// #1
    2b3c:	a9446bf9 	ldp	x25, x26, [sp, #64]
    2b40:	17ffff92 	b	2988 <timer_reduce+0x198>
get_target_base():
/data3/home/yuanqiliang/code/arm-kernel/kernel/time/timer.c:876
		return get_timer_cpu_base(tflags, get_nohz_timer_target());
    2b44:	94000000 	bl	0 <get_nohz_timer_target>
get_timer_cpu_base():
/data3/home/yuanqiliang/code/arm-kernel/kernel/time/timer.c:841
	struct timer_base *base = per_cpu_ptr(&timer_bases[BASE_STD], cpu);
    2b48:	90000014 	adrp	x20, 0 <__round_jiffies>
    2b4c:	90000002 	adrp	x2, 0 <__per_cpu_offset>
    2b50:	91000042 	add	x2, x2, #0x0
    2b54:	91000294 	add	x20, x20, #0x0
    2b58:	aa1403e1 	mov	x1, x20
    2b5c:	f8605854 	ldr	x20, [x2, w0, uxtw #3]
/data3/home/yuanqiliang/code/arm-kernel/kernel/time/timer.c:847
	if (IS_ENABLED(CONFIG_NO_HZ_COMMON) && (tflags & TIMER_DEFERRABLE))
    2b60:	350002d8 	cbnz	w24, 2bb8 <timer_reduce+0x3c8>
/data3/home/yuanqiliang/code/arm-kernel/kernel/time/timer.c:841
	struct timer_base *base = per_cpu_ptr(&timer_bases[BASE_STD], cpu);
    2b64:	8b140034 	add	x20, x1, x20
    2b68:	b940227b 	ldr	w27, [x19, #32]
    2b6c:	17ffff5e 	b	28e4 <timer_reduce+0xf4>
__read_once_size():
/data3/home/yuanqiliang/code/arm-kernel/./include/linux/compiler.h:193
    2b70:	90000001 	adrp	x1, 0 <jiffies>
forward_timer_base():
/data3/home/yuanqiliang/code/arm-kernel/kernel/time/timer.c:895
	base->must_forward_clk = base->is_idle;
    2b74:	394092c2 	ldrb	w2, [x22, #36]
/data3/home/yuanqiliang/code/arm-kernel/kernel/time/timer.c:896
	if ((long)(jnow - base->clk) < 2)
    2b78:	f9400ac0 	ldr	x0, [x22, #16]
/data3/home/yuanqiliang/code/arm-kernel/kernel/time/timer.c:895
	base->must_forward_clk = base->is_idle;
    2b7c:	390096c2 	strb	w2, [x22, #37]
__read_once_size():
/data3/home/yuanqiliang/code/arm-kernel/./include/linux/compiler.h:193
    2b80:	f9400021 	ldr	x1, [x1]
forward_timer_base():
/data3/home/yuanqiliang/code/arm-kernel/kernel/time/timer.c:896
	if ((long)(jnow - base->clk) < 2)
    2b84:	cb000020 	sub	x0, x1, x0
    2b88:	f100041f 	cmp	x0, #0x1
    2b8c:	54ffe68d 	b.le	285c <timer_reduce+0x6c>
/data3/home/yuanqiliang/code/arm-kernel/kernel/time/timer.c:903
	if (time_after(base->next_expiry, jnow))
    2b90:	f9400ec0 	ldr	x0, [x22, #24]
/data3/home/yuanqiliang/code/arm-kernel/kernel/time/timer.c:904
		base->clk = jnow;
    2b94:	eb00003f 	cmp	x1, x0
    2b98:	9a815000 	csel	x0, x0, x1, pl  // pl = nfrst
    2b9c:	f9000ac0 	str	x0, [x22, #16]
    2ba0:	17ffff2f 	b	285c <timer_reduce+0x6c>
__mod_timer():
/data3/home/yuanqiliang/code/arm-kernel/kernel/time/timer.c:1029
		if (likely(base->running_timer != timer)) {
    2ba4:	aa1603f4 	mov	x20, x22
    2ba8:	17ffff6c 	b	2958 <timer_reduce+0x168>
queued_spin_lock():
/data3/home/yuanqiliang/code/arm-kernel/./include/asm-generic/qspinlock.h:88
	queued_spin_lock_slowpath(lock, val);
    2bac:	aa1403e0 	mov	x0, x20
    2bb0:	94000000 	bl	0 <queued_spin_lock_slowpath>
    2bb4:	17ffff61 	b	2938 <timer_reduce+0x148>
get_timer_cpu_base():
/data3/home/yuanqiliang/code/arm-kernel/kernel/time/timer.c:848
		base = per_cpu_ptr(&timer_bases[BASE_DEF], cpu);
    2bb8:	90000000 	adrp	x0, 0 <__round_jiffies>
    2bbc:	b940227b 	ldr	w27, [x19, #32]
    2bc0:	91000000 	add	x0, x0, #0x0
    2bc4:	8b000294 	add	x20, x20, x0
    2bc8:	17ffff47 	b	28e4 <timer_reduce+0xf4>
forward_timer_base():
/data3/home/yuanqiliang/code/arm-kernel/kernel/time/timer.c:904
		base->clk = jnow;
    2bcc:	f9000a81 	str	x1, [x20, #16]
    2bd0:	b940227b 	ldr	w27, [x19, #32]
    2bd4:	17ffff61 	b	2958 <timer_reduce+0x168>
    2bd8:	f9000ac1 	str	x1, [x22, #16]
    2bdc:	17ffff31 	b	28a0 <timer_reduce+0xb0>

0000000000002be0 <add_timer_on>:
add_timer_on():
/data3/home/yuanqiliang/code/arm-kernel/kernel/time/timer.c:1151
{
    2be0:	a9bb7bfd 	stp	x29, x30, [sp, #-80]!
    2be4:	910003fd 	mov	x29, sp
/data3/home/yuanqiliang/code/arm-kernel/kernel/time/timer.c:1155
	BUG_ON(timer_pending(timer) || !timer->function);
    2be8:	f9400402 	ldr	x2, [x0, #8]
    2bec:	b5000d22 	cbnz	x2, 2d90 <add_timer_on+0x1b0>
/data3/home/yuanqiliang/code/arm-kernel/kernel/time/timer.c:1155 (discriminator 2)
    2bf0:	f9400c02 	ldr	x2, [x0, #24]
    2bf4:	b4000ce2 	cbz	x2, 2d90 <add_timer_on+0x1b0>
get_timer_cpu_base():
/data3/home/yuanqiliang/code/arm-kernel/kernel/time/timer.c:841
	struct timer_base *base = per_cpu_ptr(&timer_bases[BASE_STD], cpu);
    2bf8:	90000003 	adrp	x3, 0 <__per_cpu_offset>
    2bfc:	91000063 	add	x3, x3, #0x0
    2c00:	a90153f3 	stp	x19, x20, [sp, #16]
    2c04:	90000002 	adrp	x2, 0 <__round_jiffies>
    2c08:	91000042 	add	x2, x2, #0x0
    2c0c:	a9025bf5 	stp	x21, x22, [sp, #32]
/data3/home/yuanqiliang/code/arm-kernel/kernel/time/timer.c:847
	if (IS_ENABLED(CONFIG_NO_HZ_COMMON) && (tflags & TIMER_DEFERRABLE))
    2c10:	b9402005 	ldr	w5, [x0, #32]
/data3/home/yuanqiliang/code/arm-kernel/kernel/time/timer.c:841
	struct timer_base *base = per_cpu_ptr(&timer_bases[BASE_STD], cpu);
    2c14:	f8615864 	ldr	x4, [x3, w1, uxtw #3]
    2c18:	8b040055 	add	x21, x2, x4
/data3/home/yuanqiliang/code/arm-kernel/kernel/time/timer.c:847
	if (IS_ENABLED(CONFIG_NO_HZ_COMMON) && (tflags & TIMER_DEFERRABLE))
    2c1c:	37980945 	tbnz	w5, #19, 2d44 <add_timer_on+0x164>
add_timer_on():
/data3/home/yuanqiliang/code/arm-kernel/kernel/time/timer.c:1164
	base = lock_timer_base(timer, &flags);
    2c20:	2a0103f4 	mov	w20, w1
    2c24:	aa0003f3 	mov	x19, x0
    2c28:	910123e1 	add	x1, sp, #0x48
    2c2c:	97fffb9f 	bl	1aa8 <lock_timer_base>
/data3/home/yuanqiliang/code/arm-kernel/kernel/time/timer.c:1165
	if (base != new_base) {
    2c30:	eb15001f 	cmp	x0, x21
    2c34:	54000260 	b.eq	2c80 <add_timer_on+0xa0>  // b.none
/data3/home/yuanqiliang/code/arm-kernel/kernel/time/timer.c:1166
		timer->flags |= TIMER_MIGRATING;
    2c38:	b9402261 	ldr	w1, [x19, #32]
queued_spin_unlock():
/data3/home/yuanqiliang/code/arm-kernel/./include/asm-generic/qspinlock.h:101
	smp_store_release(&lock->locked, 0);
    2c3c:	52800002 	mov	w2, #0x0                   	// #0
add_timer_on():
/data3/home/yuanqiliang/code/arm-kernel/kernel/time/timer.c:1166
    2c40:	320e0021 	orr	w1, w1, #0x40000
    2c44:	b9002261 	str	w1, [x19, #32]
queued_spin_unlock():
/data3/home/yuanqiliang/code/arm-kernel/./include/asm-generic/qspinlock.h:101
    2c48:	089ffc02 	stlrb	w2, [x0]
__cmpxchg_case_acq_4():
/data3/home/yuanqiliang/code/arm-kernel/./arch/arm64/include/asm/atomic_ll_sc.h:272
    2c4c:	d2800000 	mov	x0, #0x0                   	// #0
    2c50:	d2800022 	mov	x2, #0x1                   	// #1
    2c54:	f98002b1 	prfm	pstl1strm, [x21]
    2c58:	885ffea1 	ldaxr	w1, [x21]
    2c5c:	4a000023 	eor	w3, w1, w0
    2c60:	35000063 	cbnz	w3, 2c6c <add_timer_on+0x8c>
    2c64:	88037ea2 	stxr	w3, w2, [x21]
    2c68:	35ffff83 	cbnz	w3, 2c58 <add_timer_on+0x78>
queued_spin_lock():
/data3/home/yuanqiliang/code/arm-kernel/./include/asm-generic/qspinlock.h:86
	if (likely(val == 0))
    2c6c:	350009a1 	cbnz	w1, 2da0 <add_timer_on+0x1c0>
add_timer_on():
/data3/home/yuanqiliang/code/arm-kernel/kernel/time/timer.c:1171
		WRITE_ONCE(timer->flags,
    2c70:	b9402260 	ldr	w0, [x19, #32]
    2c74:	120d3000 	and	w0, w0, #0xfff80000
    2c78:	2a140001 	orr	w1, w0, w20
__write_once_size():
/data3/home/yuanqiliang/code/arm-kernel/./include/linux/compiler.h:219
	case 4: *(volatile __u32 *)p = *(__u32 *)res; break;
    2c7c:	b9002261 	str	w1, [x19, #32]
forward_timer_base():
/data3/home/yuanqiliang/code/arm-kernel/kernel/time/timer.c:891
	if (likely(!base->must_forward_clk))
    2c80:	394096a0 	ldrb	w0, [x21, #37]
    2c84:	350006a0 	cbnz	w0, 2d58 <add_timer_on+0x178>
arch_static_branch():
/data3/home/yuanqiliang/code/arm-kernel/./arch/arm64/include/asm/jump_label.h:20
    2c88:	d503201f 	nop
internal_add_timer():
/data3/home/yuanqiliang/code/arm-kernel/kernel/time/timer.c:591
	__internal_add_timer(base, timer);
    2c8c:	aa1303e1 	mov	x1, x19
    2c90:	aa1503e0 	mov	x0, x21
    2c94:	97fff62b 	bl	540 <__internal_add_timer>
/data3/home/yuanqiliang/code/arm-kernel/kernel/time/timer.c:592
	trigger_dyntick_cpu(base, timer);
    2c98:	91004261 	add	x1, x19, #0x10
    2c9c:	aa1503e0 	mov	x0, x21
    2ca0:	91008262 	add	x2, x19, #0x20
    2ca4:	97fffcf1 	bl	2068 <trigger_dyntick_cpu.isra.3>
queued_spin_unlock():
/data3/home/yuanqiliang/code/arm-kernel/./include/asm-generic/qspinlock.h:101
	smp_store_release(&lock->locked, 0);
    2ca8:	52800001 	mov	w1, #0x0                   	// #0
add_timer_on():
/data3/home/yuanqiliang/code/arm-kernel/kernel/time/timer.c:1178
	raw_spin_unlock_irqrestore(&base->lock, flags);
    2cac:	f94027e0 	ldr	x0, [sp, #72]
queued_spin_unlock():
/data3/home/yuanqiliang/code/arm-kernel/./include/asm-generic/qspinlock.h:101
    2cb0:	089ffea1 	stlrb	w1, [x21]
arch_local_irq_restore():
/data3/home/yuanqiliang/code/arm-kernel/./arch/arm64/include/asm/irqflags.h:77
    2cb4:	d51b4220 	msr	daif, x0
__raw_spin_unlock_irqrestore():
/data3/home/yuanqiliang/code/arm-kernel/./include/linux/spinlock_api_smp.h:161
					    unsigned long flags)
{
	spin_release(&lock->dep_map, 1, _RET_IP_);
	do_raw_spin_unlock(lock);
	local_irq_restore(flags);
	preempt_enable();
    2cb8:	a94153f3 	ldp	x19, x20, [sp, #16]
    2cbc:	a9425bf5 	ldp	x21, x22, [sp, #32]
add_timer_on():
/data3/home/yuanqiliang/code/arm-kernel/kernel/time/timer.c:1179
}
    2cc0:	a8c57bfd 	ldp	x29, x30, [sp], #80
    2cc4:	d65f03c0 	ret
trace_timer_start():
/data3/home/yuanqiliang/code/arm-kernel/./include/trace/events/timer.h:52
    2cc8:	90000000 	adrp	x0, 0 <cpu_number>
    2ccc:	91000000 	add	x0, x0, #0x0
__my_cpu_offset():
/data3/home/yuanqiliang/code/arm-kernel/./arch/arm64/include/asm/percpu.h:30
    2cd0:	d538d081 	mrs	x1, tpidr_el1
trace_timer_start():
/data3/home/yuanqiliang/code/arm-kernel/./include/trace/events/timer.h:52
    2cd4:	b8616801 	ldr	w1, [x0, x1]
test_bit():
/data3/home/yuanqiliang/code/arm-kernel/./include/asm-generic/bitops/non-atomic.h:106
    2cd8:	90000002 	adrp	x2, 0 <__cpu_online_mask>
    2cdc:	91000042 	add	x2, x2, #0x0
    2ce0:	7100003f 	cmp	w1, #0x0
    2ce4:	1100fc20 	add	w0, w1, #0x3f
    2ce8:	1a81b000 	csel	w0, w0, w1, lt  // lt = tstop
    2cec:	13067c00 	asr	w0, w0, #6
    2cf0:	93407c00 	sxtw	x0, w0
    2cf4:	f8607840 	ldr	x0, [x2, x0, lsl #3]
    2cf8:	9ac12401 	lsr	x1, x0, x1
trace_timer_start():
/data3/home/yuanqiliang/code/arm-kernel/./include/trace/events/timer.h:52
    2cfc:	3607fc81 	tbz	w1, #0, 2c8c <add_timer_on+0xac>
    2d00:	f9001bf7 	str	x23, [sp, #48]
debug_activate():
/data3/home/yuanqiliang/code/arm-kernel/kernel/time/timer.c:766
	trace_timer_start(timer, expires, timer->flags);
    2d04:	b9402277 	ldr	w23, [x19, #32]
add_timer_on():
/data3/home/yuanqiliang/code/arm-kernel/kernel/time/timer.c:1176
	debug_activate(timer, timer->expires);
    2d08:	f9400a76 	ldr	x22, [x19, #16]
__read_once_size():
/data3/home/yuanqiliang/code/arm-kernel/./include/linux/compiler.h:193
	__READ_ONCE_SIZE;
    2d0c:	90000000 	adrp	x0, 0 <__round_jiffies>
    2d10:	91000000 	add	x0, x0, #0x0
    2d14:	f9407414 	ldr	x20, [x0, #232]
trace_timer_start():
/data3/home/yuanqiliang/code/arm-kernel/./include/trace/events/timer.h:52
    2d18:	b4000134 	cbz	x20, 2d3c <add_timer_on+0x15c>
    2d1c:	f9400284 	ldr	x4, [x20]
    2d20:	2a1703e3 	mov	w3, w23
    2d24:	f9400680 	ldr	x0, [x20, #8]
    2d28:	aa1603e2 	mov	x2, x22
    2d2c:	aa1303e1 	mov	x1, x19
    2d30:	d63f0080 	blr	x4
    2d34:	f8418e84 	ldr	x4, [x20, #24]!
    2d38:	b5ffff44 	cbnz	x4, 2d20 <add_timer_on+0x140>
    2d3c:	f9401bf7 	ldr	x23, [sp, #48]
    2d40:	17ffffd3 	b	2c8c <add_timer_on+0xac>
get_timer_cpu_base():
/data3/home/yuanqiliang/code/arm-kernel/kernel/time/timer.c:848
		base = per_cpu_ptr(&timer_bases[BASE_DEF], cpu);
    2d44:	90000003 	adrp	x3, 0 <__round_jiffies>
    2d48:	91000075 	add	x21, x3, #0x0
    2d4c:	aa1503e3 	mov	x3, x21
    2d50:	8b030095 	add	x21, x4, x3
    2d54:	17ffffb3 	b	2c20 <add_timer_on+0x40>
__read_once_size():
/data3/home/yuanqiliang/code/arm-kernel/./include/linux/compiler.h:193
    2d58:	90000001 	adrp	x1, 0 <jiffies>
forward_timer_base():
/data3/home/yuanqiliang/code/arm-kernel/kernel/time/timer.c:895
	base->must_forward_clk = base->is_idle;
    2d5c:	394092a2 	ldrb	w2, [x21, #36]
/data3/home/yuanqiliang/code/arm-kernel/kernel/time/timer.c:896
	if ((long)(jnow - base->clk) < 2)
    2d60:	f9400aa0 	ldr	x0, [x21, #16]
/data3/home/yuanqiliang/code/arm-kernel/kernel/time/timer.c:895
	base->must_forward_clk = base->is_idle;
    2d64:	390096a2 	strb	w2, [x21, #37]
__read_once_size():
/data3/home/yuanqiliang/code/arm-kernel/./include/linux/compiler.h:193
    2d68:	f9400021 	ldr	x1, [x1]
forward_timer_base():
/data3/home/yuanqiliang/code/arm-kernel/kernel/time/timer.c:896
	if ((long)(jnow - base->clk) < 2)
    2d6c:	cb000020 	sub	x0, x1, x0
    2d70:	f100041f 	cmp	x0, #0x1
    2d74:	54fff8ad 	b.le	2c88 <add_timer_on+0xa8>
/data3/home/yuanqiliang/code/arm-kernel/kernel/time/timer.c:903
	if (time_after(base->next_expiry, jnow))
    2d78:	f9400ea0 	ldr	x0, [x21, #24]
/data3/home/yuanqiliang/code/arm-kernel/kernel/time/timer.c:904
		base->clk = jnow;
    2d7c:	eb00003f 	cmp	x1, x0
    2d80:	9a815000 	csel	x0, x0, x1, pl  // pl = nfrst
    2d84:	f9000aa0 	str	x0, [x21, #16]
arch_static_branch():
/data3/home/yuanqiliang/code/arm-kernel/./arch/arm64/include/asm/jump_label.h:20
    2d88:	d503201f 	nop
    2d8c:	17ffffc0 	b	2c8c <add_timer_on+0xac>
    2d90:	a90153f3 	stp	x19, x20, [sp, #16]
    2d94:	a9025bf5 	stp	x21, x22, [sp, #32]
    2d98:	f9001bf7 	str	x23, [sp, #48]
add_timer_on():
/data3/home/yuanqiliang/code/arm-kernel/kernel/time/timer.c:1155 (discriminator 3)
	BUG_ON(timer_pending(timer) || !timer->function);
    2d9c:	d4210000 	brk	#0x800
queued_spin_lock():
/data3/home/yuanqiliang/code/arm-kernel/./include/asm-generic/qspinlock.h:88
	queued_spin_lock_slowpath(lock, val);
    2da0:	aa1503e0 	mov	x0, x21
    2da4:	94000000 	bl	0 <queued_spin_lock_slowpath>
    2da8:	17ffffb2 	b	2c70 <add_timer_on+0x90>
add_timer_on():
/data3/home/yuanqiliang/code/arm-kernel/./include/asm-generic/qspinlock.h:88
    2dac:	d503201f 	nop

0000000000002db0 <del_timer_sync>:
del_timer_sync():
/data3/home/yuanqiliang/code/arm-kernel/kernel/time/timer.c:1275
{
    2db0:	a9be7bfd 	stp	x29, x30, [sp, #-32]!
get_current():
/data3/home/yuanqiliang/code/arm-kernel/./arch/arm64/include/asm/current.h:19
    2db4:	d5384101 	mrs	x1, sp_el0
del_timer_sync():
/data3/home/yuanqiliang/code/arm-kernel/kernel/time/timer.c:1275
    2db8:	910003fd 	mov	x29, sp
    2dbc:	f9000bf3 	str	x19, [sp, #16]
    2dc0:	aa0003f3 	mov	x19, x0
__read_once_size():
/data3/home/yuanqiliang/code/arm-kernel/./include/linux/compiler.h:193
    2dc4:	b9401021 	ldr	w1, [x1, #16]
del_timer_sync():
/data3/home/yuanqiliang/code/arm-kernel/kernel/time/timer.c:1292
	WARN_ON(in_irq() && !(timer->flags & TIMER_IRQSAFE));
    2dc8:	72100c3f 	tst	w1, #0xf0000
    2dcc:	54000120 	b.eq	2df0 <del_timer_sync+0x40>  // b.none
/data3/home/yuanqiliang/code/arm-kernel/kernel/time/timer.c:1292 (discriminator 1)
    2dd0:	b9402000 	ldr	w0, [x0, #32]
    2dd4:	37a800e0 	tbnz	w0, #21, 2df0 <del_timer_sync+0x40>
/data3/home/yuanqiliang/code/arm-kernel/kernel/time/timer.c:1292
    2dd8:	90000000 	adrp	x0, 0 <__round_jiffies>
    2ddc:	91000000 	add	x0, x0, #0x0
    2de0:	94000000 	bl	0 <printk>
    2de4:	d4210000 	brk	#0x800
    2de8:	14000002 	b	2df0 <del_timer_sync+0x40>
cpu_relax():
/data3/home/yuanqiliang/code/arm-kernel/./arch/arm64/include/asm/processor.h:221
    2dec:	d503203f 	yield
del_timer_sync():
/data3/home/yuanqiliang/code/arm-kernel/kernel/time/timer.c:1294
		int ret = try_to_del_timer_sync(timer);
    2df0:	aa1303e0 	mov	x0, x19
    2df4:	94000000 	bl	1b90 <try_to_del_timer_sync>
/data3/home/yuanqiliang/code/arm-kernel/kernel/time/timer.c:1295
		if (ret >= 0)
    2df8:	37ffffa0 	tbnz	w0, #31, 2dec <del_timer_sync+0x3c>
/data3/home/yuanqiliang/code/arm-kernel/kernel/time/timer.c:1299
}
    2dfc:	f9400bf3 	ldr	x19, [sp, #16]
    2e00:	a8c27bfd 	ldp	x29, x30, [sp], #32
    2e04:	d65f03c0 	ret

0000000000002e08 <msleep>:
msleep():
/data3/home/yuanqiliang/code/arm-kernel/kernel/time/timer.c:1962
/**
 * msleep - sleep safely even with waitqueue interruptions
 * @msecs: Time in milliseconds to sleep for
 */
void msleep(unsigned int msecs)
{
    2e08:	a9be7bfd 	stp	x29, x30, [sp, #-32]!
    2e0c:	910003fd 	mov	x29, sp
msecs_to_jiffies():
/data3/home/yuanqiliang/code/arm-kernel/./include/linux/jiffies.h:370
	if (__builtin_constant_p(m)) {
		if ((int)m < 0)
			return MAX_JIFFY_OFFSET;
		return _msecs_to_jiffies(m);
	} else {
		return __msecs_to_jiffies(m);
    2e10:	94000000 	bl	0 <__msecs_to_jiffies>
msleep():
/data3/home/yuanqiliang/code/arm-kernel/kernel/time/timer.c:1965
	unsigned long timeout = msecs_to_jiffies(msecs) + 1;

	while (timeout)
    2e14:	b1000400 	adds	x0, x0, #0x1
    2e18:	54000120 	b.eq	2e3c <msleep+0x34>  // b.none
    2e1c:	f9000bf3 	str	x19, [sp, #16]
schedule_timeout_uninterruptible():
/data3/home/yuanqiliang/code/arm-kernel/kernel/time/timer.c:1847
	__set_current_state(TASK_UNINTERRUPTIBLE);
    2e20:	d2800053 	mov	x19, #0x2                   	// #2
    2e24:	d503201f 	nop
get_current():
/data3/home/yuanqiliang/code/arm-kernel/./arch/arm64/include/asm/current.h:19
    2e28:	d5384101 	mrs	x1, sp_el0
schedule_timeout_uninterruptible():
/data3/home/yuanqiliang/code/arm-kernel/kernel/time/timer.c:1847
    2e2c:	f9000c33 	str	x19, [x1, #24]
/data3/home/yuanqiliang/code/arm-kernel/kernel/time/timer.c:1848
	return schedule_timeout(timeout);
    2e30:	94000000 	bl	78 <__round_jiffies_relative+0x10>
msleep():
/data3/home/yuanqiliang/code/arm-kernel/kernel/time/timer.c:1965
	while (timeout)
    2e34:	b5ffffa0 	cbnz	x0, 2e28 <msleep+0x20>
    2e38:	f9400bf3 	ldr	x19, [sp, #16]
/data3/home/yuanqiliang/code/arm-kernel/kernel/time/timer.c:1967
		timeout = schedule_timeout_uninterruptible(timeout);
}
    2e3c:	a8c27bfd 	ldp	x29, x30, [sp], #32
    2e40:	d65f03c0 	ret
    2e44:	d503201f 	nop

0000000000002e48 <msleep_interruptible>:
msleep_interruptible():
/data3/home/yuanqiliang/code/arm-kernel/kernel/time/timer.c:1976
/**
 * msleep_interruptible - sleep waiting for signals
 * @msecs: Time in milliseconds to sleep for
 */
unsigned long msleep_interruptible(unsigned int msecs)
{
    2e48:	a9be7bfd 	stp	x29, x30, [sp, #-32]!
    2e4c:	910003fd 	mov	x29, sp
msecs_to_jiffies():
/data3/home/yuanqiliang/code/arm-kernel/./include/linux/jiffies.h:370
    2e50:	94000000 	bl	0 <__msecs_to_jiffies>
msleep_interruptible():
/data3/home/yuanqiliang/code/arm-kernel/kernel/time/timer.c:1979
	unsigned long timeout = msecs_to_jiffies(msecs) + 1;

	while (timeout && !signal_pending(current))
    2e54:	b1000400 	adds	x0, x0, #0x1
    2e58:	540001c0 	b.eq	2e90 <msleep_interruptible+0x48>  // b.none
get_current():
/data3/home/yuanqiliang/code/arm-kernel/./arch/arm64/include/asm/current.h:19
    2e5c:	d5384101 	mrs	x1, sp_el0
test_bit():
/data3/home/yuanqiliang/code/arm-kernel/./include/asm-generic/bitops/non-atomic.h:106
    2e60:	f9400021 	ldr	x1, [x1]
msleep_interruptible():
/data3/home/yuanqiliang/code/arm-kernel/kernel/time/timer.c:1979
    2e64:	37000181 	tbnz	w1, #0, 2e94 <msleep_interruptible+0x4c>
    2e68:	a90153f3 	stp	x19, x20, [sp, #16]
schedule_timeout_interruptible():
/data3/home/yuanqiliang/code/arm-kernel/kernel/time/timer.c:1833
	__set_current_state(TASK_INTERRUPTIBLE);
    2e6c:	d2800034 	mov	x20, #0x1                   	// #1
    2e70:	14000003 	b	2e7c <msleep_interruptible+0x34>
test_bit():
/data3/home/yuanqiliang/code/arm-kernel/./include/asm-generic/bitops/non-atomic.h:106
    2e74:	f9400261 	ldr	x1, [x19]
msleep_interruptible():
/data3/home/yuanqiliang/code/arm-kernel/kernel/time/timer.c:1979
	while (timeout && !signal_pending(current))
    2e78:	37000161 	tbnz	w1, #0, 2ea4 <msleep_interruptible+0x5c>
get_current():
/data3/home/yuanqiliang/code/arm-kernel/./arch/arm64/include/asm/current.h:19
    2e7c:	d5384113 	mrs	x19, sp_el0
schedule_timeout_interruptible():
/data3/home/yuanqiliang/code/arm-kernel/kernel/time/timer.c:1833
	__set_current_state(TASK_INTERRUPTIBLE);
    2e80:	f9000e74 	str	x20, [x19, #24]
/data3/home/yuanqiliang/code/arm-kernel/kernel/time/timer.c:1834
	return schedule_timeout(timeout);
    2e84:	94000000 	bl	78 <__round_jiffies_relative+0x10>
msleep_interruptible():
/data3/home/yuanqiliang/code/arm-kernel/kernel/time/timer.c:1979
	while (timeout && !signal_pending(current))
    2e88:	b5ffff60 	cbnz	x0, 2e74 <msleep_interruptible+0x2c>
    2e8c:	a94153f3 	ldp	x19, x20, [sp, #16]
/data3/home/yuanqiliang/code/arm-kernel/kernel/time/timer.c:1976
{
    2e90:	d2800000 	mov	x0, #0x0                   	// #0
/data3/home/yuanqiliang/code/arm-kernel/kernel/time/timer.c:1981
		timeout = schedule_timeout_interruptible(timeout);
	return jiffies_to_msecs(timeout);
    2e94:	94000000 	bl	0 <jiffies_to_msecs>
/data3/home/yuanqiliang/code/arm-kernel/kernel/time/timer.c:1982
}
    2e98:	2a0003e0 	mov	w0, w0
    2e9c:	a8c27bfd 	ldp	x29, x30, [sp], #32
    2ea0:	d65f03c0 	ret
    2ea4:	a94153f3 	ldp	x19, x20, [sp, #16]
/data3/home/yuanqiliang/code/arm-kernel/kernel/time/timer.c:1981
	return jiffies_to_msecs(timeout);
    2ea8:	94000000 	bl	0 <jiffies_to_msecs>
/data3/home/yuanqiliang/code/arm-kernel/kernel/time/timer.c:1982
}
    2eac:	2a0003e0 	mov	w0, w0
    2eb0:	a8c27bfd 	ldp	x29, x30, [sp], #32
    2eb4:	d65f03c0 	ret

0000000000002eb8 <expire_timers.part.6>:
expire_timers():
/data3/home/yuanqiliang/code/arm-kernel/kernel/time/timer.c:1345
static void expire_timers(struct timer_base *base, struct hlist_head *head)
    2eb8:	a9bb7bfd 	stp	x29, x30, [sp, #-80]!
    2ebc:	910003fd 	mov	x29, sp
    2ec0:	a90363f7 	stp	x23, x24, [sp, #48]
detach_timer():
/data3/home/yuanqiliang/code/arm-kernel/kernel/time/timer.c:821
	entry->next = LIST_POISON2;
    2ec4:	d2804017 	mov	x23, #0x200                 	// #512
test_bit():
/data3/home/yuanqiliang/code/arm-kernel/./include/asm-generic/bitops/non-atomic.h:106
    2ec8:	90000018 	adrp	x24, 0 <__cpu_online_mask>
detach_timer():
/data3/home/yuanqiliang/code/arm-kernel/kernel/time/timer.c:821
    2ecc:	f2fbd5b7 	movk	x23, #0xdead, lsl #48
test_bit():
/data3/home/yuanqiliang/code/arm-kernel/./include/asm-generic/bitops/non-atomic.h:106
    2ed0:	91000318 	add	x24, x24, #0x0
expire_timers():
/data3/home/yuanqiliang/code/arm-kernel/kernel/time/timer.c:1345
static void expire_timers(struct timer_base *base, struct hlist_head *head)
    2ed4:	a90153f3 	stp	x19, x20, [sp, #16]
    2ed8:	a9025bf5 	stp	x21, x22, [sp, #32]
    2edc:	aa0003f5 	mov	x21, x0
    2ee0:	aa0103f6 	mov	x22, x1
    2ee4:	f90023f9 	str	x25, [sp, #64]
trace_timer_cancel():
/data3/home/yuanqiliang/code/arm-kernel/./include/trace/events/timer.h:132
DEFINE_EVENT(timer_class, timer_cancel,
    2ee8:	90000019 	adrp	x25, 0 <cpu_number>
    2eec:	91000339 	add	x25, x25, #0x0
    2ef0:	1400000e 	b	2f28 <expire_timers.part.6+0x70>
queued_spin_unlock():
/data3/home/yuanqiliang/code/arm-kernel/./include/asm-generic/qspinlock.h:101
	smp_store_release(&lock->locked, 0);
    2ef4:	52800000 	mov	w0, #0x0                   	// #0
    2ef8:	089ffea0 	stlrb	w0, [x21]
expire_timers():
/data3/home/yuanqiliang/code/arm-kernel/kernel/time/timer.c:1360
			call_timer_fn(timer, fn);
    2efc:	aa1303e0 	mov	x0, x19
    2f00:	97fffbb4 	bl	1dd0 <call_timer_fn>
__cmpxchg_case_acq_4():
/data3/home/yuanqiliang/code/arm-kernel/./arch/arm64/include/asm/atomic_ll_sc.h:272
    2f04:	d2800000 	mov	x0, #0x0                   	// #0
    2f08:	d2800022 	mov	x2, #0x1                   	// #1
    2f0c:	f98002b1 	prfm	pstl1strm, [x21]
    2f10:	885ffea1 	ldaxr	w1, [x21]
    2f14:	4a000023 	eor	w3, w1, w0
    2f18:	35000063 	cbnz	w3, 2f24 <expire_timers.part.6+0x6c>
    2f1c:	88037ea2 	stxr	w3, w2, [x21]
    2f20:	35ffff83 	cbnz	w3, 2f10 <expire_timers.part.6+0x58>
queued_spin_lock():
/data3/home/yuanqiliang/code/arm-kernel/./include/asm-generic/qspinlock.h:86
	if (likely(val == 0))
    2f24:	35000621 	cbnz	w1, 2fe8 <expire_timers.part.6+0x130>
__read_once_size():
/data3/home/yuanqiliang/code/arm-kernel/./include/linux/compiler.h:193
    2f28:	f94002c0 	ldr	x0, [x22]
expire_timers():
/data3/home/yuanqiliang/code/arm-kernel/kernel/time/timer.c:1347
	while (!hlist_empty(head)) {
    2f2c:	b4000520 	cbz	x0, 2fd0 <expire_timers.part.6+0x118>
/data3/home/yuanqiliang/code/arm-kernel/kernel/time/timer.c:1351
		timer = hlist_entry(head->first, struct timer_list, entry);
    2f30:	f94002d3 	ldr	x19, [x22]
/data3/home/yuanqiliang/code/arm-kernel/kernel/time/timer.c:1353
		base->running_timer = timer;
    2f34:	f90006b3 	str	x19, [x21, #8]
arch_static_branch():
/data3/home/yuanqiliang/code/arm-kernel/./arch/arm64/include/asm/jump_label.h:20
    2f38:	d503201f 	nop
__hlist_del():
/data3/home/yuanqiliang/code/arm-kernel/./include/linux/list.h:677
	struct hlist_node **pprev = n->pprev;
    2f3c:	a9400660 	ldp	x0, x1, [x19]
__write_once_size():
/data3/home/yuanqiliang/code/arm-kernel/./include/linux/compiler.h:220
	case 8: *(volatile __u64 *)p = *(__u64 *)res; break;
    2f40:	f9000020 	str	x0, [x1]
__hlist_del():
/data3/home/yuanqiliang/code/arm-kernel/./include/linux/list.h:680
	if (next)
    2f44:	b4000040 	cbz	x0, 2f4c <expire_timers.part.6+0x94>
/data3/home/yuanqiliang/code/arm-kernel/./include/linux/list.h:681
		next->pprev = pprev;
    2f48:	f9000401 	str	x1, [x0, #8]
expire_timers():
/data3/home/yuanqiliang/code/arm-kernel/kernel/time/timer.c:1358
		if (timer->flags & TIMER_IRQSAFE) {
    2f4c:	b9402260 	ldr	w0, [x19, #32]
detach_timer():
/data3/home/yuanqiliang/code/arm-kernel/kernel/time/timer.c:820
		entry->pprev = NULL;
    2f50:	a9007e77 	stp	x23, xzr, [x19]
expire_timers():
/data3/home/yuanqiliang/code/arm-kernel/kernel/time/timer.c:1356
		fn = timer->function;
    2f54:	f9400e61 	ldr	x1, [x19, #24]
/data3/home/yuanqiliang/code/arm-kernel/kernel/time/timer.c:1358
		if (timer->flags & TIMER_IRQSAFE) {
    2f58:	37affce0 	tbnz	w0, #21, 2ef4 <expire_timers.part.6+0x3c>
queued_spin_unlock():
/data3/home/yuanqiliang/code/arm-kernel/./include/asm-generic/qspinlock.h:101
	smp_store_release(&lock->locked, 0);
    2f5c:	52800000 	mov	w0, #0x0                   	// #0
    2f60:	089ffea0 	stlrb	w0, [x21]
arch_local_irq_enable():
/data3/home/yuanqiliang/code/arm-kernel/./arch/arm64/include/asm/irqflags.h:42
	asm volatile(
    2f64:	d50342ff 	msr	daifclr, #0x2
expire_timers():
/data3/home/yuanqiliang/code/arm-kernel/kernel/time/timer.c:1364
			call_timer_fn(timer, fn);
    2f68:	aa1303e0 	mov	x0, x19
    2f6c:	97fffb99 	bl	1dd0 <call_timer_fn>
arch_local_irq_disable():
/data3/home/yuanqiliang/code/arm-kernel/./arch/arm64/include/asm/irqflags.h:51
	asm volatile(
    2f70:	d50342df 	msr	daifset, #0x2
    2f74:	17ffffe4 	b	2f04 <expire_timers.part.6+0x4c>
trace_timer_cancel():
/data3/home/yuanqiliang/code/arm-kernel/./include/trace/events/timer.h:132
    2f78:	aa1903e0 	mov	x0, x25
__my_cpu_offset():
/data3/home/yuanqiliang/code/arm-kernel/./arch/arm64/include/asm/percpu.h:30
    2f7c:	d538d081 	mrs	x1, tpidr_el1
trace_timer_cancel():
/data3/home/yuanqiliang/code/arm-kernel/./include/trace/events/timer.h:132
    2f80:	b8616801 	ldr	w1, [x0, x1]
test_bit():
/data3/home/yuanqiliang/code/arm-kernel/./include/asm-generic/bitops/non-atomic.h:106
    2f84:	7100003f 	cmp	w1, #0x0
    2f88:	1100fc20 	add	w0, w1, #0x3f
    2f8c:	1a81b000 	csel	w0, w0, w1, lt  // lt = tstop
    2f90:	13067c00 	asr	w0, w0, #6
    2f94:	93407c00 	sxtw	x0, w0
    2f98:	f8607b00 	ldr	x0, [x24, x0, lsl #3]
    2f9c:	9ac12401 	lsr	x1, x0, x1
trace_timer_cancel():
/data3/home/yuanqiliang/code/arm-kernel/./include/trace/events/timer.h:132
    2fa0:	3607fce1 	tbz	w1, #0, 2f3c <expire_timers.part.6+0x84>
__read_once_size():
/data3/home/yuanqiliang/code/arm-kernel/./include/linux/compiler.h:193
	__READ_ONCE_SIZE;
    2fa4:	90000000 	adrp	x0, 0 <__round_jiffies>
    2fa8:	91000000 	add	x0, x0, #0x0
    2fac:	f9401414 	ldr	x20, [x0, #40]
trace_timer_cancel():
/data3/home/yuanqiliang/code/arm-kernel/./include/trace/events/timer.h:132
    2fb0:	b40000f4 	cbz	x20, 2fcc <expire_timers.part.6+0x114>
    2fb4:	f9400282 	ldr	x2, [x20]
    2fb8:	aa1303e1 	mov	x1, x19
    2fbc:	f9400680 	ldr	x0, [x20, #8]
    2fc0:	d63f0040 	blr	x2
    2fc4:	f8418e82 	ldr	x2, [x20, #24]!
    2fc8:	b5ffff82 	cbnz	x2, 2fb8 <expire_timers.part.6+0x100>
    2fcc:	17ffffdc 	b	2f3c <expire_timers.part.6+0x84>
expire_timers():
/data3/home/yuanqiliang/code/arm-kernel/kernel/time/timer.c:1368
}
    2fd0:	a94153f3 	ldp	x19, x20, [sp, #16]
    2fd4:	a9425bf5 	ldp	x21, x22, [sp, #32]
    2fd8:	a94363f7 	ldp	x23, x24, [sp, #48]
    2fdc:	f94023f9 	ldr	x25, [sp, #64]
    2fe0:	a8c57bfd 	ldp	x29, x30, [sp], #80
    2fe4:	d65f03c0 	ret
queued_spin_lock():
/data3/home/yuanqiliang/code/arm-kernel/./include/asm-generic/qspinlock.h:88
	queued_spin_lock_slowpath(lock, val);
    2fe8:	aa1503e0 	mov	x0, x21
    2fec:	94000000 	bl	0 <queued_spin_lock_slowpath>
    2ff0:	17ffffce 	b	2f28 <expire_timers.part.6+0x70>
expire_timers.part.6():
/data3/home/yuanqiliang/code/arm-kernel/./include/asm-generic/qspinlock.h:88
    2ff4:	d503201f 	nop

0000000000002ff8 <run_timer_softirq>:
run_timer_softirq():
/data3/home/yuanqiliang/code/arm-kernel/kernel/time/timer.c:1702
{
    2ff8:	a9b87bfd 	stp	x29, x30, [sp, #-128]!
    2ffc:	910003fd 	mov	x29, sp
__my_cpu_offset():
/data3/home/yuanqiliang/code/arm-kernel/./arch/arm64/include/asm/percpu.h:34
		"Q" (*(const unsigned long *)current_stack_pointer));
    3000:	910003e0 	mov	x0, sp
run_timer_softirq():
/data3/home/yuanqiliang/code/arm-kernel/kernel/time/timer.c:1702
    3004:	a90153f3 	stp	x19, x20, [sp, #16]
/data3/home/yuanqiliang/code/arm-kernel/kernel/time/timer.c:1703
	struct timer_base *base = this_cpu_ptr(&timer_bases[BASE_STD]);
    3008:	90000014 	adrp	x20, 0 <__round_jiffies>
    300c:	91000294 	add	x20, x20, #0x0
/data3/home/yuanqiliang/code/arm-kernel/kernel/time/timer.c:1702
{
    3010:	a9025bf5 	stp	x21, x22, [sp, #32]
__my_cpu_offset():
/data3/home/yuanqiliang/code/arm-kernel/./arch/arm64/include/asm/percpu.h:30
	asm(ALTERNATIVE("mrs %0, tpidr_el1",
    3014:	d538d081 	mrs	x1, tpidr_el1
__run_timers():
/data3/home/yuanqiliang/code/arm-kernel/kernel/time/timer.c:1665
	if (!time_after_eq(jiffies, base->clk))
    3018:	90000016 	adrp	x22, 0 <jiffies>
run_timer_softirq():
/data3/home/yuanqiliang/code/arm-kernel/kernel/time/timer.c:1703
	struct timer_base *base = this_cpu_ptr(&timer_bases[BASE_STD]);
    301c:	8b010294 	add	x20, x20, x1
__run_timers():
/data3/home/yuanqiliang/code/arm-kernel/kernel/time/timer.c:1665
	if (!time_after_eq(jiffies, base->clk))
    3020:	f94002c2 	ldr	x2, [x22]
    3024:	f9400a81 	ldr	x1, [x20, #16]
    3028:	eb01005f 	cmp	x2, x1
    302c:	54000564 	b.mi	30d8 <run_timer_softirq+0xe0>  // b.first
arch_local_irq_disable():
/data3/home/yuanqiliang/code/arm-kernel/./arch/arm64/include/asm/irqflags.h:51
    3030:	d50342df 	msr	daifset, #0x2
__cmpxchg_case_acq_4():
/data3/home/yuanqiliang/code/arm-kernel/./arch/arm64/include/asm/atomic_ll_sc.h:272
    3034:	d2800000 	mov	x0, #0x0                   	// #0
    3038:	d2800022 	mov	x2, #0x1                   	// #1
    303c:	f9800291 	prfm	pstl1strm, [x20]
    3040:	885ffe81 	ldaxr	w1, [x20]
    3044:	4a000023 	eor	w3, w1, w0
    3048:	35000063 	cbnz	w3, 3054 <run_timer_softirq+0x5c>
    304c:	88037e82 	stxr	w3, w2, [x20]
    3050:	35ffff83 	cbnz	w3, 3040 <run_timer_softirq+0x48>
queued_spin_lock():
/data3/home/yuanqiliang/code/arm-kernel/./include/asm-generic/qspinlock.h:86
	if (likely(val == 0))
    3054:	35000ac1 	cbnz	w1, 31ac <run_timer_softirq+0x1b4>
__run_timers():
/data3/home/yuanqiliang/code/arm-kernel/kernel/time/timer.c:1684
	base->must_forward_clk = false;
    3058:	f9400a81 	ldr	x1, [x20, #16]
    305c:	90000015 	adrp	x21, 0 <jiffies>
    3060:	910002b5 	add	x21, x21, #0x0
    3064:	3900969f 	strb	wzr, [x20, #37]
/data3/home/yuanqiliang/code/arm-kernel/kernel/time/timer.c:1686
	while (time_after_eq(jiffies, base->clk)) {
    3068:	f94002a0 	ldr	x0, [x21]
    306c:	eb01001f 	cmp	x0, x1
    3070:	540002a4 	b.mi	30c4 <run_timer_softirq+0xcc>  // b.first
/data3/home/yuanqiliang/code/arm-kernel/kernel/time/timer.c:1688
		levels = collect_expired_timers(base, heads);
    3074:	9100e3e1 	add	x1, sp, #0x38
    3078:	aa1403e0 	mov	x0, x20
    307c:	97fffb17 	bl	1cd8 <collect_expired_timers>
/data3/home/yuanqiliang/code/arm-kernel/kernel/time/timer.c:1691
		while (levels--)
    3080:	51000413 	sub	w19, w0, #0x1
/data3/home/yuanqiliang/code/arm-kernel/kernel/time/timer.c:1689
		base->clk++;
    3084:	f9400a81 	ldr	x1, [x20, #16]
    3088:	91000421 	add	x1, x1, #0x1
    308c:	f9000a81 	str	x1, [x20, #16]
/data3/home/yuanqiliang/code/arm-kernel/kernel/time/timer.c:1691
		while (levels--)
    3090:	34fffec0 	cbz	w0, 3068 <run_timer_softirq+0x70>
    3094:	d503201f 	nop
expire_timers():
/data3/home/yuanqiliang/code/arm-kernel/kernel/time/timer.c:1347
	while (!hlist_empty(head)) {
    3098:	9100e3e0 	add	x0, sp, #0x38
    309c:	8b33cc01 	add	x1, x0, w19, sxtw #3
    30a0:	aa1403e0 	mov	x0, x20
__run_timers():
/data3/home/yuanqiliang/code/arm-kernel/kernel/time/timer.c:1691
		while (levels--)
    30a4:	51000673 	sub	w19, w19, #0x1
expire_timers():
/data3/home/yuanqiliang/code/arm-kernel/kernel/time/timer.c:1691
    30a8:	97ffff84 	bl	2eb8 <expire_timers.part.6>
__run_timers():
/data3/home/yuanqiliang/code/arm-kernel/kernel/time/timer.c:1691
    30ac:	3100067f 	cmn	w19, #0x1
    30b0:	54ffff41 	b.ne	3098 <run_timer_softirq+0xa0>  // b.any
/data3/home/yuanqiliang/code/arm-kernel/kernel/time/timer.c:1686
	while (time_after_eq(jiffies, base->clk)) {
    30b4:	f94002a0 	ldr	x0, [x21]
    30b8:	f9400a81 	ldr	x1, [x20, #16]
    30bc:	eb01001f 	cmp	x0, x1
    30c0:	54fffda5 	b.pl	3074 <run_timer_softirq+0x7c>  // b.nfrst
queued_spin_unlock():
/data3/home/yuanqiliang/code/arm-kernel/./include/asm-generic/qspinlock.h:101
	smp_store_release(&lock->locked, 0);
    30c4:	52800000 	mov	w0, #0x0                   	// #0
__run_timers():
/data3/home/yuanqiliang/code/arm-kernel/kernel/time/timer.c:1694
	base->running_timer = NULL;
    30c8:	f900069f 	str	xzr, [x20, #8]
queued_spin_unlock():
/data3/home/yuanqiliang/code/arm-kernel/./include/asm-generic/qspinlock.h:101
    30cc:	089ffe80 	stlrb	w0, [x20]
arch_local_irq_enable():
/data3/home/yuanqiliang/code/arm-kernel/./arch/arm64/include/asm/irqflags.h:42
	asm volatile(
    30d0:	d50342ff 	msr	daifclr, #0x2
__raw_spin_unlock_irq():
/data3/home/yuanqiliang/code/arm-kernel/./include/linux/spinlock_api_smp.h:169
static inline void __raw_spin_unlock_irq(raw_spinlock_t *lock)
{
	spin_release(&lock->dep_map, 1, _RET_IP_);
	do_raw_spin_unlock(lock);
	local_irq_enable();
	preempt_enable();
    30d4:	910003e0 	mov	x0, sp
__my_cpu_offset():
/data3/home/yuanqiliang/code/arm-kernel/./arch/arm64/include/asm/percpu.h:30
    30d8:	d538d080 	mrs	x0, tpidr_el1
run_timer_softirq():
/data3/home/yuanqiliang/code/arm-kernel/kernel/time/timer.c:1707
		__run_timers(this_cpu_ptr(&timer_bases[BASE_DEF]));
    30dc:	90000014 	adrp	x20, 0 <__round_jiffies>
    30e0:	91000294 	add	x20, x20, #0x0
    30e4:	8b000294 	add	x20, x20, x0
__run_timers():
/data3/home/yuanqiliang/code/arm-kernel/kernel/time/timer.c:1665
	if (!time_after_eq(jiffies, base->clk))
    30e8:	f94002c1 	ldr	x1, [x22]
    30ec:	f9400a80 	ldr	x0, [x20, #16]
    30f0:	eb00003f 	cmp	x1, x0
    30f4:	54000544 	b.mi	319c <run_timer_softirq+0x1a4>  // b.first
arch_local_irq_disable():
/data3/home/yuanqiliang/code/arm-kernel/./arch/arm64/include/asm/irqflags.h:51
	asm volatile(
    30f8:	d50342df 	msr	daifset, #0x2
__cmpxchg_case_acq_4():
/data3/home/yuanqiliang/code/arm-kernel/./arch/arm64/include/asm/atomic_ll_sc.h:272
    30fc:	d2800000 	mov	x0, #0x0                   	// #0
    3100:	d2800022 	mov	x2, #0x1                   	// #1
    3104:	f9800291 	prfm	pstl1strm, [x20]
    3108:	885ffe81 	ldaxr	w1, [x20]
    310c:	4a000023 	eor	w3, w1, w0
    3110:	35000063 	cbnz	w3, 311c <run_timer_softirq+0x124>
    3114:	88037e82 	stxr	w3, w2, [x20]
    3118:	35ffff83 	cbnz	w3, 3108 <run_timer_softirq+0x110>
queued_spin_lock():
/data3/home/yuanqiliang/code/arm-kernel/./include/asm-generic/qspinlock.h:86
	if (likely(val == 0))
    311c:	350004e1 	cbnz	w1, 31b8 <run_timer_softirq+0x1c0>
__run_timers():
/data3/home/yuanqiliang/code/arm-kernel/kernel/time/timer.c:1684
	base->must_forward_clk = false;
    3120:	f9400a81 	ldr	x1, [x20, #16]
    3124:	90000015 	adrp	x21, 0 <jiffies>
    3128:	910002b5 	add	x21, x21, #0x0
    312c:	3900969f 	strb	wzr, [x20, #37]
/data3/home/yuanqiliang/code/arm-kernel/kernel/time/timer.c:1686
	while (time_after_eq(jiffies, base->clk)) {
    3130:	f94002a0 	ldr	x0, [x21]
    3134:	eb01001f 	cmp	x0, x1
    3138:	540002a4 	b.mi	318c <run_timer_softirq+0x194>  // b.first
/data3/home/yuanqiliang/code/arm-kernel/kernel/time/timer.c:1688
		levels = collect_expired_timers(base, heads);
    313c:	9100e3e1 	add	x1, sp, #0x38
    3140:	aa1403e0 	mov	x0, x20
    3144:	97fffae5 	bl	1cd8 <collect_expired_timers>
/data3/home/yuanqiliang/code/arm-kernel/kernel/time/timer.c:1691
		while (levels--)
    3148:	51000413 	sub	w19, w0, #0x1
/data3/home/yuanqiliang/code/arm-kernel/kernel/time/timer.c:1689
		base->clk++;
    314c:	f9400a81 	ldr	x1, [x20, #16]
    3150:	91000421 	add	x1, x1, #0x1
    3154:	f9000a81 	str	x1, [x20, #16]
/data3/home/yuanqiliang/code/arm-kernel/kernel/time/timer.c:1691
		while (levels--)
    3158:	34fffec0 	cbz	w0, 3130 <run_timer_softirq+0x138>
    315c:	d503201f 	nop
expire_timers():
/data3/home/yuanqiliang/code/arm-kernel/kernel/time/timer.c:1347
	while (!hlist_empty(head)) {
    3160:	9100e3e0 	add	x0, sp, #0x38
    3164:	8b33cc01 	add	x1, x0, w19, sxtw #3
    3168:	aa1403e0 	mov	x0, x20
__run_timers():
/data3/home/yuanqiliang/code/arm-kernel/kernel/time/timer.c:1691
		while (levels--)
    316c:	51000673 	sub	w19, w19, #0x1
expire_timers():
/data3/home/yuanqiliang/code/arm-kernel/kernel/time/timer.c:1691
    3170:	97ffff52 	bl	2eb8 <expire_timers.part.6>
__run_timers():
/data3/home/yuanqiliang/code/arm-kernel/kernel/time/timer.c:1691
    3174:	3100067f 	cmn	w19, #0x1
    3178:	54ffff41 	b.ne	3160 <run_timer_softirq+0x168>  // b.any
/data3/home/yuanqiliang/code/arm-kernel/kernel/time/timer.c:1686
	while (time_after_eq(jiffies, base->clk)) {
    317c:	f94002a0 	ldr	x0, [x21]
    3180:	f9400a81 	ldr	x1, [x20, #16]
    3184:	eb01001f 	cmp	x0, x1
    3188:	54fffda5 	b.pl	313c <run_timer_softirq+0x144>  // b.nfrst
queued_spin_unlock():
/data3/home/yuanqiliang/code/arm-kernel/./include/asm-generic/qspinlock.h:101
	smp_store_release(&lock->locked, 0);
    318c:	52800000 	mov	w0, #0x0                   	// #0
__run_timers():
/data3/home/yuanqiliang/code/arm-kernel/kernel/time/timer.c:1694
	base->running_timer = NULL;
    3190:	f900069f 	str	xzr, [x20, #8]
queued_spin_unlock():
/data3/home/yuanqiliang/code/arm-kernel/./include/asm-generic/qspinlock.h:101
    3194:	089ffe80 	stlrb	w0, [x20]
arch_local_irq_enable():
/data3/home/yuanqiliang/code/arm-kernel/./arch/arm64/include/asm/irqflags.h:42
	asm volatile(
    3198:	d50342ff 	msr	daifclr, #0x2
run_timer_softirq():
/data3/home/yuanqiliang/code/arm-kernel/kernel/time/timer.c:1708
}
    319c:	a94153f3 	ldp	x19, x20, [sp, #16]
    31a0:	a9425bf5 	ldp	x21, x22, [sp, #32]
    31a4:	a8c87bfd 	ldp	x29, x30, [sp], #128
    31a8:	d65f03c0 	ret
queued_spin_lock():
/data3/home/yuanqiliang/code/arm-kernel/./include/asm-generic/qspinlock.h:88
	queued_spin_lock_slowpath(lock, val);
    31ac:	aa1403e0 	mov	x0, x20
    31b0:	94000000 	bl	0 <queued_spin_lock_slowpath>
    31b4:	17ffffa9 	b	3058 <run_timer_softirq+0x60>
    31b8:	aa1403e0 	mov	x0, x20
    31bc:	94000000 	bl	0 <queued_spin_lock_slowpath>
    31c0:	17ffffd8 	b	3120 <run_timer_softirq+0x128>
run_timer_softirq():
/data3/home/yuanqiliang/code/arm-kernel/./include/asm-generic/qspinlock.h:88
    31c4:	d503201f 	nop

00000000000031c8 <__bpf_trace_timer_expire_entry>:
__bpf_trace_timer_expire_entry():
/data3/home/yuanqiliang/code/arm-kernel/./include/asm-generic/qspinlock.h:88
    31c8:	a9bf7bfd 	stp	x29, x30, [sp, #-16]!
    31cc:	910003fd 	mov	x29, sp
    31d0:	94000000 	bl	0 <bpf_trace_run1>
    31d4:	a8c17bfd 	ldp	x29, x30, [sp], #16
    31d8:	d65f03c0 	ret
    31dc:	d503201f 	nop

00000000000031e0 <timers_update_nohz>:
timers_update_nohz():
/data3/home/yuanqiliang/code/arm-kernel/kernel/time/timer.c:245
{
    31e0:	a9bf7bfd 	stp	x29, x30, [sp, #-16]!
schedule_work():
/data3/home/yuanqiliang/code/arm-kernel/./include/linux/workqueue.h:570
 * queued and leaves it in the same position on the kernel-global
 * workqueue otherwise.
 */
static inline bool schedule_work(struct work_struct *work)
{
	return queue_work(system_wq, work);
    31e4:	90000001 	adrp	x1, 0 <system_wq>
queue_work():
/data3/home/yuanqiliang/code/arm-kernel/./include/linux/workqueue.h:512
	return queue_work_on(WORK_CPU_UNBOUND, wq, work);
    31e8:	90000002 	adrp	x2, 0 <__round_jiffies>
timers_update_nohz():
/data3/home/yuanqiliang/code/arm-kernel/kernel/time/timer.c:245
    31ec:	910003fd 	mov	x29, sp
queue_work():
/data3/home/yuanqiliang/code/arm-kernel/./include/linux/workqueue.h:512
    31f0:	f9400021 	ldr	x1, [x1]
    31f4:	91000042 	add	x2, x2, #0x0
    31f8:	9100a042 	add	x2, x2, #0x28
    31fc:	52802000 	mov	w0, #0x100                 	// #256
    3200:	94000000 	bl	0 <queue_work_on>
timers_update_nohz():
/data3/home/yuanqiliang/code/arm-kernel/kernel/time/timer.c:247
}
    3204:	a8c17bfd 	ldp	x29, x30, [sp], #16
    3208:	d65f03c0 	ret
    320c:	d503201f 	nop

0000000000003210 <timer_migration_handler>:
timer_migration_handler():
/data3/home/yuanqiliang/code/arm-kernel/kernel/time/timer.c:252
{
    3210:	a9bc7bfd 	stp	x29, x30, [sp, #-64]!
    3214:	910003fd 	mov	x29, sp
    3218:	a90153f3 	stp	x19, x20, [sp, #16]
/data3/home/yuanqiliang/code/arm-kernel/kernel/time/timer.c:255
	mutex_lock(&timer_keys_mutex);
    321c:	90000013 	adrp	x19, 0 <__round_jiffies>
    3220:	91000273 	add	x19, x19, #0x0
/data3/home/yuanqiliang/code/arm-kernel/kernel/time/timer.c:252
{
    3224:	aa0003f4 	mov	x20, x0
/data3/home/yuanqiliang/code/arm-kernel/kernel/time/timer.c:255
	mutex_lock(&timer_keys_mutex);
    3228:	91002260 	add	x0, x19, #0x8
/data3/home/yuanqiliang/code/arm-kernel/kernel/time/timer.c:252
{
    322c:	a9025bf5 	stp	x21, x22, [sp, #32]
    3230:	2a0103f5 	mov	w21, w1
    3234:	aa0203f6 	mov	x22, x2
    3238:	a90363f7 	stp	x23, x24, [sp, #48]
    323c:	aa0303f7 	mov	x23, x3
    3240:	aa0403f8 	mov	x24, x4
/data3/home/yuanqiliang/code/arm-kernel/kernel/time/timer.c:255
	mutex_lock(&timer_keys_mutex);
    3244:	94000000 	bl	0 <mutex_lock>
/data3/home/yuanqiliang/code/arm-kernel/kernel/time/timer.c:256
	ret = proc_dointvec_minmax(table, write, buffer, lenp, ppos);
    3248:	aa1403e0 	mov	x0, x20
    324c:	aa1803e4 	mov	x4, x24
    3250:	aa1703e3 	mov	x3, x23
    3254:	aa1603e2 	mov	x2, x22
    3258:	2a1503e1 	mov	w1, w21
    325c:	94000000 	bl	0 <proc_dointvec_minmax>
/data3/home/yuanqiliang/code/arm-kernel/kernel/time/timer.c:257
	if (!ret && write)
    3260:	7100001f 	cmp	w0, #0x0
/data3/home/yuanqiliang/code/arm-kernel/kernel/time/timer.c:256
	ret = proc_dointvec_minmax(table, write, buffer, lenp, ppos);
    3264:	2a0003f4 	mov	w20, w0
/data3/home/yuanqiliang/code/arm-kernel/kernel/time/timer.c:257
	if (!ret && write)
    3268:	7a400aa4 	ccmp	w21, #0x0, #0x4, eq  // eq = none
    326c:	54000121 	b.ne	3290 <timer_migration_handler+0x80>  // b.any
/data3/home/yuanqiliang/code/arm-kernel/kernel/time/timer.c:259
	mutex_unlock(&timer_keys_mutex);
    3270:	91002260 	add	x0, x19, #0x8
    3274:	94000000 	bl	0 <mutex_unlock>
/data3/home/yuanqiliang/code/arm-kernel/kernel/time/timer.c:261
}
    3278:	2a1403e0 	mov	w0, w20
    327c:	a94153f3 	ldp	x19, x20, [sp, #16]
    3280:	a9425bf5 	ldp	x21, x22, [sp, #32]
    3284:	a94363f7 	ldp	x23, x24, [sp, #48]
    3288:	a8c47bfd 	ldp	x29, x30, [sp], #64
    328c:	d65f03c0 	ret
/data3/home/yuanqiliang/code/arm-kernel/kernel/time/timer.c:258
		timers_update_migration();
    3290:	97fff9e2 	bl	1a18 <timers_update_migration>
/data3/home/yuanqiliang/code/arm-kernel/kernel/time/timer.c:259
	mutex_unlock(&timer_keys_mutex);
    3294:	91002260 	add	x0, x19, #0x8
    3298:	94000000 	bl	0 <mutex_unlock>
/data3/home/yuanqiliang/code/arm-kernel/kernel/time/timer.c:261
}
    329c:	2a1403e0 	mov	w0, w20
    32a0:	a94153f3 	ldp	x19, x20, [sp, #16]
    32a4:	a9425bf5 	ldp	x21, x22, [sp, #32]
    32a8:	a94363f7 	ldp	x23, x24, [sp, #48]
    32ac:	a8c47bfd 	ldp	x29, x30, [sp], #64
    32b0:	d65f03c0 	ret
    32b4:	d503201f 	nop

00000000000032b8 <get_next_timer_interrupt>:
get_next_timer_interrupt():
/data3/home/yuanqiliang/code/arm-kernel/kernel/time/timer.c:1521
{
    32b8:	a9bd7bfd 	stp	x29, x30, [sp, #-48]!
/data3/home/yuanqiliang/code/arm-kernel/kernel/time/timer.c:1531
	if (cpu_is_offline(smp_processor_id()))
    32bc:	90000002 	adrp	x2, 0 <cpu_number>
    32c0:	91000042 	add	x2, x2, #0x0
/data3/home/yuanqiliang/code/arm-kernel/kernel/time/timer.c:1521
{
    32c4:	910003fd 	mov	x29, sp
    32c8:	a90153f3 	stp	x19, x20, [sp, #16]
test_bit():
/data3/home/yuanqiliang/code/arm-kernel/./include/asm-generic/bitops/non-atomic.h:106
    32cc:	90000004 	adrp	x4, 0 <__cpu_online_mask>
__my_cpu_offset():
/data3/home/yuanqiliang/code/arm-kernel/./arch/arm64/include/asm/percpu.h:30
    32d0:	d538d085 	mrs	x5, tpidr_el1
get_next_timer_interrupt():
/data3/home/yuanqiliang/code/arm-kernel/kernel/time/timer.c:1531
	if (cpu_is_offline(smp_processor_id()))
    32d4:	b8656843 	ldr	w3, [x2, x5]
test_bit():
/data3/home/yuanqiliang/code/arm-kernel/./include/asm-generic/bitops/non-atomic.h:106
    32d8:	91000084 	add	x4, x4, #0x0
get_next_timer_interrupt():
/data3/home/yuanqiliang/code/arm-kernel/kernel/time/timer.c:1522
	struct timer_base *base = this_cpu_ptr(&timer_bases[BASE_STD]);
    32dc:	90000013 	adrp	x19, 0 <__round_jiffies>
    32e0:	91000273 	add	x19, x19, #0x0
test_bit():
/data3/home/yuanqiliang/code/arm-kernel/./include/asm-generic/bitops/non-atomic.h:106
    32e4:	7100007f 	cmp	w3, #0x0
    32e8:	1100fc62 	add	w2, w3, #0x3f
    32ec:	1a83b042 	csel	w2, w2, w3, lt  // lt = tstop
    32f0:	13067c42 	asr	w2, w2, #6
get_next_timer_interrupt():
/data3/home/yuanqiliang/code/arm-kernel/kernel/time/timer.c:1522
    32f4:	8b050273 	add	x19, x19, x5
test_bit():
/data3/home/yuanqiliang/code/arm-kernel/./include/asm-generic/bitops/non-atomic.h:106
    32f8:	93407c42 	sxtw	x2, w2
    32fc:	f8627882 	ldr	x2, [x4, x2, lsl #3]
    3300:	9ac32443 	lsr	x3, x2, x3
get_next_timer_interrupt():
/data3/home/yuanqiliang/code/arm-kernel/kernel/time/timer.c:1531
	if (cpu_is_offline(smp_processor_id()))
    3304:	360009c3 	tbz	w3, #0, 343c <get_next_timer_interrupt+0x184>
__raw_spin_lock():
/data3/home/yuanqiliang/code/arm-kernel/./include/linux/spinlock_api_smp.h:141
	preempt_disable();
    3308:	aa0003f4 	mov	x20, x0
    330c:	f90013f5 	str	x21, [sp, #32]
    3310:	aa0103f5 	mov	x21, x1
__cmpxchg_case_acq_4():
/data3/home/yuanqiliang/code/arm-kernel/./arch/arm64/include/asm/atomic_ll_sc.h:272
    3314:	d2800000 	mov	x0, #0x0                   	// #0
    3318:	d2800022 	mov	x2, #0x1                   	// #1
    331c:	f9800271 	prfm	pstl1strm, [x19]
    3320:	885ffe61 	ldaxr	w1, [x19]
    3324:	4a000023 	eor	w3, w1, w0
    3328:	35000063 	cbnz	w3, 3334 <get_next_timer_interrupt+0x7c>
    332c:	88037e62 	stxr	w3, w2, [x19]
    3330:	35ffff83 	cbnz	w3, 3320 <get_next_timer_interrupt+0x68>
queued_spin_lock():
/data3/home/yuanqiliang/code/arm-kernel/./include/asm-generic/qspinlock.h:86
	if (likely(val == 0))
    3334:	350008e1 	cbnz	w1, 3450 <get_next_timer_interrupt+0x198>
get_next_timer_interrupt():
/data3/home/yuanqiliang/code/arm-kernel/kernel/time/timer.c:1535
	nextevt = __next_timer_interrupt(base);
    3338:	aa1303e0 	mov	x0, x19
    333c:	97fffa2d 	bl	1bf0 <__next_timer_interrupt>
/data3/home/yuanqiliang/code/arm-kernel/kernel/time/timer.c:1536
	is_max_delta = (nextevt == base->clk + NEXT_TIMER_MAX_DELTA);
    3340:	f9400a61 	ldr	x1, [x19, #16]
/data3/home/yuanqiliang/code/arm-kernel/kernel/time/timer.c:1537
	base->next_expiry = nextevt;
    3344:	f9000e60 	str	x0, [x19, #24]
/data3/home/yuanqiliang/code/arm-kernel/kernel/time/timer.c:1543
	if (time_after(basej, base->clk)) {
    3348:	eb14003f 	cmp	x1, x20
    334c:	54000664 	b.mi	3418 <get_next_timer_interrupt+0x160>  // b.first
/data3/home/yuanqiliang/code/arm-kernel/kernel/time/timer.c:1550
	if (time_before_eq(nextevt, basej)) {
    3350:	eb00029f 	cmp	x20, x0
    3354:	54000424 	b.mi	33d8 <get_next_timer_interrupt+0x120>  // b.first
/data3/home/yuanqiliang/code/arm-kernel/kernel/time/timer.c:1552
		base->is_idle = false;
    3358:	aa1503f4 	mov	x20, x21
    335c:	3900927f 	strb	wzr, [x19, #36]
queued_spin_unlock():
/data3/home/yuanqiliang/code/arm-kernel/./include/asm-generic/qspinlock.h:101
	smp_store_release(&lock->locked, 0);
    3360:	52800000 	mov	w0, #0x0                   	// #0
    3364:	089ffe60 	stlrb	w0, [x19]
cmp_next_hrtimer_event():
/data3/home/yuanqiliang/code/arm-kernel/kernel/time/timer.c:1485
	u64 nextevt = hrtimer_get_next_event();
    3368:	94000000 	bl	0 <hrtimer_get_next_event>
/data3/home/yuanqiliang/code/arm-kernel/kernel/time/timer.c:1491
	if (expires <= nextevt)
    336c:	eb00029f 	cmp	x20, x0
    3370:	54000289 	b.ls	33c0 <get_next_timer_interrupt+0x108>  // b.plast
/data3/home/yuanqiliang/code/arm-kernel/kernel/time/timer.c:1498
	if (nextevt <= basem)
    3374:	aa1503f4 	mov	x20, x21
    3378:	eb0002bf 	cmp	x21, x0
    337c:	54000222 	b.cs	33c0 <get_next_timer_interrupt+0x108>  // b.hs, b.nlast
/data3/home/yuanqiliang/code/arm-kernel/kernel/time/timer.c:1509
	return DIV_ROUND_UP_ULL(nextevt, TICK_NSEC) * TICK_NSEC;
    3380:	d2869b61 	mov	x1, #0x34db                	// #13531
    3384:	914f4000 	add	x0, x0, #0x3d0, lsl #12
    3388:	f2baf6c1 	movk	x1, #0xd7b6, lsl #16
    338c:	9123fc00 	add	x0, x0, #0x8ff
    3390:	f2dbd041 	movk	x1, #0xde82, lsl #32
    3394:	d2812014 	mov	x20, #0x900                 	// #2304
    3398:	f2e86361 	movk	x1, #0x431b, lsl #48
    339c:	f2a007b4 	movk	x20, #0x3d, lsl #16
    33a0:	f94013f5 	ldr	x21, [sp, #32]
    33a4:	9bc17c00 	umulh	x0, x0, x1
    33a8:	d354fc00 	lsr	x0, x0, #20
    33ac:	9b147c14 	mul	x20, x0, x20
get_next_timer_interrupt():
/data3/home/yuanqiliang/code/arm-kernel/kernel/time/timer.c:1571
}
    33b0:	aa1403e0 	mov	x0, x20
    33b4:	a94153f3 	ldp	x19, x20, [sp, #16]
    33b8:	a8c37bfd 	ldp	x29, x30, [sp], #48
    33bc:	d65f03c0 	ret
    33c0:	aa1403e0 	mov	x0, x20
    33c4:	a94153f3 	ldp	x19, x20, [sp, #16]
    33c8:	f94013f5 	ldr	x21, [sp, #32]
    33cc:	a8c37bfd 	ldp	x29, x30, [sp], #48
    33d0:	d65f03c0 	ret
/data3/home/yuanqiliang/code/arm-kernel/kernel/time/timer.c:1545
			base->clk = basej;
    33d4:	f9000a74 	str	x20, [x19, #16]
/data3/home/yuanqiliang/code/arm-kernel/kernel/time/timer.c:1536
	is_max_delta = (nextevt == base->clk + NEXT_TIMER_MAX_DELTA);
    33d8:	b24077e2 	mov	x2, #0x3fffffff            	// #1073741823
    33dc:	8b020021 	add	x1, x1, x2
/data3/home/yuanqiliang/code/arm-kernel/kernel/time/timer.c:1554
		if (!is_max_delta)
    33e0:	eb00003f 	cmp	x1, x0
    33e4:	54000260 	b.eq	3430 <get_next_timer_interrupt+0x178>  // b.none
/data3/home/yuanqiliang/code/arm-kernel/kernel/time/timer.c:1555
			expires = basem + (u64)(nextevt - basej) * TICK_NSEC;
    33e8:	cb140000 	sub	x0, x0, x20
    33ec:	d2812001 	mov	x1, #0x900                 	// #2304
    33f0:	f2a007a1 	movk	x1, #0x3d, lsl #16
    33f4:	9b017c00 	mul	x0, x0, x1
    33f8:	8b150014 	add	x20, x0, x21
/data3/home/yuanqiliang/code/arm-kernel/kernel/time/timer.c:1563
		if ((expires - basem) > TICK_NSEC) {
    33fc:	d2812001 	mov	x1, #0x900                 	// #2304
    3400:	f2a007a1 	movk	x1, #0x3d, lsl #16
    3404:	eb01001f 	cmp	x0, x1
    3408:	54fffac9 	b.ls	3360 <get_next_timer_interrupt+0xa8>  // b.plast
/data3/home/yuanqiliang/code/arm-kernel/kernel/time/timer.c:1565
			base->is_idle = true;
    340c:	52802020 	mov	w0, #0x101                 	// #257
    3410:	79004a60 	strh	w0, [x19, #36]
    3414:	17ffffd3 	b	3360 <get_next_timer_interrupt+0xa8>
/data3/home/yuanqiliang/code/arm-kernel/kernel/time/timer.c:1544 (discriminator 2)
		if (time_after(nextevt, basej))
    3418:	eb00029f 	cmp	x20, x0
    341c:	54fffdc4 	b.mi	33d4 <get_next_timer_interrupt+0x11c>  // b.first
/data3/home/yuanqiliang/code/arm-kernel/kernel/time/timer.c:1546
		else if (time_after(nextevt, base->clk))
    3420:	eb00003f 	cmp	x1, x0
    3424:	54fff9a5 	b.pl	3358 <get_next_timer_interrupt+0xa0>  // b.nfrst
/data3/home/yuanqiliang/code/arm-kernel/kernel/time/timer.c:1547
			base->clk = nextevt;
    3428:	f9000a60 	str	x0, [x19, #16]
    342c:	17ffffcb 	b	3358 <get_next_timer_interrupt+0xa0>
    3430:	92f00014 	mov	x20, #0x7fffffffffffffff    	// #9223372036854775807
    3434:	cb150280 	sub	x0, x20, x21
    3438:	17fffff1 	b	33fc <get_next_timer_interrupt+0x144>
/data3/home/yuanqiliang/code/arm-kernel/kernel/time/timer.c:1532
		return expires;
    343c:	92f00014 	mov	x20, #0x7fffffffffffffff    	// #9223372036854775807
/data3/home/yuanqiliang/code/arm-kernel/kernel/time/timer.c:1571
}
    3440:	aa1403e0 	mov	x0, x20
    3444:	a94153f3 	ldp	x19, x20, [sp, #16]
    3448:	a8c37bfd 	ldp	x29, x30, [sp], #48
    344c:	d65f03c0 	ret
queued_spin_lock():
/data3/home/yuanqiliang/code/arm-kernel/./include/asm-generic/qspinlock.h:88
	queued_spin_lock_slowpath(lock, val);
    3450:	aa1303e0 	mov	x0, x19
    3454:	94000000 	bl	0 <queued_spin_lock_slowpath>
    3458:	17ffffb8 	b	3338 <get_next_timer_interrupt+0x80>
get_next_timer_interrupt():
/data3/home/yuanqiliang/code/arm-kernel/./include/asm-generic/qspinlock.h:88
    345c:	d503201f 	nop

0000000000003460 <timer_clear_idle>:
__my_cpu_offset():
/data3/home/yuanqiliang/code/arm-kernel/./arch/arm64/include/asm/percpu.h:30
    3460:	d538d081 	mrs	x1, tpidr_el1
timer_clear_idle():
/data3/home/yuanqiliang/code/arm-kernel/kernel/time/timer.c:1580
	struct timer_base *base = this_cpu_ptr(&timer_bases[BASE_STD]);
    3464:	90000000 	adrp	x0, 0 <__round_jiffies>
    3468:	91000000 	add	x0, x0, #0x0
/data3/home/yuanqiliang/code/arm-kernel/kernel/time/timer.c:1588
	base->is_idle = false;
    346c:	8b010000 	add	x0, x0, x1
    3470:	3900901f 	strb	wzr, [x0, #36]
/data3/home/yuanqiliang/code/arm-kernel/kernel/time/timer.c:1589
}
    3474:	d65f03c0 	ret

0000000000003478 <run_local_timers>:
run_local_timers():
/data3/home/yuanqiliang/code/arm-kernel/kernel/time/timer.c:1714
{
    3478:	a9be7bfd 	stp	x29, x30, [sp, #-32]!
/data3/home/yuanqiliang/code/arm-kernel/kernel/time/timer.c:1715
	struct timer_base *base = this_cpu_ptr(&timer_bases[BASE_STD]);
    347c:	90000000 	adrp	x0, 0 <__round_jiffies>
    3480:	91000000 	add	x0, x0, #0x0
/data3/home/yuanqiliang/code/arm-kernel/kernel/time/timer.c:1714
{
    3484:	910003fd 	mov	x29, sp
    3488:	f9000bf3 	str	x19, [sp, #16]
__my_cpu_offset():
/data3/home/yuanqiliang/code/arm-kernel/./arch/arm64/include/asm/percpu.h:30
    348c:	d538d093 	mrs	x19, tpidr_el1
run_local_timers():
/data3/home/yuanqiliang/code/arm-kernel/kernel/time/timer.c:1715
	struct timer_base *base = this_cpu_ptr(&timer_bases[BASE_STD]);
    3490:	8b130013 	add	x19, x0, x19
/data3/home/yuanqiliang/code/arm-kernel/kernel/time/timer.c:1717
	hrtimer_run_queues();
    3494:	94000000 	bl	0 <hrtimer_run_queues>
/data3/home/yuanqiliang/code/arm-kernel/kernel/time/timer.c:1719
	if (time_before(jiffies, base->clk)) {
    3498:	90000000 	adrp	x0, 0 <jiffies>
    349c:	f9400002 	ldr	x2, [x0]
    34a0:	f9400a61 	ldr	x1, [x19, #16]
    34a4:	eb01005f 	cmp	x2, x1
    34a8:	540000a5 	b.pl	34bc <run_local_timers+0x44>  // b.nfrst
/data3/home/yuanqiliang/code/arm-kernel/kernel/time/timer.c:1724
		if (time_before(jiffies, base->clk))
    34ac:	f9400001 	ldr	x1, [x0]
    34b0:	f9494a60 	ldr	x0, [x19, #4752]
    34b4:	eb00003f 	cmp	x1, x0
    34b8:	54000064 	b.mi	34c4 <run_local_timers+0x4c>  // b.first
/data3/home/yuanqiliang/code/arm-kernel/kernel/time/timer.c:1727
	raise_softirq(TIMER_SOFTIRQ);
    34bc:	52800020 	mov	w0, #0x1                   	// #1
    34c0:	94000000 	bl	0 <raise_softirq>
/data3/home/yuanqiliang/code/arm-kernel/kernel/time/timer.c:1728
}
    34c4:	f9400bf3 	ldr	x19, [sp, #16]
    34c8:	a8c27bfd 	ldp	x29, x30, [sp], #32
    34cc:	d65f03c0 	ret

00000000000034d0 <update_process_times>:
update_process_times():
/data3/home/yuanqiliang/code/arm-kernel/kernel/time/timer.c:1633
{
    34d0:	a9be7bfd 	stp	x29, x30, [sp, #-32]!
/data3/home/yuanqiliang/code/arm-kernel/kernel/time/timer.c:1637
	account_process_tick(p, user_tick);
    34d4:	2a0003e1 	mov	w1, w0
/data3/home/yuanqiliang/code/arm-kernel/kernel/time/timer.c:1633
{
    34d8:	910003fd 	mov	x29, sp
    34dc:	a90153f3 	stp	x19, x20, [sp, #16]
    34e0:	2a0003f3 	mov	w19, w0
get_current():
/data3/home/yuanqiliang/code/arm-kernel/./arch/arm64/include/asm/current.h:19
    34e4:	d5384114 	mrs	x20, sp_el0
update_process_times():
/data3/home/yuanqiliang/code/arm-kernel/kernel/time/timer.c:1637
	account_process_tick(p, user_tick);
    34e8:	aa1403e0 	mov	x0, x20
    34ec:	94000000 	bl	0 <account_process_tick>
/data3/home/yuanqiliang/code/arm-kernel/kernel/time/timer.c:1638
	run_local_timers();
    34f0:	94000000 	bl	3478 <run_local_timers>
/data3/home/yuanqiliang/code/arm-kernel/kernel/time/timer.c:1639
	rcu_check_callbacks(user_tick);
    34f4:	2a1303e0 	mov	w0, w19
    34f8:	94000000 	bl	0 <rcu_check_callbacks>
__read_once_size():
/data3/home/yuanqiliang/code/arm-kernel/./include/linux/compiler.h:193
    34fc:	b9401280 	ldr	w0, [x20, #16]
update_process_times():
/data3/home/yuanqiliang/code/arm-kernel/kernel/time/timer.c:1641
	if (in_irq())
    3500:	72100c1f 	tst	w0, #0xf0000
    3504:	54000261 	b.ne	3550 <update_process_times+0x80>  // b.any
/data3/home/yuanqiliang/code/arm-kernel/kernel/time/timer.c:1644
	scheduler_tick();
    3508:	94000000 	bl	0 <scheduler_tick>
/data3/home/yuanqiliang/code/arm-kernel/kernel/time/timer.c:1646
		run_posix_cpu_timers(p);
    350c:	aa1403e0 	mov	x0, x20
    3510:	94000000 	bl	0 <run_posix_cpu_timers>
/data3/home/yuanqiliang/code/arm-kernel/kernel/time/timer.c:1653
	this_cpu_add(net_rand_state.s1, rol32(jiffies, 24) + user_tick);
    3514:	90000000 	adrp	x0, 0 <jiffies>
    3518:	90000002 	adrp	x2, 0 <net_rand_state>
__my_cpu_offset():
/data3/home/yuanqiliang/code/arm-kernel/./arch/arm64/include/asm/percpu.h:30
    351c:	d538d081 	mrs	x1, tpidr_el1
update_process_times():
/data3/home/yuanqiliang/code/arm-kernel/kernel/time/timer.c:1653
    3520:	f9400000 	ldr	x0, [x0]
    3524:	91000042 	add	x2, x2, #0x0
__percpu_add():
/data3/home/yuanqiliang/code/arm-kernel/./arch/arm64/include/asm/percpu.h:95
	}								\
									\
	return ret;							\
}

PERCPU_OP(add, add)
    3528:	8b010041 	add	x1, x2, x1
rol32():
/data3/home/yuanqiliang/code/arm-kernel/./include/linux/bitops.h:83
 * @word: value to rotate
 * @shift: bits to roll
 */
static inline __u32 rol32(__u32 word, unsigned int shift)
{
	return (word << (shift & 31)) | (word >> ((-shift) & 31));
    352c:	13802000 	ror	w0, w0, #8
update_process_times():
/data3/home/yuanqiliang/code/arm-kernel/kernel/time/timer.c:1653
    3530:	0b130000 	add	w0, w0, w19
__percpu_add():
/data3/home/yuanqiliang/code/arm-kernel/./arch/arm64/include/asm/percpu.h:95
    3534:	885f7c24 	ldxr	w4, [x1]
    3538:	0b000084 	add	w4, w4, w0
    353c:	88037c24 	stxr	w3, w4, [x1]
    3540:	35ffffa3 	cbnz	w3, 3534 <update_process_times+0x64>
update_process_times():
/data3/home/yuanqiliang/code/arm-kernel/kernel/time/timer.c:1654
}
    3544:	a94153f3 	ldp	x19, x20, [sp, #16]
    3548:	a8c27bfd 	ldp	x29, x30, [sp], #32
    354c:	d65f03c0 	ret
/data3/home/yuanqiliang/code/arm-kernel/kernel/time/timer.c:1642
		irq_work_tick();
    3550:	94000000 	bl	0 <irq_work_tick>
    3554:	17ffffed 	b	3508 <update_process_times+0x38>

0000000000003558 <timers_prepare_cpu>:
timers_prepare_cpu():
/data3/home/yuanqiliang/code/arm-kernel/kernel/time/timer.c:1883
		base = per_cpu_ptr(&timer_bases[b], cpu);
    3558:	2a0003e6 	mov	w6, w0
    355c:	90000004 	adrp	x4, 0 <__per_cpu_offset>
    3560:	91000084 	add	x4, x4, #0x0
/data3/home/yuanqiliang/code/arm-kernel/kernel/time/timer.c:1884
		base->clk = jiffies;
    3564:	90000007 	adrp	x7, 0 <jiffies>
/data3/home/yuanqiliang/code/arm-kernel/kernel/time/timer.c:1883
		base = per_cpu_ptr(&timer_bases[b], cpu);
    3568:	90000002 	adrp	x2, 0 <__round_jiffies>
    356c:	91000042 	add	x2, x2, #0x0
/data3/home/yuanqiliang/code/arm-kernel/kernel/time/timer.c:1884
		base->clk = jiffies;
    3570:	f94000e0 	ldr	x0, [x7]
/data3/home/yuanqiliang/code/arm-kernel/kernel/time/timer.c:1883
		base = per_cpu_ptr(&timer_bases[b], cpu);
    3574:	f8667881 	ldr	x1, [x4, x6, lsl #3]
/data3/home/yuanqiliang/code/arm-kernel/kernel/time/timer.c:1886
		base->is_idle = false;
    3578:	52802005 	mov	w5, #0x100                 	// #256
/data3/home/yuanqiliang/code/arm-kernel/kernel/time/timer.c:1885
		base->next_expiry = base->clk + NEXT_TIMER_MAX_DELTA;
    357c:	b24077e3 	mov	x3, #0x3fffffff            	// #1073741823
    3580:	8b030008 	add	x8, x0, x3
/data3/home/yuanqiliang/code/arm-kernel/kernel/time/timer.c:1883
		base = per_cpu_ptr(&timer_bases[b], cpu);
    3584:	8b010042 	add	x2, x2, x1
    3588:	90000001 	adrp	x1, 0 <__round_jiffies>
    358c:	91000021 	add	x1, x1, #0x0
/data3/home/yuanqiliang/code/arm-kernel/kernel/time/timer.c:1885
		base->next_expiry = base->clk + NEXT_TIMER_MAX_DELTA;
    3590:	a9012040 	stp	x0, x8, [x2, #16]
/data3/home/yuanqiliang/code/arm-kernel/kernel/time/timer.c:1890
}
    3594:	52800000 	mov	w0, #0x0                   	// #0
/data3/home/yuanqiliang/code/arm-kernel/kernel/time/timer.c:1886
		base->is_idle = false;
    3598:	79004845 	strh	w5, [x2, #36]
/data3/home/yuanqiliang/code/arm-kernel/kernel/time/timer.c:1884
		base->clk = jiffies;
    359c:	f94000e2 	ldr	x2, [x7]
/data3/home/yuanqiliang/code/arm-kernel/kernel/time/timer.c:1883
		base = per_cpu_ptr(&timer_bases[b], cpu);
    35a0:	f8667884 	ldr	x4, [x4, x6, lsl #3]
/data3/home/yuanqiliang/code/arm-kernel/kernel/time/timer.c:1885
		base->next_expiry = base->clk + NEXT_TIMER_MAX_DELTA;
    35a4:	8b030043 	add	x3, x2, x3
/data3/home/yuanqiliang/code/arm-kernel/kernel/time/timer.c:1883
		base = per_cpu_ptr(&timer_bases[b], cpu);
    35a8:	8b040021 	add	x1, x1, x4
/data3/home/yuanqiliang/code/arm-kernel/kernel/time/timer.c:1885
		base->next_expiry = base->clk + NEXT_TIMER_MAX_DELTA;
    35ac:	a9010c22 	stp	x2, x3, [x1, #16]
/data3/home/yuanqiliang/code/arm-kernel/kernel/time/timer.c:1886
		base->is_idle = false;
    35b0:	79004825 	strh	w5, [x1, #36]
/data3/home/yuanqiliang/code/arm-kernel/kernel/time/timer.c:1890
}
    35b4:	d65f03c0 	ret

00000000000035b8 <timers_dead_cpu>:
test_bit():
/data3/home/yuanqiliang/code/arm-kernel/./include/asm-generic/bitops/non-atomic.h:106
    35b8:	7100001f 	cmp	w0, #0x0
    35bc:	1100fc01 	add	w1, w0, #0x3f
    35c0:	1a80b021 	csel	w1, w1, w0, lt  // lt = tstop
timers_dead_cpu():
/data3/home/yuanqiliang/code/arm-kernel/kernel/time/timer.c:1893
{
    35c4:	a9b87bfd 	stp	x29, x30, [sp, #-128]!
test_bit():
/data3/home/yuanqiliang/code/arm-kernel/./include/asm-generic/bitops/non-atomic.h:106
    35c8:	13067c21 	asr	w1, w1, #6
timers_dead_cpu():
/data3/home/yuanqiliang/code/arm-kernel/kernel/time/timer.c:1893
    35cc:	910003fd 	mov	x29, sp
test_bit():
/data3/home/yuanqiliang/code/arm-kernel/./include/asm-generic/bitops/non-atomic.h:106
    35d0:	93407c21 	sxtw	x1, w1
timers_dead_cpu():
/data3/home/yuanqiliang/code/arm-kernel/kernel/time/timer.c:1893
    35d4:	a90363f7 	stp	x23, x24, [sp, #48]
test_bit():
/data3/home/yuanqiliang/code/arm-kernel/./include/asm-generic/bitops/non-atomic.h:106
    35d8:	90000017 	adrp	x23, 0 <__cpu_online_mask>
    35dc:	910002f7 	add	x23, x23, #0x0
    35e0:	a90153f3 	stp	x19, x20, [sp, #16]
    35e4:	a9025bf5 	stp	x21, x22, [sp, #32]
    35e8:	f8617ae1 	ldr	x1, [x23, x1, lsl #3]
    35ec:	a9046bf9 	stp	x25, x26, [sp, #64]
    35f0:	a90573fb 	stp	x27, x28, [sp, #80]
    35f4:	9ac02421 	lsr	x1, x1, x0
timers_dead_cpu():
/data3/home/yuanqiliang/code/arm-kernel/kernel/time/timer.c:1898
	BUG_ON(cpu_online(cpu));
    35f8:	370011e1 	tbnz	w1, #0, 3834 <timers_dead_cpu+0x27c>
    35fc:	2a0003e0 	mov	w0, w0
trace_timer_cancel():
/data3/home/yuanqiliang/code/arm-kernel/./include/trace/events/timer.h:132
    3600:	90000018 	adrp	x24, 0 <cpu_number>
    3604:	91000318 	add	x24, x24, #0x0
    3608:	9000001c 	adrp	x28, 0 <__round_jiffies>
    360c:	91000381 	add	x1, x28, #0x0
    3610:	a90683e1 	stp	x1, x0, [sp, #104]
    3614:	90000000 	adrp	x0, 0 <__per_cpu_offset>
    3618:	91000000 	add	x0, x0, #0x0
    361c:	f9003fe0 	str	x0, [sp, #120]
timers_dead_cpu():
/data3/home/yuanqiliang/code/arm-kernel/kernel/time/timer.c:1901
		old_base = per_cpu_ptr(&timer_bases[b], cpu);
    3620:	a94687f3 	ldp	x19, x1, [sp, #104]
    3624:	f9403fe0 	ldr	x0, [sp, #120]
    3628:	f861781a 	ldr	x26, [x0, x1, lsl #3]
    362c:	8b1a0260 	add	x0, x19, x26
    3630:	f90033e0 	str	x0, [sp, #96]
__my_cpu_offset():
/data3/home/yuanqiliang/code/arm-kernel/./arch/arm64/include/asm/percpu.h:30
	asm(ALTERNATIVE("mrs %0, tpidr_el1",
    3634:	d538d080 	mrs	x0, tpidr_el1
timers_dead_cpu():
/data3/home/yuanqiliang/code/arm-kernel/kernel/time/timer.c:1902
		new_base = get_cpu_ptr(&timer_bases[b]);
    3638:	8b000273 	add	x19, x19, x0
arch_local_irq_disable():
/data3/home/yuanqiliang/code/arm-kernel/./arch/arm64/include/asm/irqflags.h:51
	asm volatile(
    363c:	d50342df 	msr	daifset, #0x2
__cmpxchg_case_acq_4():
/data3/home/yuanqiliang/code/arm-kernel/./arch/arm64/include/asm/atomic_ll_sc.h:272
    3640:	d2800020 	mov	x0, #0x1                   	// #1
    3644:	d2800003 	mov	x3, #0x0                   	// #0
    3648:	f9800271 	prfm	pstl1strm, [x19]
    364c:	885ffe61 	ldaxr	w1, [x19]
    3650:	4a030022 	eor	w2, w1, w3
    3654:	35000062 	cbnz	w2, 3660 <timers_dead_cpu+0xa8>
    3658:	88027e60 	stxr	w2, w0, [x19]
    365c:	35ffff82 	cbnz	w2, 364c <timers_dead_cpu+0x94>
queued_spin_lock():
/data3/home/yuanqiliang/code/arm-kernel/./include/asm-generic/qspinlock.h:86
	if (likely(val == 0))
    3660:	35000bc1 	cbnz	w1, 37d8 <timers_dead_cpu+0x220>
__cmpxchg_case_acq_4():
/data3/home/yuanqiliang/code/arm-kernel/./arch/arm64/include/asm/atomic_ll_sc.h:272
    3664:	d2800020 	mov	x0, #0x1                   	// #1
    3668:	d2800004 	mov	x4, #0x0                   	// #0
    366c:	f94033e3 	ldr	x3, [sp, #96]
    3670:	f9800071 	prfm	pstl1strm, [x3]
    3674:	885ffc61 	ldaxr	w1, [x3]
    3678:	4a040022 	eor	w2, w1, w4
    367c:	35000062 	cbnz	w2, 3688 <timers_dead_cpu+0xd0>
    3680:	88027c60 	stxr	w2, w0, [x3]
    3684:	35ffff82 	cbnz	w2, 3674 <timers_dead_cpu+0xbc>
queued_spin_lock():
/data3/home/yuanqiliang/code/arm-kernel/./include/asm-generic/qspinlock.h:86
    3688:	35000ae1 	cbnz	w1, 37e4 <timers_dead_cpu+0x22c>
forward_timer_base():
/data3/home/yuanqiliang/code/arm-kernel/kernel/time/timer.c:891
	if (likely(!base->must_forward_clk))
    368c:	39409660 	ldrb	w0, [x19, #37]
    3690:	35000b20 	cbnz	w0, 37f4 <timers_dead_cpu+0x23c>
timers_dead_cpu():
/data3/home/yuanqiliang/code/arm-kernel/kernel/time/timer.c:1916
		BUG_ON(old_base->running_timer);
    3694:	f94033e0 	ldr	x0, [sp, #96]
    3698:	f9400400 	ldr	x0, [x0, #8]
    369c:	b5000ca0 	cbnz	x0, 3830 <timers_dead_cpu+0x278>
    36a0:	f94033e0 	ldr	x0, [sp, #96]
__read_once_size():
/data3/home/yuanqiliang/code/arm-kernel/./include/linux/compiler.h:193
    36a4:	90000016 	adrp	x22, 0 <__round_jiffies>
    36a8:	d2824e03 	mov	x3, #0x1270                	// #4720
    36ac:	910002d6 	add	x22, x22, #0x0
    36b0:	9101c01b 	add	x27, x0, #0x70
    36b4:	8b030019 	add	x25, x0, x3
/data3/home/yuanqiliang/code/arm-kernel/./include/linux/compiler.h:193 (discriminator 3)
    36b8:	f9400360 	ldr	x0, [x27]
detach_timer():
/data3/home/yuanqiliang/code/arm-kernel/kernel/time/timer.c:821 (discriminator 3)
	entry->next = LIST_POISON2;
    36bc:	d2804015 	mov	x21, #0x200                 	// #512
    36c0:	f2fbd5b5 	movk	x21, #0xdead, lsl #48
migrate_timer_list():
/data3/home/yuanqiliang/code/arm-kernel/kernel/time/timer.c:1867 (discriminator 3)
	int cpu = new_base->cpu;
    36c4:	b9402274 	ldr	w20, [x19, #32]
/data3/home/yuanqiliang/code/arm-kernel/kernel/time/timer.c:1869 (discriminator 3)
	while (!hlist_empty(head)) {
    36c8:	b40002c0 	cbz	x0, 3720 <timers_dead_cpu+0x168>
    36cc:	d503201f 	nop
/data3/home/yuanqiliang/code/arm-kernel/kernel/time/timer.c:1870
		timer = hlist_entry(head->first, struct timer_list, entry);
    36d0:	f940037c 	ldr	x28, [x27]
arch_static_branch():
/data3/home/yuanqiliang/code/arm-kernel/./arch/arm64/include/asm/jump_label.h:20
    36d4:	d503201f 	nop
__hlist_del():
/data3/home/yuanqiliang/code/arm-kernel/./include/linux/list.h:677
	struct hlist_node **pprev = n->pprev;
    36d8:	a9400780 	ldp	x0, x1, [x28]
__write_once_size():
/data3/home/yuanqiliang/code/arm-kernel/./include/linux/compiler.h:220
	case 8: *(volatile __u64 *)p = *(__u64 *)res; break;
    36dc:	f9000020 	str	x0, [x1]
__hlist_del():
/data3/home/yuanqiliang/code/arm-kernel/./include/linux/list.h:680
	if (next)
    36e0:	b4000040 	cbz	x0, 36e8 <timers_dead_cpu+0x130>
/data3/home/yuanqiliang/code/arm-kernel/./include/linux/list.h:681
		next->pprev = pprev;
    36e4:	f9000401 	str	x1, [x0, #8]
migrate_timer_list():
/data3/home/yuanqiliang/code/arm-kernel/kernel/time/timer.c:1872
		timer->flags = (timer->flags & ~TIMER_BASEMASK) | cpu;
    36e8:	b9402382 	ldr	w2, [x28, #32]
internal_add_timer():
/data3/home/yuanqiliang/code/arm-kernel/kernel/time/timer.c:591
	__internal_add_timer(base, timer);
    36ec:	aa1c03e1 	mov	x1, x28
detach_timer():
/data3/home/yuanqiliang/code/arm-kernel/kernel/time/timer.c:821
	entry->next = LIST_POISON2;
    36f0:	f9000395 	str	x21, [x28]
internal_add_timer():
/data3/home/yuanqiliang/code/arm-kernel/kernel/time/timer.c:591
	__internal_add_timer(base, timer);
    36f4:	aa1303e0 	mov	x0, x19
migrate_timer_list():
/data3/home/yuanqiliang/code/arm-kernel/kernel/time/timer.c:1872
		timer->flags = (timer->flags & ~TIMER_BASEMASK) | cpu;
    36f8:	120d3042 	and	w2, w2, #0xfff80000
    36fc:	2a140042 	orr	w2, w2, w20
    3700:	b9002382 	str	w2, [x28, #32]
internal_add_timer():
/data3/home/yuanqiliang/code/arm-kernel/kernel/time/timer.c:591
	__internal_add_timer(base, timer);
    3704:	97fff38f 	bl	540 <__internal_add_timer>
/data3/home/yuanqiliang/code/arm-kernel/kernel/time/timer.c:592
	trigger_dyntick_cpu(base, timer);
    3708:	aa1303e0 	mov	x0, x19
    370c:	91008382 	add	x2, x28, #0x20
    3710:	91004381 	add	x1, x28, #0x10
    3714:	97fffa55 	bl	2068 <trigger_dyntick_cpu.isra.3>
__read_once_size():
/data3/home/yuanqiliang/code/arm-kernel/./include/linux/compiler.h:193
	__READ_ONCE_SIZE;
    3718:	f9400360 	ldr	x0, [x27]
migrate_timer_list():
/data3/home/yuanqiliang/code/arm-kernel/kernel/time/timer.c:1869
	while (!hlist_empty(head)) {
    371c:	b5fffda0 	cbnz	x0, 36d0 <timers_dead_cpu+0x118>
    3720:	9100237b 	add	x27, x27, #0x8
timers_dead_cpu():
/data3/home/yuanqiliang/code/arm-kernel/kernel/time/timer.c:1918
		for (i = 0; i < WHEEL_SIZE; i++)
    3724:	eb1b033f 	cmp	x25, x27
    3728:	54fffc81 	b.ne	36b8 <timers_dead_cpu+0x100>  // b.any
queued_spin_unlock():
/data3/home/yuanqiliang/code/arm-kernel/./include/asm-generic/qspinlock.h:101 (discriminator 2)
	smp_store_release(&lock->locked, 0);
    372c:	52800000 	mov	w0, #0x0                   	// #0
    3730:	f94033e1 	ldr	x1, [sp, #96]
    3734:	089ffc20 	stlrb	w0, [x1]
    3738:	089ffe60 	stlrb	w0, [x19]
arch_local_irq_enable():
/data3/home/yuanqiliang/code/arm-kernel/./arch/arm64/include/asm/irqflags.h:42 (discriminator 2)
	asm volatile(
    373c:	d50342ff 	msr	daifclr, #0x2
timers_dead_cpu():
/data3/home/yuanqiliang/code/arm-kernel/kernel/time/timer.c:1923 (discriminator 2)
		put_cpu_ptr(&timer_bases);
    3740:	f94037e0 	ldr	x0, [sp, #104]
    3744:	d2825002 	mov	x2, #0x1280                	// #4736
/data3/home/yuanqiliang/code/arm-kernel/kernel/time/timer.c:1900 (discriminator 2)
	for (b = 0; b < NR_BASES; b++) {
    3748:	90000001 	adrp	x1, 0 <__round_jiffies>
    374c:	91000021 	add	x1, x1, #0x0
    3750:	8b020000 	add	x0, x0, x2
    3754:	f90037e0 	str	x0, [sp, #104]
    3758:	eb00003f 	cmp	x1, x0
    375c:	54fff621 	b.ne	3620 <timers_dead_cpu+0x68>  // b.any
/data3/home/yuanqiliang/code/arm-kernel/kernel/time/timer.c:1926
}
    3760:	52800000 	mov	w0, #0x0                   	// #0
    3764:	a94153f3 	ldp	x19, x20, [sp, #16]
    3768:	a9425bf5 	ldp	x21, x22, [sp, #32]
    376c:	a94363f7 	ldp	x23, x24, [sp, #48]
    3770:	a9446bf9 	ldp	x25, x26, [sp, #64]
    3774:	a94573fb 	ldp	x27, x28, [sp, #80]
    3778:	a8c87bfd 	ldp	x29, x30, [sp], #128
    377c:	d65f03c0 	ret
trace_timer_cancel():
/data3/home/yuanqiliang/code/arm-kernel/./include/trace/events/timer.h:132
    3780:	aa1803e0 	mov	x0, x24
__my_cpu_offset():
/data3/home/yuanqiliang/code/arm-kernel/./arch/arm64/include/asm/percpu.h:30
    3784:	d538d081 	mrs	x1, tpidr_el1
trace_timer_cancel():
/data3/home/yuanqiliang/code/arm-kernel/./include/trace/events/timer.h:132
    3788:	b8616801 	ldr	w1, [x0, x1]
test_bit():
/data3/home/yuanqiliang/code/arm-kernel/./include/asm-generic/bitops/non-atomic.h:106
    378c:	7100003f 	cmp	w1, #0x0
    3790:	1100fc20 	add	w0, w1, #0x3f
    3794:	1a81b000 	csel	w0, w0, w1, lt  // lt = tstop
    3798:	13067c00 	asr	w0, w0, #6
    379c:	93407c00 	sxtw	x0, w0
    37a0:	f8607ae0 	ldr	x0, [x23, x0, lsl #3]
    37a4:	9ac12401 	lsr	x1, x0, x1
trace_timer_cancel():
/data3/home/yuanqiliang/code/arm-kernel/./include/trace/events/timer.h:132
    37a8:	3607f981 	tbz	w1, #0, 36d8 <timers_dead_cpu+0x120>
__read_once_size():
/data3/home/yuanqiliang/code/arm-kernel/./include/linux/compiler.h:193
    37ac:	f94016c2 	ldr	x2, [x22, #40]
trace_timer_cancel():
/data3/home/yuanqiliang/code/arm-kernel/./include/trace/events/timer.h:132
    37b0:	b4000122 	cbz	x2, 37d4 <timers_dead_cpu+0x21c>
    37b4:	f9400045 	ldr	x5, [x2]
    37b8:	aa0203fa 	mov	x26, x2
    37bc:	d503201f 	nop
    37c0:	f9400740 	ldr	x0, [x26, #8]
    37c4:	aa1c03e1 	mov	x1, x28
    37c8:	d63f00a0 	blr	x5
    37cc:	f8418f45 	ldr	x5, [x26, #24]!
    37d0:	b5ffff85 	cbnz	x5, 37c0 <timers_dead_cpu+0x208>
    37d4:	17ffffc1 	b	36d8 <timers_dead_cpu+0x120>
queued_spin_lock():
/data3/home/yuanqiliang/code/arm-kernel/./include/asm-generic/qspinlock.h:88
	queued_spin_lock_slowpath(lock, val);
    37d8:	aa1303e0 	mov	x0, x19
    37dc:	94000000 	bl	0 <queued_spin_lock_slowpath>
    37e0:	17ffffa1 	b	3664 <timers_dead_cpu+0xac>
    37e4:	f94033e0 	ldr	x0, [sp, #96]
    37e8:	94000000 	bl	0 <queued_spin_lock_slowpath>
forward_timer_base():
/data3/home/yuanqiliang/code/arm-kernel/kernel/time/timer.c:891
	if (likely(!base->must_forward_clk))
    37ec:	39409660 	ldrb	w0, [x19, #37]
    37f0:	34fff520 	cbz	w0, 3694 <timers_dead_cpu+0xdc>
__read_once_size():
/data3/home/yuanqiliang/code/arm-kernel/./include/linux/compiler.h:193
    37f4:	90000001 	adrp	x1, 0 <jiffies>
forward_timer_base():
/data3/home/yuanqiliang/code/arm-kernel/kernel/time/timer.c:895
	base->must_forward_clk = base->is_idle;
    37f8:	39409262 	ldrb	w2, [x19, #36]
/data3/home/yuanqiliang/code/arm-kernel/kernel/time/timer.c:896
	if ((long)(jnow - base->clk) < 2)
    37fc:	f9400a60 	ldr	x0, [x19, #16]
/data3/home/yuanqiliang/code/arm-kernel/kernel/time/timer.c:895
	base->must_forward_clk = base->is_idle;
    3800:	39009662 	strb	w2, [x19, #37]
__read_once_size():
/data3/home/yuanqiliang/code/arm-kernel/./include/linux/compiler.h:193
    3804:	f9400021 	ldr	x1, [x1]
forward_timer_base():
/data3/home/yuanqiliang/code/arm-kernel/kernel/time/timer.c:896
	if ((long)(jnow - base->clk) < 2)
    3808:	cb000020 	sub	x0, x1, x0
    380c:	f100041f 	cmp	x0, #0x1
    3810:	54fff42d 	b.le	3694 <timers_dead_cpu+0xdc>
/data3/home/yuanqiliang/code/arm-kernel/kernel/time/timer.c:903
	if (time_after(base->next_expiry, jnow))
    3814:	f9400e60 	ldr	x0, [x19, #24]
/data3/home/yuanqiliang/code/arm-kernel/kernel/time/timer.c:904
		base->clk = jnow;
    3818:	eb00003f 	cmp	x1, x0
    381c:	9a815000 	csel	x0, x0, x1, pl  // pl = nfrst
    3820:	f9000a60 	str	x0, [x19, #16]
timers_dead_cpu():
/data3/home/yuanqiliang/code/arm-kernel/kernel/time/timer.c:1916
		BUG_ON(old_base->running_timer);
    3824:	f94033e0 	ldr	x0, [sp, #96]
    3828:	f9400400 	ldr	x0, [x0, #8]
    382c:	b4fff3a0 	cbz	x0, 36a0 <timers_dead_cpu+0xe8>
/data3/home/yuanqiliang/code/arm-kernel/kernel/time/timer.c:1916 (discriminator 1)
    3830:	d4210000 	brk	#0x800
/data3/home/yuanqiliang/code/arm-kernel/kernel/time/timer.c:1898 (discriminator 1)
	BUG_ON(cpu_online(cpu));
    3834:	d4210000 	brk	#0x800

Disassembly of section .init.text:

0000000000000000 <trace_event_define_fields_timer_class>:
trace_event_define_fields_timer_class():
/data3/home/yuanqiliang/code/arm-kernel/./include/trace/events/timer.h:12
DECLARE_EVENT_CLASS(timer_class,
   0:	a9bf7bfd 	stp	x29, x30, [sp, #-16]!
   4:	52800104 	mov	w4, #0x8                   	// #8
   8:	52800006 	mov	w6, #0x0                   	// #0
   c:	910003fd 	mov	x29, sp
  10:	2a0403e3 	mov	w3, w4
  14:	52800005 	mov	w5, #0x0                   	// #0
  18:	90000002 	adrp	x2, 0 <trace_event_define_fields_timer_class>
  1c:	90000001 	adrp	x1, 0 <trace_event_define_fields_timer_class>
  20:	91000042 	add	x2, x2, #0x0
  24:	91000021 	add	x1, x1, #0x0
  28:	94000000 	bl	0 <trace_define_field>
  2c:	a8c17bfd 	ldp	x29, x30, [sp], #16
  30:	d65f03c0 	ret

0000000000000034 <trace_event_define_fields_timer_start>:
trace_event_define_fields_timer_start():
/data3/home/yuanqiliang/code/arm-kernel/./include/trace/events/timer.h:52
TRACE_EVENT(timer_start,
  34:	a9be7bfd 	stp	x29, x30, [sp, #-32]!
  38:	90000002 	adrp	x2, 0 <trace_event_define_fields_timer_class>
  3c:	52800104 	mov	w4, #0x8                   	// #8
  40:	910003fd 	mov	x29, sp
  44:	a90153f3 	stp	x19, x20, [sp, #16]
  48:	90000014 	adrp	x20, 0 <trace_event_define_fields_timer_class>
  4c:	91000294 	add	x20, x20, #0x0
  50:	aa1403e1 	mov	x1, x20
  54:	91000042 	add	x2, x2, #0x0
  58:	2a0403e3 	mov	w3, w4
  5c:	aa0003f3 	mov	x19, x0
  60:	52800006 	mov	w6, #0x0                   	// #0
  64:	52800005 	mov	w5, #0x0                   	// #0
  68:	94000000 	bl	0 <trace_define_field>
  6c:	35000560 	cbnz	w0, 118 <trace_event_define_fields_timer_start+0xe4>
/data3/home/yuanqiliang/code/arm-kernel/./include/trace/events/timer.h:52 (discriminator 2)
  70:	90000002 	adrp	x2, 0 <trace_event_define_fields_timer_class>
  74:	aa1403e1 	mov	x1, x20
  78:	52800006 	mov	w6, #0x0                   	// #0
  7c:	91000042 	add	x2, x2, #0x0
  80:	52800005 	mov	w5, #0x0                   	// #0
  84:	52800104 	mov	w4, #0x8                   	// #8
  88:	52800203 	mov	w3, #0x10                  	// #16
  8c:	aa1303e0 	mov	x0, x19
  90:	94000000 	bl	0 <trace_define_field>
  94:	35000420 	cbnz	w0, 118 <trace_event_define_fields_timer_start+0xe4>
/data3/home/yuanqiliang/code/arm-kernel/./include/trace/events/timer.h:52 (discriminator 4)
  98:	90000014 	adrp	x20, 0 <trace_event_define_fields_timer_class>
  9c:	91000294 	add	x20, x20, #0x0
  a0:	90000002 	adrp	x2, 0 <trace_event_define_fields_timer_class>
  a4:	aa1403e1 	mov	x1, x20
  a8:	52800006 	mov	w6, #0x0                   	// #0
  ac:	91000042 	add	x2, x2, #0x0
  b0:	52800005 	mov	w5, #0x0                   	// #0
  b4:	52800104 	mov	w4, #0x8                   	// #8
  b8:	52800303 	mov	w3, #0x18                  	// #24
  bc:	aa1303e0 	mov	x0, x19
  c0:	94000000 	bl	0 <trace_define_field>
  c4:	350002a0 	cbnz	w0, 118 <trace_event_define_fields_timer_start+0xe4>
/data3/home/yuanqiliang/code/arm-kernel/./include/trace/events/timer.h:52 (discriminator 6)
  c8:	90000002 	adrp	x2, 0 <trace_event_define_fields_timer_class>
  cc:	aa1403e1 	mov	x1, x20
  d0:	52800006 	mov	w6, #0x0                   	// #0
  d4:	91000042 	add	x2, x2, #0x0
  d8:	52800005 	mov	w5, #0x0                   	// #0
  dc:	52800104 	mov	w4, #0x8                   	// #8
  e0:	52800403 	mov	w3, #0x20                  	// #32
  e4:	aa1303e0 	mov	x0, x19
  e8:	94000000 	bl	0 <trace_define_field>
  ec:	35000160 	cbnz	w0, 118 <trace_event_define_fields_timer_start+0xe4>
/data3/home/yuanqiliang/code/arm-kernel/./include/trace/events/timer.h:52 (discriminator 8)
  f0:	90000002 	adrp	x2, 0 <trace_event_define_fields_timer_class>
  f4:	90000001 	adrp	x1, 0 <trace_event_define_fields_timer_class>
  f8:	aa1303e0 	mov	x0, x19
  fc:	91000042 	add	x2, x2, #0x0
 100:	91000021 	add	x1, x1, #0x0
 104:	52800006 	mov	w6, #0x0                   	// #0
 108:	52800005 	mov	w5, #0x0                   	// #0
 10c:	52800084 	mov	w4, #0x4                   	// #4
 110:	52800503 	mov	w3, #0x28                  	// #40
 114:	94000000 	bl	0 <trace_define_field>
/data3/home/yuanqiliang/code/arm-kernel/./include/trace/events/timer.h:52
 118:	a94153f3 	ldp	x19, x20, [sp, #16]
 11c:	a8c27bfd 	ldp	x29, x30, [sp], #32
 120:	d65f03c0 	ret

0000000000000124 <trace_event_define_fields_timer_expire_entry>:
trace_event_define_fields_timer_expire_entry():
/data3/home/yuanqiliang/code/arm-kernel/./include/trace/events/timer.h:90
TRACE_EVENT(timer_expire_entry,
 124:	a9be7bfd 	stp	x29, x30, [sp, #-32]!
 128:	90000002 	adrp	x2, 0 <trace_event_define_fields_timer_class>
 12c:	52800104 	mov	w4, #0x8                   	// #8
 130:	910003fd 	mov	x29, sp
 134:	a90153f3 	stp	x19, x20, [sp, #16]
 138:	90000013 	adrp	x19, 0 <trace_event_define_fields_timer_class>
 13c:	91000273 	add	x19, x19, #0x0
 140:	aa1303e1 	mov	x1, x19
 144:	91000042 	add	x2, x2, #0x0
 148:	2a0403e3 	mov	w3, w4
 14c:	aa0003f4 	mov	x20, x0
 150:	52800006 	mov	w6, #0x0                   	// #0
 154:	52800005 	mov	w5, #0x0                   	// #0
 158:	94000000 	bl	0 <trace_define_field>
 15c:	350002a0 	cbnz	w0, 1b0 <trace_event_define_fields_timer_expire_entry+0x8c>
/data3/home/yuanqiliang/code/arm-kernel/./include/trace/events/timer.h:90 (discriminator 2)
 160:	90000002 	adrp	x2, 0 <trace_event_define_fields_timer_class>
 164:	90000001 	adrp	x1, 0 <trace_event_define_fields_timer_class>
 168:	91000042 	add	x2, x2, #0x0
 16c:	91000021 	add	x1, x1, #0x0
 170:	52800006 	mov	w6, #0x0                   	// #0
 174:	52800005 	mov	w5, #0x0                   	// #0
 178:	52800104 	mov	w4, #0x8                   	// #8
 17c:	52800203 	mov	w3, #0x10                  	// #16
 180:	aa1403e0 	mov	x0, x20
 184:	94000000 	bl	0 <trace_define_field>
 188:	35000140 	cbnz	w0, 1b0 <trace_event_define_fields_timer_expire_entry+0x8c>
/data3/home/yuanqiliang/code/arm-kernel/./include/trace/events/timer.h:90 (discriminator 4)
 18c:	90000002 	adrp	x2, 0 <trace_event_define_fields_timer_class>
 190:	aa1303e1 	mov	x1, x19
 194:	aa1403e0 	mov	x0, x20
 198:	52800006 	mov	w6, #0x0                   	// #0
 19c:	91000042 	add	x2, x2, #0x0
 1a0:	52800005 	mov	w5, #0x0                   	// #0
 1a4:	52800104 	mov	w4, #0x8                   	// #8
 1a8:	52800303 	mov	w3, #0x18                  	// #24
 1ac:	94000000 	bl	0 <trace_define_field>
/data3/home/yuanqiliang/code/arm-kernel/./include/trace/events/timer.h:90
 1b0:	a94153f3 	ldp	x19, x20, [sp, #16]
 1b4:	a8c27bfd 	ldp	x29, x30, [sp], #32
 1b8:	d65f03c0 	ret

00000000000001bc <trace_event_define_fields_hrtimer_init>:
trace_event_define_fields_hrtimer_init():
/data3/home/yuanqiliang/code/arm-kernel/./include/trace/events/timer.h:163
TRACE_EVENT(hrtimer_init,
 1bc:	a9be7bfd 	stp	x29, x30, [sp, #-32]!
 1c0:	90000002 	adrp	x2, 0 <trace_event_define_fields_timer_class>
 1c4:	90000001 	adrp	x1, 0 <trace_event_define_fields_timer_class>
 1c8:	910003fd 	mov	x29, sp
 1cc:	52800104 	mov	w4, #0x8                   	// #8
 1d0:	91000042 	add	x2, x2, #0x0
 1d4:	91000021 	add	x1, x1, #0x0
 1d8:	2a0403e3 	mov	w3, w4
 1dc:	52800006 	mov	w6, #0x0                   	// #0
 1e0:	52800005 	mov	w5, #0x0                   	// #0
 1e4:	f9000bf3 	str	x19, [sp, #16]
 1e8:	aa0003f3 	mov	x19, x0
 1ec:	94000000 	bl	0 <trace_define_field>
 1f0:	350002c0 	cbnz	w0, 248 <trace_event_define_fields_hrtimer_init+0x8c>
/data3/home/yuanqiliang/code/arm-kernel/./include/trace/events/timer.h:163 (discriminator 2)
 1f4:	90000002 	adrp	x2, 0 <trace_event_define_fields_timer_class>
 1f8:	90000001 	adrp	x1, 0 <trace_event_define_fields_timer_class>
 1fc:	91000042 	add	x2, x2, #0x0
 200:	91000021 	add	x1, x1, #0x0
 204:	52800006 	mov	w6, #0x0                   	// #0
 208:	52800025 	mov	w5, #0x1                   	// #1
 20c:	52800084 	mov	w4, #0x4                   	// #4
 210:	52800203 	mov	w3, #0x10                  	// #16
 214:	aa1303e0 	mov	x0, x19
 218:	94000000 	bl	0 <trace_define_field>
 21c:	35000160 	cbnz	w0, 248 <trace_event_define_fields_hrtimer_init+0x8c>
/data3/home/yuanqiliang/code/arm-kernel/./include/trace/events/timer.h:163 (discriminator 4)
 220:	90000002 	adrp	x2, 0 <trace_event_define_fields_timer_class>
 224:	90000001 	adrp	x1, 0 <trace_event_define_fields_timer_class>
 228:	aa1303e0 	mov	x0, x19
 22c:	91000042 	add	x2, x2, #0x0
 230:	91000021 	add	x1, x1, #0x0
 234:	52800006 	mov	w6, #0x0                   	// #0
 238:	52800005 	mov	w5, #0x0                   	// #0
 23c:	52800084 	mov	w4, #0x4                   	// #4
 240:	52800283 	mov	w3, #0x14                  	// #20
 244:	94000000 	bl	0 <trace_define_field>
/data3/home/yuanqiliang/code/arm-kernel/./include/trace/events/timer.h:163
 248:	f9400bf3 	ldr	x19, [sp, #16]
 24c:	a8c27bfd 	ldp	x29, x30, [sp], #32
 250:	d65f03c0 	ret

0000000000000254 <trace_event_define_fields_hrtimer_start>:
trace_event_define_fields_hrtimer_start():
/data3/home/yuanqiliang/code/arm-kernel/./include/trace/events/timer.h:191
TRACE_EVENT(hrtimer_start,
 254:	a9be7bfd 	stp	x29, x30, [sp, #-32]!
 258:	90000002 	adrp	x2, 0 <trace_event_define_fields_timer_class>
 25c:	52800104 	mov	w4, #0x8                   	// #8
 260:	910003fd 	mov	x29, sp
 264:	a90153f3 	stp	x19, x20, [sp, #16]
 268:	90000014 	adrp	x20, 0 <trace_event_define_fields_timer_class>
 26c:	91000294 	add	x20, x20, #0x0
 270:	aa1403e1 	mov	x1, x20
 274:	91000042 	add	x2, x2, #0x0
 278:	2a0403e3 	mov	w3, w4
 27c:	aa0003f3 	mov	x19, x0
 280:	52800006 	mov	w6, #0x0                   	// #0
 284:	52800005 	mov	w5, #0x0                   	// #0
 288:	94000000 	bl	0 <trace_define_field>
 28c:	35000560 	cbnz	w0, 338 <trace_event_define_fields_hrtimer_start+0xe4>
/data3/home/yuanqiliang/code/arm-kernel/./include/trace/events/timer.h:191 (discriminator 2)
 290:	90000002 	adrp	x2, 0 <trace_event_define_fields_timer_class>
 294:	aa1403e1 	mov	x1, x20
 298:	52800006 	mov	w6, #0x0                   	// #0
 29c:	91000042 	add	x2, x2, #0x0
 2a0:	52800005 	mov	w5, #0x0                   	// #0
 2a4:	52800104 	mov	w4, #0x8                   	// #8
 2a8:	52800203 	mov	w3, #0x10                  	// #16
 2ac:	aa1303e0 	mov	x0, x19
 2b0:	94000000 	bl	0 <trace_define_field>
 2b4:	35000420 	cbnz	w0, 338 <trace_event_define_fields_hrtimer_start+0xe4>
/data3/home/yuanqiliang/code/arm-kernel/./include/trace/events/timer.h:191 (discriminator 4)
 2b8:	90000014 	adrp	x20, 0 <trace_event_define_fields_timer_class>
 2bc:	91000294 	add	x20, x20, #0x0
 2c0:	90000002 	adrp	x2, 0 <trace_event_define_fields_timer_class>
 2c4:	aa1403e1 	mov	x1, x20
 2c8:	52800006 	mov	w6, #0x0                   	// #0
 2cc:	91000042 	add	x2, x2, #0x0
 2d0:	52800025 	mov	w5, #0x1                   	// #1
 2d4:	52800104 	mov	w4, #0x8                   	// #8
 2d8:	52800303 	mov	w3, #0x18                  	// #24
 2dc:	aa1303e0 	mov	x0, x19
 2e0:	94000000 	bl	0 <trace_define_field>
 2e4:	350002a0 	cbnz	w0, 338 <trace_event_define_fields_hrtimer_start+0xe4>
/data3/home/yuanqiliang/code/arm-kernel/./include/trace/events/timer.h:191 (discriminator 6)
 2e8:	90000002 	adrp	x2, 0 <trace_event_define_fields_timer_class>
 2ec:	aa1403e1 	mov	x1, x20
 2f0:	52800006 	mov	w6, #0x0                   	// #0
 2f4:	91000042 	add	x2, x2, #0x0
 2f8:	52800025 	mov	w5, #0x1                   	// #1
 2fc:	52800104 	mov	w4, #0x8                   	// #8
 300:	52800403 	mov	w3, #0x20                  	// #32
 304:	aa1303e0 	mov	x0, x19
 308:	94000000 	bl	0 <trace_define_field>
 30c:	35000160 	cbnz	w0, 338 <trace_event_define_fields_hrtimer_start+0xe4>
/data3/home/yuanqiliang/code/arm-kernel/./include/trace/events/timer.h:191 (discriminator 8)
 310:	90000002 	adrp	x2, 0 <trace_event_define_fields_timer_class>
 314:	90000001 	adrp	x1, 0 <trace_event_define_fields_timer_class>
 318:	aa1303e0 	mov	x0, x19
 31c:	91000042 	add	x2, x2, #0x0
 320:	91000021 	add	x1, x1, #0x0
 324:	52800006 	mov	w6, #0x0                   	// #0
 328:	52800005 	mov	w5, #0x0                   	// #0
 32c:	52800084 	mov	w4, #0x4                   	// #4
 330:	52800503 	mov	w3, #0x28                  	// #40
 334:	94000000 	bl	0 <trace_define_field>
/data3/home/yuanqiliang/code/arm-kernel/./include/trace/events/timer.h:191
 338:	a94153f3 	ldp	x19, x20, [sp, #16]
 33c:	a8c27bfd 	ldp	x29, x30, [sp], #32
 340:	d65f03c0 	ret

0000000000000344 <trace_event_define_fields_hrtimer_expire_entry>:
trace_event_define_fields_hrtimer_expire_entry():
/data3/home/yuanqiliang/code/arm-kernel/./include/trace/events/timer.h:228
TRACE_EVENT(hrtimer_expire_entry,
 344:	a9be7bfd 	stp	x29, x30, [sp, #-32]!
 348:	90000002 	adrp	x2, 0 <trace_event_define_fields_timer_class>
 34c:	52800104 	mov	w4, #0x8                   	// #8
 350:	910003fd 	mov	x29, sp
 354:	a90153f3 	stp	x19, x20, [sp, #16]
 358:	90000013 	adrp	x19, 0 <trace_event_define_fields_timer_class>
 35c:	91000273 	add	x19, x19, #0x0
 360:	aa1303e1 	mov	x1, x19
 364:	91000042 	add	x2, x2, #0x0
 368:	2a0403e3 	mov	w3, w4
 36c:	aa0003f4 	mov	x20, x0
 370:	52800006 	mov	w6, #0x0                   	// #0
 374:	52800005 	mov	w5, #0x0                   	// #0
 378:	94000000 	bl	0 <trace_define_field>
 37c:	350002a0 	cbnz	w0, 3d0 <trace_event_define_fields_hrtimer_expire_entry+0x8c>
/data3/home/yuanqiliang/code/arm-kernel/./include/trace/events/timer.h:228 (discriminator 2)
 380:	90000002 	adrp	x2, 0 <trace_event_define_fields_timer_class>
 384:	90000001 	adrp	x1, 0 <trace_event_define_fields_timer_class>
 388:	91000042 	add	x2, x2, #0x0
 38c:	91000021 	add	x1, x1, #0x0
 390:	52800006 	mov	w6, #0x0                   	// #0
 394:	52800025 	mov	w5, #0x1                   	// #1
 398:	52800104 	mov	w4, #0x8                   	// #8
 39c:	52800203 	mov	w3, #0x10                  	// #16
 3a0:	aa1403e0 	mov	x0, x20
 3a4:	94000000 	bl	0 <trace_define_field>
 3a8:	35000140 	cbnz	w0, 3d0 <trace_event_define_fields_hrtimer_expire_entry+0x8c>
/data3/home/yuanqiliang/code/arm-kernel/./include/trace/events/timer.h:228 (discriminator 4)
 3ac:	90000002 	adrp	x2, 0 <trace_event_define_fields_timer_class>
 3b0:	aa1303e1 	mov	x1, x19
 3b4:	aa1403e0 	mov	x0, x20
 3b8:	52800006 	mov	w6, #0x0                   	// #0
 3bc:	91000042 	add	x2, x2, #0x0
 3c0:	52800005 	mov	w5, #0x0                   	// #0
 3c4:	52800104 	mov	w4, #0x8                   	// #8
 3c8:	52800303 	mov	w3, #0x18                  	// #24
 3cc:	94000000 	bl	0 <trace_define_field>
/data3/home/yuanqiliang/code/arm-kernel/./include/trace/events/timer.h:228
 3d0:	a94153f3 	ldp	x19, x20, [sp, #16]
 3d4:	a8c27bfd 	ldp	x29, x30, [sp], #32
 3d8:	d65f03c0 	ret

00000000000003dc <trace_event_define_fields_hrtimer_class>:
trace_event_define_fields_hrtimer_class():
/data3/home/yuanqiliang/code/arm-kernel/./include/trace/events/timer.h:250
DECLARE_EVENT_CLASS(hrtimer_class,
 3dc:	a9bf7bfd 	stp	x29, x30, [sp, #-16]!
 3e0:	52800104 	mov	w4, #0x8                   	// #8
 3e4:	52800006 	mov	w6, #0x0                   	// #0
 3e8:	910003fd 	mov	x29, sp
 3ec:	2a0403e3 	mov	w3, w4
 3f0:	52800005 	mov	w5, #0x0                   	// #0
 3f4:	90000002 	adrp	x2, 0 <trace_event_define_fields_timer_class>
 3f8:	90000001 	adrp	x1, 0 <trace_event_define_fields_timer_class>
 3fc:	91000042 	add	x2, x2, #0x0
 400:	91000021 	add	x1, x1, #0x0
 404:	94000000 	bl	0 <trace_define_field>
 408:	a8c17bfd 	ldp	x29, x30, [sp], #16
 40c:	d65f03c0 	ret

0000000000000410 <trace_event_define_fields_itimer_state>:
trace_event_define_fields_itimer_state():
/data3/home/yuanqiliang/code/arm-kernel/./include/trace/events/timer.h:299
TRACE_EVENT(itimer_state,
 410:	a9be7bfd 	stp	x29, x30, [sp, #-32]!
 414:	90000002 	adrp	x2, 0 <trace_event_define_fields_timer_class>
 418:	90000001 	adrp	x1, 0 <trace_event_define_fields_timer_class>
 41c:	910003fd 	mov	x29, sp
 420:	91000042 	add	x2, x2, #0x0
 424:	91000021 	add	x1, x1, #0x0
 428:	52800006 	mov	w6, #0x0                   	// #0
 42c:	52800025 	mov	w5, #0x1                   	// #1
 430:	52800084 	mov	w4, #0x4                   	// #4
 434:	52800103 	mov	w3, #0x8                   	// #8
 438:	a90153f3 	stp	x19, x20, [sp, #16]
 43c:	aa0003f4 	mov	x20, x0
 440:	94000000 	bl	0 <trace_define_field>
 444:	350006a0 	cbnz	w0, 518 <trace_event_define_fields_itimer_state+0x108>
/data3/home/yuanqiliang/code/arm-kernel/./include/trace/events/timer.h:299 (discriminator 2)
 448:	90000002 	adrp	x2, 0 <trace_event_define_fields_timer_class>
 44c:	90000001 	adrp	x1, 0 <trace_event_define_fields_timer_class>
 450:	91000042 	add	x2, x2, #0x0
 454:	91000021 	add	x1, x1, #0x0
 458:	52800006 	mov	w6, #0x0                   	// #0
 45c:	52800005 	mov	w5, #0x0                   	// #0
 460:	52800104 	mov	w4, #0x8                   	// #8
 464:	52800203 	mov	w3, #0x10                  	// #16
 468:	aa1403e0 	mov	x0, x20
 46c:	94000000 	bl	0 <trace_define_field>
 470:	35000540 	cbnz	w0, 518 <trace_event_define_fields_itimer_state+0x108>
/data3/home/yuanqiliang/code/arm-kernel/./include/trace/events/timer.h:299 (discriminator 4)
 474:	90000013 	adrp	x19, 0 <trace_event_define_fields_timer_class>
 478:	91000273 	add	x19, x19, #0x0
 47c:	90000002 	adrp	x2, 0 <trace_event_define_fields_timer_class>
 480:	aa1303e1 	mov	x1, x19
 484:	52800006 	mov	w6, #0x0                   	// #0
 488:	91000042 	add	x2, x2, #0x0
 48c:	52800025 	mov	w5, #0x1                   	// #1
 490:	52800104 	mov	w4, #0x8                   	// #8
 494:	52800303 	mov	w3, #0x18                  	// #24
 498:	aa1403e0 	mov	x0, x20
 49c:	94000000 	bl	0 <trace_define_field>
 4a0:	350003c0 	cbnz	w0, 518 <trace_event_define_fields_itimer_state+0x108>
/data3/home/yuanqiliang/code/arm-kernel/./include/trace/events/timer.h:299 (discriminator 6)
 4a4:	90000002 	adrp	x2, 0 <trace_event_define_fields_timer_class>
 4a8:	52800006 	mov	w6, #0x0                   	// #0
 4ac:	91000042 	add	x2, x2, #0x0
 4b0:	52800025 	mov	w5, #0x1                   	// #1
 4b4:	52800104 	mov	w4, #0x8                   	// #8
 4b8:	52800403 	mov	w3, #0x20                  	// #32
 4bc:	aa1303e1 	mov	x1, x19
 4c0:	aa1403e0 	mov	x0, x20
 4c4:	94000000 	bl	0 <trace_define_field>
 4c8:	35000280 	cbnz	w0, 518 <trace_event_define_fields_itimer_state+0x108>
/data3/home/yuanqiliang/code/arm-kernel/./include/trace/events/timer.h:299 (discriminator 8)
 4cc:	90000002 	adrp	x2, 0 <trace_event_define_fields_timer_class>
 4d0:	52800006 	mov	w6, #0x0                   	// #0
 4d4:	91000042 	add	x2, x2, #0x0
 4d8:	52800025 	mov	w5, #0x1                   	// #1
 4dc:	52800104 	mov	w4, #0x8                   	// #8
 4e0:	52800503 	mov	w3, #0x28                  	// #40
 4e4:	aa1303e1 	mov	x1, x19
 4e8:	aa1403e0 	mov	x0, x20
 4ec:	94000000 	bl	0 <trace_define_field>
 4f0:	35000140 	cbnz	w0, 518 <trace_event_define_fields_itimer_state+0x108>
/data3/home/yuanqiliang/code/arm-kernel/./include/trace/events/timer.h:299 (discriminator 10)
 4f4:	90000002 	adrp	x2, 0 <trace_event_define_fields_timer_class>
 4f8:	aa1303e1 	mov	x1, x19
 4fc:	aa1403e0 	mov	x0, x20
 500:	52800006 	mov	w6, #0x0                   	// #0
 504:	91000042 	add	x2, x2, #0x0
 508:	52800025 	mov	w5, #0x1                   	// #1
 50c:	52800104 	mov	w4, #0x8                   	// #8
 510:	52800603 	mov	w3, #0x30                  	// #48
 514:	94000000 	bl	0 <trace_define_field>
/data3/home/yuanqiliang/code/arm-kernel/./include/trace/events/timer.h:299
 518:	a94153f3 	ldp	x19, x20, [sp, #16]
 51c:	a8c27bfd 	ldp	x29, x30, [sp], #32
 520:	d65f03c0 	ret

0000000000000524 <trace_event_define_fields_itimer_expire>:
trace_event_define_fields_itimer_expire():
/data3/home/yuanqiliang/code/arm-kernel/./include/trace/events/timer.h:336
TRACE_EVENT(itimer_expire,
 524:	a9be7bfd 	stp	x29, x30, [sp, #-32]!
 528:	90000002 	adrp	x2, 0 <trace_event_define_fields_timer_class>
 52c:	90000001 	adrp	x1, 0 <trace_event_define_fields_timer_class>
 530:	910003fd 	mov	x29, sp
 534:	91000042 	add	x2, x2, #0x0
 538:	91000021 	add	x1, x1, #0x0
 53c:	52800006 	mov	w6, #0x0                   	// #0
 540:	52800025 	mov	w5, #0x1                   	// #1
 544:	52800084 	mov	w4, #0x4                   	// #4
 548:	52800103 	mov	w3, #0x8                   	// #8
 54c:	f9000bf3 	str	x19, [sp, #16]
 550:	aa0003f3 	mov	x19, x0
 554:	94000000 	bl	0 <trace_define_field>
 558:	350002c0 	cbnz	w0, 5b0 <trace_event_define_fields_itimer_expire+0x8c>
/data3/home/yuanqiliang/code/arm-kernel/./include/trace/events/timer.h:336 (discriminator 2)
 55c:	90000002 	adrp	x2, 0 <trace_event_define_fields_timer_class>
 560:	90000001 	adrp	x1, 0 <trace_event_define_fields_timer_class>
 564:	91000042 	add	x2, x2, #0x0
 568:	91000021 	add	x1, x1, #0x0
 56c:	52800006 	mov	w6, #0x0                   	// #0
 570:	52800025 	mov	w5, #0x1                   	// #1
 574:	52800084 	mov	w4, #0x4                   	// #4
 578:	52800183 	mov	w3, #0xc                   	// #12
 57c:	aa1303e0 	mov	x0, x19
 580:	94000000 	bl	0 <trace_define_field>
 584:	35000160 	cbnz	w0, 5b0 <trace_event_define_fields_itimer_expire+0x8c>
/data3/home/yuanqiliang/code/arm-kernel/./include/trace/events/timer.h:336 (discriminator 4)
 588:	90000002 	adrp	x2, 0 <trace_event_define_fields_timer_class>
 58c:	90000001 	adrp	x1, 0 <trace_event_define_fields_timer_class>
 590:	aa1303e0 	mov	x0, x19
 594:	91000042 	add	x2, x2, #0x0
 598:	91000021 	add	x1, x1, #0x0
 59c:	52800006 	mov	w6, #0x0                   	// #0
 5a0:	52800005 	mov	w5, #0x0                   	// #0
 5a4:	52800104 	mov	w4, #0x8                   	// #8
 5a8:	52800203 	mov	w3, #0x10                  	// #16
 5ac:	94000000 	bl	0 <trace_define_field>
/data3/home/yuanqiliang/code/arm-kernel/./include/trace/events/timer.h:336
 5b0:	f9400bf3 	ldr	x19, [sp, #16]
 5b4:	a8c27bfd 	ldp	x29, x30, [sp], #32
 5b8:	d65f03c0 	ret

00000000000005bc <trace_event_define_fields_tick_stop>:
trace_event_define_fields_tick_stop():
/data3/home/yuanqiliang/code/arm-kernel/./include/trace/events/timer.h:392
TRACE_EVENT(tick_stop,
 5bc:	a9be7bfd 	stp	x29, x30, [sp, #-32]!
 5c0:	90000002 	adrp	x2, 0 <trace_event_define_fields_timer_class>
 5c4:	52800006 	mov	w6, #0x0                   	// #0
 5c8:	910003fd 	mov	x29, sp
 5cc:	a90153f3 	stp	x19, x20, [sp, #16]
 5d0:	90000013 	adrp	x19, 0 <trace_event_define_fields_timer_class>
 5d4:	91000273 	add	x19, x19, #0x0
 5d8:	aa1303e1 	mov	x1, x19
 5dc:	aa0003f4 	mov	x20, x0
 5e0:	91000042 	add	x2, x2, #0x0
 5e4:	52800025 	mov	w5, #0x1                   	// #1
 5e8:	52800084 	mov	w4, #0x4                   	// #4
 5ec:	52800103 	mov	w3, #0x8                   	// #8
 5f0:	94000000 	bl	0 <trace_define_field>
 5f4:	35000140 	cbnz	w0, 61c <trace_event_define_fields_tick_stop+0x60>
/data3/home/yuanqiliang/code/arm-kernel/./include/trace/events/timer.h:392 (discriminator 2)
 5f8:	90000002 	adrp	x2, 0 <trace_event_define_fields_timer_class>
 5fc:	aa1303e1 	mov	x1, x19
 600:	aa1403e0 	mov	x0, x20
 604:	52800006 	mov	w6, #0x0                   	// #0
 608:	91000042 	add	x2, x2, #0x0
 60c:	52800025 	mov	w5, #0x1                   	// #1
 610:	52800084 	mov	w4, #0x4                   	// #4
 614:	52800183 	mov	w3, #0xc                   	// #12
 618:	94000000 	bl	0 <trace_define_field>
/data3/home/yuanqiliang/code/arm-kernel/./include/trace/events/timer.h:392
 61c:	a94153f3 	ldp	x19, x20, [sp, #16]
 620:	a8c27bfd 	ldp	x29, x30, [sp], #32
 624:	d65f03c0 	ret

0000000000000628 <init_timers>:
init_timers():
/data3/home/yuanqiliang/code/arm-kernel/kernel/time/timer.c:1952
{
 628:	a9bd7bfd 	stp	x29, x30, [sp, #-48]!
init_timer_cpus():
/data3/home/yuanqiliang/code/arm-kernel/kernel/time/timer.c:1947
	for_each_possible_cpu(cpu)
 62c:	12800000 	mov	w0, #0xffffffff            	// #-1
init_timers():
/data3/home/yuanqiliang/code/arm-kernel/kernel/time/timer.c:1952
{
 630:	910003fd 	mov	x29, sp
 634:	a90153f3 	stp	x19, x20, [sp, #16]
init_timer_cpus():
/data3/home/yuanqiliang/code/arm-kernel/kernel/time/timer.c:1947
	for_each_possible_cpu(cpu)
 638:	90000014 	adrp	x20, 0 <nr_cpu_ids>
init_timer_cpu():
/data3/home/yuanqiliang/code/arm-kernel/kernel/time/timer.c:1936
		base = per_cpu_ptr(&timer_bases[i], cpu);
 63c:	90000013 	adrp	x19, 0 <trace_event_define_fields_timer_class>
init_timer_cpus():
/data3/home/yuanqiliang/code/arm-kernel/kernel/time/timer.c:1947
	for_each_possible_cpu(cpu)
 640:	91000294 	add	x20, x20, #0x0
init_timer_cpu():
/data3/home/yuanqiliang/code/arm-kernel/kernel/time/timer.c:1936
		base = per_cpu_ptr(&timer_bases[i], cpu);
 644:	91000273 	add	x19, x19, #0x0
init_timers():
/data3/home/yuanqiliang/code/arm-kernel/kernel/time/timer.c:1952
{
 648:	a9025bf5 	stp	x21, x22, [sp, #32]
init_timer_cpus():
/data3/home/yuanqiliang/code/arm-kernel/kernel/time/timer.c:1947
	for_each_possible_cpu(cpu)
 64c:	90000015 	adrp	x21, 0 <__cpu_possible_mask>
 650:	910002b5 	add	x21, x21, #0x0
init_timer_cpu():
/data3/home/yuanqiliang/code/arm-kernel/kernel/time/timer.c:1936
		base = per_cpu_ptr(&timer_bases[i], cpu);
 654:	90000016 	adrp	x22, 0 <__per_cpu_offset>
init_timer_cpus():
/data3/home/yuanqiliang/code/arm-kernel/kernel/time/timer.c:1947
	for_each_possible_cpu(cpu)
 658:	aa1503e1 	mov	x1, x21
 65c:	94000000 	bl	0 <cpumask_next>
 660:	b9400281 	ldr	w1, [x20]
 664:	6b01001f 	cmp	w0, w1
 668:	54000282 	b.cs	6b8 <init_timers+0x90>  // b.hs, b.nlast
init_timer_cpu():
/data3/home/yuanqiliang/code/arm-kernel/kernel/time/timer.c:1936
		base = per_cpu_ptr(&timer_bases[i], cpu);
 66c:	910002c4 	add	x4, x22, #0x0
 670:	93407c05 	sxtw	x5, w0
 674:	aa1303e2 	mov	x2, x19
/data3/home/yuanqiliang/code/arm-kernel/kernel/time/timer.c:1939
		base->clk = jiffies;
 678:	90000003 	adrp	x3, 0 <jiffies>
/data3/home/yuanqiliang/code/arm-kernel/kernel/time/timer.c:1936
		base = per_cpu_ptr(&timer_bases[i], cpu);
 67c:	f8657887 	ldr	x7, [x4, x5, lsl #3]
 680:	90000001 	adrp	x1, 0 <trace_event_define_fields_timer_class>
 684:	91000021 	add	x1, x1, #0x0
 688:	8b070046 	add	x6, x2, x7
/data3/home/yuanqiliang/code/arm-kernel/kernel/time/timer.c:1937
		base->cpu = cpu;
 68c:	b90020c0 	str	w0, [x6, #32]
/data3/home/yuanqiliang/code/arm-kernel/kernel/time/timer.c:1938
		raw_spin_lock_init(&base->lock);
 690:	b827685f 	str	wzr, [x2, x7]
/data3/home/yuanqiliang/code/arm-kernel/kernel/time/timer.c:1939
		base->clk = jiffies;
 694:	f9400062 	ldr	x2, [x3]
 698:	f90008c2 	str	x2, [x6, #16]
/data3/home/yuanqiliang/code/arm-kernel/kernel/time/timer.c:1936
		base = per_cpu_ptr(&timer_bases[i], cpu);
 69c:	f8657884 	ldr	x4, [x4, x5, lsl #3]
 6a0:	8b040022 	add	x2, x1, x4
/data3/home/yuanqiliang/code/arm-kernel/kernel/time/timer.c:1937
		base->cpu = cpu;
 6a4:	b9002040 	str	w0, [x2, #32]
/data3/home/yuanqiliang/code/arm-kernel/kernel/time/timer.c:1938
		raw_spin_lock_init(&base->lock);
 6a8:	b824683f 	str	wzr, [x1, x4]
/data3/home/yuanqiliang/code/arm-kernel/kernel/time/timer.c:1939
		base->clk = jiffies;
 6ac:	f9400061 	ldr	x1, [x3]
 6b0:	f9000841 	str	x1, [x2, #16]
 6b4:	17ffffe9 	b	658 <init_timers+0x30>
init_timers():
/data3/home/yuanqiliang/code/arm-kernel/kernel/time/timer.c:1954
	open_softirq(TIMER_SOFTIRQ, run_timer_softirq);
 6b8:	52800020 	mov	w0, #0x1                   	// #1
 6bc:	90000001 	adrp	x1, 0 <trace_event_define_fields_timer_class>
 6c0:	91000021 	add	x1, x1, #0x0
 6c4:	94000000 	bl	0 <open_softirq>
/data3/home/yuanqiliang/code/arm-kernel/kernel/time/timer.c:1955
}
 6c8:	a94153f3 	ldp	x19, x20, [sp, #16]
 6cc:	a9425bf5 	ldp	x21, x22, [sp, #32]
 6d0:	a8c37bfd 	ldp	x29, x30, [sp], #48
 6d4:	d65f03c0 	ret

Disassembly of section .sched.text:

0000000000000000 <usleep_range>:
usleep_range():
/data3/home/yuanqiliang/code/arm-kernel/kernel/time/timer.c:1998
 * by avoiding the CPU-hogging busy-wait of udelay(), and the range reduces
 * power usage by allowing hrtimers to take advantage of an already-
 * scheduled interrupt instead of scheduling a new one just for this sleep.
 */
void __sched usleep_range(unsigned long min, unsigned long max)
{
   0:	a9bc7bfd 	stp	x29, x30, [sp, #-64]!
   4:	910003fd 	mov	x29, sp
   8:	a90153f3 	stp	x19, x20, [sp, #16]
   c:	aa0103f3 	mov	x19, x1
/data3/home/yuanqiliang/code/arm-kernel/kernel/time/timer.c:2003
	ktime_t exp = ktime_add_us(ktime_get(), min);
	u64 delta = (u64)(max - min) * NSEC_PER_USEC;

	for (;;) {
		__set_current_state(TASK_UNINTERRUPTIBLE);
  10:	d2800054 	mov	x20, #0x2                   	// #2
/data3/home/yuanqiliang/code/arm-kernel/kernel/time/timer.c:1998
{
  14:	f90013f5 	str	x21, [sp, #32]
  18:	aa0003f5 	mov	x21, x0
/data3/home/yuanqiliang/code/arm-kernel/kernel/time/timer.c:1999
	ktime_t exp = ktime_add_us(ktime_get(), min);
  1c:	94000000 	bl	0 <ktime_get>
/data3/home/yuanqiliang/code/arm-kernel/kernel/time/timer.c:2000
	u64 delta = (u64)(max - min) * NSEC_PER_USEC;
  20:	cb150261 	sub	x1, x19, x21
ktime_add_us():
/data3/home/yuanqiliang/code/arm-kernel/./include/linux/ktime.h:198
	return ktime_to_ms(ktime_sub(later, earlier));
}

static inline ktime_t ktime_add_us(const ktime_t kt, const u64 usec)
{
	return ktime_add_ns(kt, usec * NSEC_PER_USEC);
  24:	d37beaa2 	lsl	x2, x21, #5
  28:	cb150042 	sub	x2, x2, x21
usleep_range():
/data3/home/yuanqiliang/code/arm-kernel/kernel/time/timer.c:2000
  2c:	d37be833 	lsl	x19, x1, #5
  30:	cb010273 	sub	x19, x19, x1
ktime_add_us():
/data3/home/yuanqiliang/code/arm-kernel/./include/linux/ktime.h:198
  34:	8b020aa2 	add	x2, x21, x2, lsl #2
usleep_range():
/data3/home/yuanqiliang/code/arm-kernel/kernel/time/timer.c:2000
  38:	8b130833 	add	x19, x1, x19, lsl #2
ktime_add_us():
/data3/home/yuanqiliang/code/arm-kernel/./include/linux/ktime.h:198
  3c:	8b020c00 	add	x0, x0, x2, lsl #3
usleep_range():
/data3/home/yuanqiliang/code/arm-kernel/kernel/time/timer.c:1999
	ktime_t exp = ktime_add_us(ktime_get(), min);
  40:	f9001fe0 	str	x0, [sp, #56]
/data3/home/yuanqiliang/code/arm-kernel/kernel/time/timer.c:2000
	u64 delta = (u64)(max - min) * NSEC_PER_USEC;
  44:	d37df273 	lsl	x19, x19, #3
get_current():
/data3/home/yuanqiliang/code/arm-kernel/./arch/arm64/include/asm/current.h:19
  48:	d5384100 	mrs	x0, sp_el0
usleep_range():
/data3/home/yuanqiliang/code/arm-kernel/kernel/time/timer.c:2003
		__set_current_state(TASK_UNINTERRUPTIBLE);
  4c:	f9000c14 	str	x20, [x0, #24]
/data3/home/yuanqiliang/code/arm-kernel/kernel/time/timer.c:2005
		/* Do not return before the requested sleep time has elapsed */
		if (!schedule_hrtimeout_range(&exp, delta, HRTIMER_MODE_ABS))
  50:	52800002 	mov	w2, #0x0                   	// #0
  54:	aa1303e1 	mov	x1, x19
  58:	9100e3e0 	add	x0, sp, #0x38
  5c:	94000000 	bl	0 <schedule_hrtimeout_range>
  60:	35ffff40 	cbnz	w0, 48 <usleep_range+0x48>
/data3/home/yuanqiliang/code/arm-kernel/kernel/time/timer.c:2008
			break;
	}
}
  64:	a94153f3 	ldp	x19, x20, [sp, #16]
  68:	f94013f5 	ldr	x21, [sp, #32]
  6c:	a8c47bfd 	ldp	x29, x30, [sp], #64
  70:	d65f03c0 	ret
  74:	d503201f 	nop

0000000000000078 <schedule_timeout>:
schedule_timeout():
/data3/home/yuanqiliang/code/arm-kernel/kernel/time/timer.c:1776
{
  78:	a9b67bfd 	stp	x29, x30, [sp, #-160]!
  7c:	910003fd 	mov	x29, sp
  80:	a90153f3 	stp	x19, x20, [sp, #16]
  84:	aa0003f3 	mov	x19, x0
/data3/home/yuanqiliang/code/arm-kernel/kernel/time/timer.c:1780
	switch (timeout)
  88:	92f00000 	mov	x0, #0x7fffffffffffffff    	// #9223372036854775807
  8c:	eb00027f 	cmp	x19, x0
  90:	540014e0 	b.eq	32c <schedule_timeout+0x2b4>  // b.none
/data3/home/yuanqiliang/code/arm-kernel/kernel/time/timer.c:1800
		if (timeout < 0) {
  94:	b7f81db3 	tbnz	x19, #63, 448 <schedule_timeout+0x3d0>
/data3/home/yuanqiliang/code/arm-kernel/kernel/time/timer.c:1809
	expire = timeout + jiffies;
  98:	a90363f7 	stp	x23, x24, [sp, #48]
  9c:	90000018 	adrp	x24, 0 <jiffies>
init_timer_on_stack_key():
/data3/home/yuanqiliang/code/arm-kernel/./include/linux/timer.h:95
	init_timer_key(timer, func, flags, name, key);
  a0:	9101c3f4 	add	x20, sp, #0x70
schedule_timeout():
/data3/home/yuanqiliang/code/arm-kernel/kernel/time/timer.c:1809
  a4:	f9400302 	ldr	x2, [x24]
init_timer_on_stack_key():
/data3/home/yuanqiliang/code/arm-kernel/./include/linux/timer.h:95
  a8:	aa1403e0 	mov	x0, x20
get_current():
/data3/home/yuanqiliang/code/arm-kernel/./arch/arm64/include/asm/current.h:19
  ac:	d5384105 	mrs	x5, sp_el0
init_timer_on_stack_key():
/data3/home/yuanqiliang/code/arm-kernel/./include/linux/timer.h:95
  b0:	90000001 	adrp	x1, 0 <usleep_range>
  b4:	d2800004 	mov	x4, #0x0                   	// #0
  b8:	91000021 	add	x1, x1, #0x0
schedule_timeout():
/data3/home/yuanqiliang/code/arm-kernel/kernel/time/timer.c:1809
  bc:	8b020273 	add	x19, x19, x2
init_timer_on_stack_key():
/data3/home/yuanqiliang/code/arm-kernel/./include/linux/timer.h:95
  c0:	d2800003 	mov	x3, #0x0                   	// #0
  c4:	52800002 	mov	w2, #0x0                   	// #0
schedule_timeout():
/data3/home/yuanqiliang/code/arm-kernel/kernel/time/timer.c:1811
	timer.task = current;
  c8:	f9004fe5 	str	x5, [sp, #152]
init_timer_on_stack_key():
/data3/home/yuanqiliang/code/arm-kernel/./include/linux/timer.h:95
  cc:	94000000 	bl	1f38 <init_timer_key>
__mod_timer():
/data3/home/yuanqiliang/code/arm-kernel/kernel/time/timer.c:959
	BUG_ON(!timer->function);
  d0:	f94047e0 	ldr	x0, [sp, #136]
  d4:	b40013c0 	cbz	x0, 34c <schedule_timeout+0x2d4>
/data3/home/yuanqiliang/code/arm-kernel/kernel/time/timer.c:966
	if (timer_pending(timer)) {
  d8:	f9403fe0 	ldr	x0, [sp, #120]
  dc:	a9046bf9 	stp	x25, x26, [sp, #64]
  e0:	f9002bfb 	str	x27, [sp, #80]
  e4:	b4000fa0 	cbz	x0, 2d8 <schedule_timeout+0x260>
/data3/home/yuanqiliang/code/arm-kernel/kernel/time/timer.c:974
		if (!diff)
  e8:	f94043e0 	ldr	x0, [sp, #128]
  ec:	eb00027f 	cmp	x19, x0
  f0:	54000a00 	b.eq	230 <schedule_timeout+0x1b8>  // b.none
/data3/home/yuanqiliang/code/arm-kernel/kernel/time/timer.c:985
		base = lock_timer_base(timer, &flags);
  f4:	9101a3e1 	add	x1, sp, #0x68
  f8:	aa1403e0 	mov	x0, x20
  fc:	94000000 	bl	0 <usleep_range>
 100:	aa0003f7 	mov	x23, x0
forward_timer_base():
/data3/home/yuanqiliang/code/arm-kernel/kernel/time/timer.c:891
	if (likely(!base->must_forward_clk))
 104:	39409400 	ldrb	w0, [x0, #37]
 108:	35001640 	cbnz	w0, 3d0 <schedule_timeout+0x358>
 10c:	f9400afa 	ldr	x26, [x23, #16]
__mod_timer():
/data3/home/yuanqiliang/code/arm-kernel/kernel/time/timer.c:995
		idx = calc_wheel_index(expires, clk);
 110:	aa1a03e1 	mov	x1, x26
 114:	aa1303e0 	mov	x0, x19
 118:	94000000 	bl	0 <usleep_range>
 11c:	2a0003f9 	mov	w25, w0
timer_get_idx():
/data3/home/yuanqiliang/code/arm-kernel/kernel/time/timer.c:476
	return (timer->flags & TIMER_ARRAYMASK) >> TIMER_ARRAYSHIFT;
 120:	b94093e0 	ldr	w0, [sp, #144]
__mod_timer():
/data3/home/yuanqiliang/code/arm-kernel/kernel/time/timer.c:1002
		if (idx == timer_get_idx(timer)) {
 124:	6b405b3f 	cmp	w25, w0, lsr #22
 128:	540010c0 	b.eq	340 <schedule_timeout+0x2c8>  // b.none
 12c:	a9025bf5 	stp	x21, x22, [sp, #32]
/data3/home/yuanqiliang/code/arm-kernel/kernel/time/timer.c:1015
	ret = detach_if_pending(timer, base, false);
 130:	52800002 	mov	w2, #0x0                   	// #0
 134:	aa1703e1 	mov	x1, x23
 138:	aa1403e0 	mov	x0, x20
 13c:	94000000 	bl	0 <usleep_range>
/data3/home/yuanqiliang/code/arm-kernel/kernel/time/timer.c:1019
	new_base = get_target_base(base, timer->flags);
 140:	b94093f6 	ldr	w22, [sp, #144]
arch_static_branch_jump():
/data3/home/yuanqiliang/code/arm-kernel/./arch/arm64/include/asm/jump_label.h:34
	asm_volatile_goto("1: b %l[l_yes]\n\t"
 144:	14000063 	b	2d0 <schedule_timeout+0x258>
get_target_base():
/data3/home/yuanqiliang/code/arm-kernel/kernel/time/timer.c:874
	if (static_branch_likely(&timers_migration_enabled) &&
 148:	120d02db 	and	w27, w22, #0x80000
 14c:	36a01136 	tbz	w22, #20, 370 <schedule_timeout+0x2f8>
get_timer_this_cpu_base():
/data3/home/yuanqiliang/code/arm-kernel/kernel/time/timer.c:854
	struct timer_base *base = this_cpu_ptr(&timer_bases[BASE_STD]);
 150:	90000015 	adrp	x21, 0 <usleep_range>
 154:	910002b5 	add	x21, x21, #0x0
 158:	aa1503e0 	mov	x0, x21
__my_cpu_offset():
/data3/home/yuanqiliang/code/arm-kernel/./arch/arm64/include/asm/percpu.h:30
 15c:	d538d081 	mrs	x1, tpidr_el1
get_timer_this_cpu_base():
/data3/home/yuanqiliang/code/arm-kernel/kernel/time/timer.c:860
	if (IS_ENABLED(CONFIG_NO_HZ_COMMON) && (tflags & TIMER_DEFERRABLE))
 160:	3400009b 	cbz	w27, 170 <schedule_timeout+0xf8>
/data3/home/yuanqiliang/code/arm-kernel/kernel/time/timer.c:861
		base = this_cpu_ptr(&timer_bases[BASE_DEF]);
 164:	90000000 	adrp	x0, 0 <usleep_range>
 168:	91000015 	add	x21, x0, #0x0
 16c:	aa1503e0 	mov	x0, x21
 170:	8b010015 	add	x21, x0, x1
__mod_timer():
/data3/home/yuanqiliang/code/arm-kernel/kernel/time/timer.c:1021
	if (base != new_base) {
 174:	aa1503fb 	mov	x27, x21
 178:	eb1502ff 	cmp	x23, x21
 17c:	54000340 	b.eq	1e4 <schedule_timeout+0x16c>  // b.none
/data3/home/yuanqiliang/code/arm-kernel/kernel/time/timer.c:1029
		if (likely(base->running_timer != timer)) {
 180:	f94006e0 	ldr	x0, [x23, #8]
 184:	aa1703fb 	mov	x27, x23
 188:	eb14001f 	cmp	x0, x20
 18c:	540013a0 	b.eq	400 <schedule_timeout+0x388>  // b.none
/data3/home/yuanqiliang/code/arm-kernel/kernel/time/timer.c:1031
			timer->flags |= TIMER_MIGRATING;
 190:	320e02d6 	orr	w22, w22, #0x40000
queued_spin_unlock():
/data3/home/yuanqiliang/code/arm-kernel/./include/asm-generic/qspinlock.h:101
	smp_store_release(&lock->locked, 0);
 194:	52800000 	mov	w0, #0x0                   	// #0
__mod_timer():
/data3/home/yuanqiliang/code/arm-kernel/kernel/time/timer.c:1031
 198:	b90093f6 	str	w22, [sp, #144]
queued_spin_unlock():
/data3/home/yuanqiliang/code/arm-kernel/./include/asm-generic/qspinlock.h:101
 19c:	089ffee0 	stlrb	w0, [x23]
__cmpxchg_case_acq_4():
/data3/home/yuanqiliang/code/arm-kernel/./arch/arm64/include/asm/atomic_ll_sc.h:272
 1a0:	d2800000 	mov	x0, #0x0                   	// #0
do_raw_spin_lock():
/data3/home/yuanqiliang/code/arm-kernel/./include/linux/spinlock.h:180
 1a4:	aa1503fb 	mov	x27, x21
__cmpxchg_case_acq_4():
/data3/home/yuanqiliang/code/arm-kernel/./arch/arm64/include/asm/atomic_ll_sc.h:272
 1a8:	d2800022 	mov	x2, #0x1                   	// #1
 1ac:	f98002b1 	prfm	pstl1strm, [x21]
 1b0:	885ffea1 	ldaxr	w1, [x21]
 1b4:	4a000023 	eor	w3, w1, w0
 1b8:	35000063 	cbnz	w3, 1c4 <schedule_timeout+0x14c>
 1bc:	88037ea2 	stxr	w3, w2, [x21]
 1c0:	35ffff83 	cbnz	w3, 1b0 <schedule_timeout+0x138>
queued_spin_lock():
/data3/home/yuanqiliang/code/arm-kernel/./include/asm-generic/qspinlock.h:86
	if (likely(val == 0))
 1c4:	35001221 	cbnz	w1, 408 <schedule_timeout+0x390>
__mod_timer():
/data3/home/yuanqiliang/code/arm-kernel/kernel/time/timer.c:1036
			WRITE_ONCE(timer->flags,
 1c8:	b94093f6 	ldr	w22, [sp, #144]
 1cc:	b94022a1 	ldr	w1, [x21, #32]
forward_timer_base():
/data3/home/yuanqiliang/code/arm-kernel/kernel/time/timer.c:891
	if (likely(!base->must_forward_clk))
 1d0:	394096a0 	ldrb	w0, [x21, #37]
__mod_timer():
/data3/home/yuanqiliang/code/arm-kernel/kernel/time/timer.c:1036
			WRITE_ONCE(timer->flags,
 1d4:	120d32d6 	and	w22, w22, #0xfff80000
 1d8:	2a0102d6 	orr	w22, w22, w1
__write_once_size():
/data3/home/yuanqiliang/code/arm-kernel/./include/linux/compiler.h:219
	case 4: *(volatile __u32 *)p = *(__u32 *)res; break;
 1dc:	b90093f6 	str	w22, [sp, #144]
forward_timer_base():
/data3/home/yuanqiliang/code/arm-kernel/kernel/time/timer.c:891
	if (likely(!base->must_forward_clk))
 1e0:	35000de0 	cbnz	w0, 39c <schedule_timeout+0x324>
arch_static_branch():
/data3/home/yuanqiliang/code/arm-kernel/./arch/arm64/include/asm/jump_label.h:20
	asm_volatile_goto("1: nop\n\t"
 1e4:	d503201f 	nop
__mod_timer():
/data3/home/yuanqiliang/code/arm-kernel/kernel/time/timer.c:1044
	timer->expires = expires;
 1e8:	f90043f3 	str	x19, [sp, #128]
/data3/home/yuanqiliang/code/arm-kernel/kernel/time/timer.c:1052
	if (idx != UINT_MAX && clk == base->clk) {
 1ec:	3100073f 	cmn	w25, #0x1
 1f0:	54000080 	b.eq	200 <schedule_timeout+0x188>  // b.none
 1f4:	f9400aa0 	ldr	x0, [x21, #16]
 1f8:	eb1a001f 	cmp	x0, x26
 1fc:	54000b00 	b.eq	35c <schedule_timeout+0x2e4>  // b.none
internal_add_timer():
/data3/home/yuanqiliang/code/arm-kernel/kernel/time/timer.c:591
	__internal_add_timer(base, timer);
 200:	aa1403e1 	mov	x1, x20
 204:	aa1503e0 	mov	x0, x21
 208:	94000000 	bl	0 <usleep_range>
/data3/home/yuanqiliang/code/arm-kernel/kernel/time/timer.c:592
	trigger_dyntick_cpu(base, timer);
 20c:	aa1503e0 	mov	x0, x21
 210:	91008282 	add	x2, x20, #0x20
 214:	91004281 	add	x1, x20, #0x10
 218:	94000000 	bl	0 <usleep_range>
 21c:	a9425bf5 	ldp	x21, x22, [sp, #32]
queued_spin_unlock():
/data3/home/yuanqiliang/code/arm-kernel/./include/asm-generic/qspinlock.h:101
	smp_store_release(&lock->locked, 0);
 220:	52800001 	mov	w1, #0x0                   	// #0
__mod_timer():
/data3/home/yuanqiliang/code/arm-kernel/kernel/time/timer.c:1060
	raw_spin_unlock_irqrestore(&base->lock, flags);
 224:	f94037e0 	ldr	x0, [sp, #104]
queued_spin_unlock():
/data3/home/yuanqiliang/code/arm-kernel/./include/asm-generic/qspinlock.h:101
 228:	089fff61 	stlrb	w1, [x27]
arch_local_irq_restore():
/data3/home/yuanqiliang/code/arm-kernel/./arch/arm64/include/asm/irqflags.h:77
	asm volatile(
 22c:	d51b4220 	msr	daif, x0
schedule_timeout():
/data3/home/yuanqiliang/code/arm-kernel/kernel/time/timer.c:1814
	schedule();
 230:	94000000 	bl	0 <schedule>
/data3/home/yuanqiliang/code/arm-kernel/kernel/time/timer.c:1815
	del_singleshot_timer_sync(&timer.timer);
 234:	aa1403e0 	mov	x0, x20
 238:	94000000 	bl	2db0 <del_timer_sync>
/data3/home/yuanqiliang/code/arm-kernel/kernel/time/timer.c:1820
	timeout = expire - jiffies;
 23c:	f9400300 	ldr	x0, [x24]
 240:	a94363f7 	ldp	x23, x24, [sp, #48]
 244:	eb000260 	subs	x0, x19, x0
 248:	a9446bf9 	ldp	x25, x26, [sp, #64]
 24c:	9a9f5000 	csel	x0, x0, xzr, pl  // pl = nfrst
/data3/home/yuanqiliang/code/arm-kernel/kernel/time/timer.c:1823
	return timeout < 0 ? 0 : timeout;
 250:	f9402bfb 	ldr	x27, [sp, #80]
/data3/home/yuanqiliang/code/arm-kernel/kernel/time/timer.c:1824
}
 254:	a94153f3 	ldp	x19, x20, [sp, #16]
 258:	a8ca7bfd 	ldp	x29, x30, [sp], #160
 25c:	d65f03c0 	ret
trace_timer_start():
/data3/home/yuanqiliang/code/arm-kernel/./include/trace/events/timer.h:52
TRACE_EVENT(timer_start,
 260:	90000000 	adrp	x0, 0 <cpu_number>
 264:	91000000 	add	x0, x0, #0x0
__my_cpu_offset():
/data3/home/yuanqiliang/code/arm-kernel/./arch/arm64/include/asm/percpu.h:30
 268:	d538d081 	mrs	x1, tpidr_el1
trace_timer_start():
/data3/home/yuanqiliang/code/arm-kernel/./include/trace/events/timer.h:52
 26c:	b8616801 	ldr	w1, [x0, x1]
test_bit():
/data3/home/yuanqiliang/code/arm-kernel/./include/asm-generic/bitops/non-atomic.h:106
 270:	90000002 	adrp	x2, 0 <__cpu_online_mask>
 274:	91000042 	add	x2, x2, #0x0
 278:	7100003f 	cmp	w1, #0x0
 27c:	1100fc20 	add	w0, w1, #0x3f
 280:	1a81b000 	csel	w0, w0, w1, lt  // lt = tstop
 284:	13067c00 	asr	w0, w0, #6
 288:	93407c00 	sxtw	x0, w0
 28c:	f8607840 	ldr	x0, [x2, x0, lsl #3]
 290:	9ac12401 	lsr	x1, x0, x1
trace_timer_start():
/data3/home/yuanqiliang/code/arm-kernel/./include/trace/events/timer.h:52
 294:	3607faa1 	tbz	w1, #0, 1e8 <schedule_timeout+0x170>
__read_once_size():
/data3/home/yuanqiliang/code/arm-kernel/./include/linux/compiler.h:193
	__READ_ONCE_SIZE;
 298:	90000000 	adrp	x0, 0 <usleep_range>
 29c:	91000000 	add	x0, x0, #0x0
 2a0:	f9407417 	ldr	x23, [x0, #232]
trace_timer_start():
/data3/home/yuanqiliang/code/arm-kernel/./include/trace/events/timer.h:52
 2a4:	b4000157 	cbz	x23, 2cc <schedule_timeout+0x254>
 2a8:	f94002e4 	ldr	x4, [x23]
 2ac:	d503201f 	nop
 2b0:	2a1603e3 	mov	w3, w22
 2b4:	f94006e0 	ldr	x0, [x23, #8]
 2b8:	aa1303e2 	mov	x2, x19
 2bc:	aa1403e1 	mov	x1, x20
 2c0:	d63f0080 	blr	x4
 2c4:	f8418ee4 	ldr	x4, [x23, #24]!
 2c8:	b5ffff44 	cbnz	x4, 2b0 <schedule_timeout+0x238>
 2cc:	17ffffc7 	b	1e8 <schedule_timeout+0x170>
 2d0:	120d02db 	and	w27, w22, #0x80000
 2d4:	17ffff9f 	b	150 <schedule_timeout+0xd8>
__mod_timer():
/data3/home/yuanqiliang/code/arm-kernel/kernel/time/timer.c:1011
		base = lock_timer_base(timer, &flags);
 2d8:	9101a3e1 	add	x1, sp, #0x68
 2dc:	aa1403e0 	mov	x0, x20
 2e0:	a9025bf5 	stp	x21, x22, [sp, #32]
 2e4:	94000000 	bl	0 <usleep_range>
 2e8:	aa0003f7 	mov	x23, x0
forward_timer_base():
/data3/home/yuanqiliang/code/arm-kernel/kernel/time/timer.c:891
	if (likely(!base->must_forward_clk))
 2ec:	39409400 	ldrb	w0, [x0, #37]
__mod_timer():
/data3/home/yuanqiliang/code/arm-kernel/kernel/time/timer.c:956
	unsigned long clk = 0, flags;
 2f0:	d280001a 	mov	x26, #0x0                   	// #0
/data3/home/yuanqiliang/code/arm-kernel/kernel/time/timer.c:955
	unsigned int idx = UINT_MAX;
 2f4:	12800019 	mov	w25, #0xffffffff            	// #-1
forward_timer_base():
/data3/home/yuanqiliang/code/arm-kernel/kernel/time/timer.c:891
	if (likely(!base->must_forward_clk))
 2f8:	34fff1c0 	cbz	w0, 130 <schedule_timeout+0xb8>
__read_once_size():
/data3/home/yuanqiliang/code/arm-kernel/./include/linux/compiler.h:193
 2fc:	f9400301 	ldr	x1, [x24]
forward_timer_base():
/data3/home/yuanqiliang/code/arm-kernel/kernel/time/timer.c:896
	if ((long)(jnow - base->clk) < 2)
 300:	f9400ae0 	ldr	x0, [x23, #16]
/data3/home/yuanqiliang/code/arm-kernel/kernel/time/timer.c:895
	base->must_forward_clk = base->is_idle;
 304:	394092e2 	ldrb	w2, [x23, #36]
 308:	390096e2 	strb	w2, [x23, #37]
/data3/home/yuanqiliang/code/arm-kernel/kernel/time/timer.c:896
	if ((long)(jnow - base->clk) < 2)
 30c:	cb000020 	sub	x0, x1, x0
 310:	f100041f 	cmp	x0, #0x1
 314:	54fff0ed 	b.le	130 <schedule_timeout+0xb8>
/data3/home/yuanqiliang/code/arm-kernel/kernel/time/timer.c:903
	if (time_after(base->next_expiry, jnow))
 318:	f9400ee0 	ldr	x0, [x23, #24]
 31c:	eb00003f 	cmp	x1, x0
 320:	54000904 	b.mi	440 <schedule_timeout+0x3c8>  // b.first
/data3/home/yuanqiliang/code/arm-kernel/kernel/time/timer.c:906
		base->clk = base->next_expiry;
 324:	f9000ae0 	str	x0, [x23, #16]
 328:	17ffff82 	b	130 <schedule_timeout+0xb8>
schedule_timeout():
/data3/home/yuanqiliang/code/arm-kernel/kernel/time/timer.c:1790
		schedule();
 32c:	94000000 	bl	0 <schedule>
/data3/home/yuanqiliang/code/arm-kernel/kernel/time/timer.c:1791
		goto out;
 330:	aa1303e0 	mov	x0, x19
/data3/home/yuanqiliang/code/arm-kernel/kernel/time/timer.c:1824
}
 334:	a94153f3 	ldp	x19, x20, [sp, #16]
 338:	a8ca7bfd 	ldp	x29, x30, [sp], #160
 33c:	d65f03c0 	ret
__mod_timer():
/data3/home/yuanqiliang/code/arm-kernel/kernel/time/timer.c:1004
				timer->expires = expires;
 340:	aa1703fb 	mov	x27, x23
 344:	f90043f3 	str	x19, [sp, #128]
/data3/home/yuanqiliang/code/arm-kernel/kernel/time/timer.c:1008
			goto out_unlock;
 348:	17ffffb6 	b	220 <schedule_timeout+0x1a8>
 34c:	a9025bf5 	stp	x21, x22, [sp, #32]
 350:	a9046bf9 	stp	x25, x26, [sp, #64]
 354:	f9002bfb 	str	x27, [sp, #80]
/data3/home/yuanqiliang/code/arm-kernel/kernel/time/timer.c:959
	BUG_ON(!timer->function);
 358:	d4210000 	brk	#0x800
/data3/home/yuanqiliang/code/arm-kernel/kernel/time/timer.c:1053
		enqueue_timer(base, timer, idx);
 35c:	2a1903e2 	mov	w2, w25
 360:	aa1403e1 	mov	x1, x20
 364:	aa1503e0 	mov	x0, x21
 368:	94000000 	bl	0 <usleep_range>
/data3/home/yuanqiliang/code/arm-kernel/kernel/time/timer.c:1054
		trigger_dyntick_cpu(base, timer);
 36c:	17ffffa8 	b	20c <schedule_timeout+0x194>
get_target_base():
/data3/home/yuanqiliang/code/arm-kernel/kernel/time/timer.c:876
		return get_timer_cpu_base(tflags, get_nohz_timer_target());
 370:	94000000 	bl	0 <get_nohz_timer_target>
get_timer_cpu_base():
/data3/home/yuanqiliang/code/arm-kernel/kernel/time/timer.c:841
	struct timer_base *base = per_cpu_ptr(&timer_bases[BASE_STD], cpu);
 374:	90000015 	adrp	x21, 0 <usleep_range>
 378:	90000002 	adrp	x2, 0 <__per_cpu_offset>
 37c:	91000042 	add	x2, x2, #0x0
 380:	910002b5 	add	x21, x21, #0x0
 384:	aa1503e1 	mov	x1, x21
 388:	f8605855 	ldr	x21, [x2, w0, uxtw #3]
/data3/home/yuanqiliang/code/arm-kernel/kernel/time/timer.c:847
	if (IS_ENABLED(CONFIG_NO_HZ_COMMON) && (tflags & TIMER_DEFERRABLE))
 38c:	3500045b 	cbnz	w27, 414 <schedule_timeout+0x39c>
/data3/home/yuanqiliang/code/arm-kernel/kernel/time/timer.c:841
	struct timer_base *base = per_cpu_ptr(&timer_bases[BASE_STD], cpu);
 390:	8b150035 	add	x21, x1, x21
 394:	b94093f6 	ldr	w22, [sp, #144]
 398:	17ffff77 	b	174 <schedule_timeout+0xfc>
__read_once_size():
/data3/home/yuanqiliang/code/arm-kernel/./include/linux/compiler.h:193
 39c:	f9400301 	ldr	x1, [x24]
forward_timer_base():
/data3/home/yuanqiliang/code/arm-kernel/kernel/time/timer.c:896
	if ((long)(jnow - base->clk) < 2)
 3a0:	f9400aa0 	ldr	x0, [x21, #16]
/data3/home/yuanqiliang/code/arm-kernel/kernel/time/timer.c:895
	base->must_forward_clk = base->is_idle;
 3a4:	394092a2 	ldrb	w2, [x21, #36]
 3a8:	390096a2 	strb	w2, [x21, #37]
/data3/home/yuanqiliang/code/arm-kernel/kernel/time/timer.c:896
	if ((long)(jnow - base->clk) < 2)
 3ac:	cb000020 	sub	x0, x1, x0
 3b0:	f100041f 	cmp	x0, #0x1
 3b4:	54fff18d 	b.le	1e4 <schedule_timeout+0x16c>
/data3/home/yuanqiliang/code/arm-kernel/kernel/time/timer.c:903
	if (time_after(base->next_expiry, jnow))
 3b8:	f9400ea0 	ldr	x0, [x21, #24]
 3bc:	eb00003f 	cmp	x1, x0
 3c0:	540003a4 	b.mi	434 <schedule_timeout+0x3bc>  // b.first
/data3/home/yuanqiliang/code/arm-kernel/kernel/time/timer.c:906
		base->clk = base->next_expiry;
 3c4:	f9000aa0 	str	x0, [x21, #16]
 3c8:	b94093f6 	ldr	w22, [sp, #144]
 3cc:	17ffff86 	b	1e4 <schedule_timeout+0x16c>
__read_once_size():
/data3/home/yuanqiliang/code/arm-kernel/./include/linux/compiler.h:193
 3d0:	f9400300 	ldr	x0, [x24]
forward_timer_base():
/data3/home/yuanqiliang/code/arm-kernel/kernel/time/timer.c:896
	if ((long)(jnow - base->clk) < 2)
 3d4:	f9400afa 	ldr	x26, [x23, #16]
/data3/home/yuanqiliang/code/arm-kernel/kernel/time/timer.c:895
	base->must_forward_clk = base->is_idle;
 3d8:	394092e1 	ldrb	w1, [x23, #36]
 3dc:	390096e1 	strb	w1, [x23, #37]
/data3/home/yuanqiliang/code/arm-kernel/kernel/time/timer.c:896
	if ((long)(jnow - base->clk) < 2)
 3e0:	cb1a0001 	sub	x1, x0, x26
 3e4:	f100043f 	cmp	x1, #0x1
 3e8:	54ffe94d 	b.le	110 <schedule_timeout+0x98>
/data3/home/yuanqiliang/code/arm-kernel/kernel/time/timer.c:903
	if (time_after(base->next_expiry, jnow))
 3ec:	f9400efa 	ldr	x26, [x23, #24]
 3f0:	eb1a001f 	cmp	x0, x26
 3f4:	540001a4 	b.mi	428 <schedule_timeout+0x3b0>  // b.first
/data3/home/yuanqiliang/code/arm-kernel/kernel/time/timer.c:906
		base->clk = base->next_expiry;
 3f8:	f9000afa 	str	x26, [x23, #16]
 3fc:	17ffff45 	b	110 <schedule_timeout+0x98>
__mod_timer():
/data3/home/yuanqiliang/code/arm-kernel/kernel/time/timer.c:1029
		if (likely(base->running_timer != timer)) {
 400:	aa1703f5 	mov	x21, x23
 404:	17ffff78 	b	1e4 <schedule_timeout+0x16c>
queued_spin_lock():
/data3/home/yuanqiliang/code/arm-kernel/./include/asm-generic/qspinlock.h:88
	queued_spin_lock_slowpath(lock, val);
 408:	aa1503e0 	mov	x0, x21
 40c:	94000000 	bl	0 <queued_spin_lock_slowpath>
 410:	17ffff6e 	b	1c8 <schedule_timeout+0x150>
get_timer_cpu_base():
/data3/home/yuanqiliang/code/arm-kernel/kernel/time/timer.c:848
		base = per_cpu_ptr(&timer_bases[BASE_DEF], cpu);
 414:	90000000 	adrp	x0, 0 <usleep_range>
 418:	b94093f6 	ldr	w22, [sp, #144]
 41c:	91000000 	add	x0, x0, #0x0
 420:	8b0002b5 	add	x21, x21, x0
 424:	17ffff54 	b	174 <schedule_timeout+0xfc>
forward_timer_base():
/data3/home/yuanqiliang/code/arm-kernel/kernel/time/timer.c:904
		base->clk = jnow;
 428:	aa0003fa 	mov	x26, x0
 42c:	f9000ae0 	str	x0, [x23, #16]
 430:	17ffff38 	b	110 <schedule_timeout+0x98>
 434:	f9000aa1 	str	x1, [x21, #16]
 438:	b94093f6 	ldr	w22, [sp, #144]
 43c:	17ffff6a 	b	1e4 <schedule_timeout+0x16c>
 440:	f9000ae1 	str	x1, [x23, #16]
 444:	17ffff3b 	b	130 <schedule_timeout+0xb8>
schedule_timeout():
/data3/home/yuanqiliang/code/arm-kernel/kernel/time/timer.c:1801
			printk(KERN_ERR "schedule_timeout: wrong timeout "
 448:	aa1303e1 	mov	x1, x19
 44c:	90000000 	adrp	x0, 0 <usleep_range>
 450:	91000000 	add	x0, x0, #0x0
 454:	94000000 	bl	0 <printk>
/data3/home/yuanqiliang/code/arm-kernel/kernel/time/timer.c:1803
			dump_stack();
 458:	94000000 	bl	0 <dump_stack>
/data3/home/yuanqiliang/code/arm-kernel/kernel/time/timer.c:1805
			goto out;
 45c:	d2800000 	mov	x0, #0x0                   	// #0
get_current():
/data3/home/yuanqiliang/code/arm-kernel/./arch/arm64/include/asm/current.h:19
 460:	d5384101 	mrs	x1, sp_el0
schedule_timeout():
/data3/home/yuanqiliang/code/arm-kernel/kernel/time/timer.c:1804
			current->state = TASK_RUNNING;
 464:	f9000c3f 	str	xzr, [x1, #24]
/data3/home/yuanqiliang/code/arm-kernel/kernel/time/timer.c:1805
			goto out;
 468:	17ffff7b 	b	254 <schedule_timeout+0x1dc>
 46c:	d503201f 	nop

0000000000000470 <schedule_timeout_interruptible>:
schedule_timeout_interruptible():
/data3/home/yuanqiliang/code/arm-kernel/kernel/time/timer.c:1832
{
 470:	a9bf7bfd 	stp	x29, x30, [sp, #-16]!
/data3/home/yuanqiliang/code/arm-kernel/kernel/time/timer.c:1833
	__set_current_state(TASK_INTERRUPTIBLE);
 474:	d2800022 	mov	x2, #0x1                   	// #1
get_current():
/data3/home/yuanqiliang/code/arm-kernel/./arch/arm64/include/asm/current.h:19
 478:	d5384101 	mrs	x1, sp_el0
schedule_timeout_interruptible():
/data3/home/yuanqiliang/code/arm-kernel/kernel/time/timer.c:1832
{
 47c:	910003fd 	mov	x29, sp
/data3/home/yuanqiliang/code/arm-kernel/kernel/time/timer.c:1833
	__set_current_state(TASK_INTERRUPTIBLE);
 480:	f9000c22 	str	x2, [x1, #24]
/data3/home/yuanqiliang/code/arm-kernel/kernel/time/timer.c:1834
	return schedule_timeout(timeout);
 484:	94000000 	bl	78 <schedule_timeout>
/data3/home/yuanqiliang/code/arm-kernel/kernel/time/timer.c:1835
}
 488:	a8c17bfd 	ldp	x29, x30, [sp], #16
 48c:	d65f03c0 	ret

0000000000000490 <schedule_timeout_killable>:
schedule_timeout_killable():
/data3/home/yuanqiliang/code/arm-kernel/kernel/time/timer.c:1839
{
 490:	a9bf7bfd 	stp	x29, x30, [sp, #-16]!
/data3/home/yuanqiliang/code/arm-kernel/kernel/time/timer.c:1840
	__set_current_state(TASK_KILLABLE);
 494:	d2802042 	mov	x2, #0x102                 	// #258
get_current():
/data3/home/yuanqiliang/code/arm-kernel/./arch/arm64/include/asm/current.h:19
 498:	d5384101 	mrs	x1, sp_el0
schedule_timeout_killable():
/data3/home/yuanqiliang/code/arm-kernel/kernel/time/timer.c:1839
{
 49c:	910003fd 	mov	x29, sp
/data3/home/yuanqiliang/code/arm-kernel/kernel/time/timer.c:1840
	__set_current_state(TASK_KILLABLE);
 4a0:	f9000c22 	str	x2, [x1, #24]
/data3/home/yuanqiliang/code/arm-kernel/kernel/time/timer.c:1841
	return schedule_timeout(timeout);
 4a4:	94000000 	bl	78 <schedule_timeout>
/data3/home/yuanqiliang/code/arm-kernel/kernel/time/timer.c:1842
}
 4a8:	a8c17bfd 	ldp	x29, x30, [sp], #16
 4ac:	d65f03c0 	ret

00000000000004b0 <schedule_timeout_uninterruptible>:
schedule_timeout_uninterruptible():
/data3/home/yuanqiliang/code/arm-kernel/kernel/time/timer.c:1846
{
 4b0:	a9bf7bfd 	stp	x29, x30, [sp, #-16]!
/data3/home/yuanqiliang/code/arm-kernel/kernel/time/timer.c:1847
	__set_current_state(TASK_UNINTERRUPTIBLE);
 4b4:	d2800042 	mov	x2, #0x2                   	// #2
get_current():
/data3/home/yuanqiliang/code/arm-kernel/./arch/arm64/include/asm/current.h:19
 4b8:	d5384101 	mrs	x1, sp_el0
schedule_timeout_uninterruptible():
/data3/home/yuanqiliang/code/arm-kernel/kernel/time/timer.c:1846
{
 4bc:	910003fd 	mov	x29, sp
/data3/home/yuanqiliang/code/arm-kernel/kernel/time/timer.c:1847
	__set_current_state(TASK_UNINTERRUPTIBLE);
 4c0:	f9000c22 	str	x2, [x1, #24]
/data3/home/yuanqiliang/code/arm-kernel/kernel/time/timer.c:1848
	return schedule_timeout(timeout);
 4c4:	94000000 	bl	78 <schedule_timeout>
/data3/home/yuanqiliang/code/arm-kernel/kernel/time/timer.c:1849
}
 4c8:	a8c17bfd 	ldp	x29, x30, [sp], #16
 4cc:	d65f03c0 	ret

00000000000004d0 <schedule_timeout_idle>:
schedule_timeout_idle():
/data3/home/yuanqiliang/code/arm-kernel/kernel/time/timer.c:1857
{
 4d0:	a9bf7bfd 	stp	x29, x30, [sp, #-16]!
/data3/home/yuanqiliang/code/arm-kernel/kernel/time/timer.c:1858
	__set_current_state(TASK_IDLE);
 4d4:	d2808042 	mov	x2, #0x402                 	// #1026
get_current():
/data3/home/yuanqiliang/code/arm-kernel/./arch/arm64/include/asm/current.h:19
 4d8:	d5384101 	mrs	x1, sp_el0
schedule_timeout_idle():
/data3/home/yuanqiliang/code/arm-kernel/kernel/time/timer.c:1857
{
 4dc:	910003fd 	mov	x29, sp
/data3/home/yuanqiliang/code/arm-kernel/kernel/time/timer.c:1858
	__set_current_state(TASK_IDLE);
 4e0:	f9000c22 	str	x2, [x1, #24]
/data3/home/yuanqiliang/code/arm-kernel/kernel/time/timer.c:1859
	return schedule_timeout(timeout);
 4e4:	94000000 	bl	78 <schedule_timeout>
/data3/home/yuanqiliang/code/arm-kernel/kernel/time/timer.c:1860
}
 4e8:	a8c17bfd 	ldp	x29, x30, [sp], #16
 4ec:	d65f03c0 	ret
