
timer.o：     文件格式 elf64-littleaarch64


Disassembly of section .text:

0000000000000000 <__round_jiffies>:
round_jiffies_common():
/data3/home/yuanqiliang/code/arm-kernel/kernel/time/timer.c:285
	 * 3 jiffies. This 3 jiffies came originally from the mm/ code which
	 * already did this.
	 * The skew is done by adding 3*cpunr, then round, then subtract this
	 * extra offset again.
	 */
	j += cpu * 3;
       0:	0b010421 	add	w1, w1, w1, lsl #1
/data3/home/yuanqiliang/code/arm-kernel/kernel/time/timer.c:308

	/*
	 * Make sure j is still in the future. Otherwise return the
	 * unmodified value.
	 */
	return time_is_after_jiffies(j) ? j : original;
       4:	90000002 	adrp	x2, 0 <jiffies>
/data3/home/yuanqiliang/code/arm-kernel/kernel/time/timer.c:287
	rem = j % HZ;
       8:	d29ef9e6 	mov	x6, #0xf7cf                	// #63439
/data3/home/yuanqiliang/code/arm-kernel/kernel/time/timer.c:285
	j += cpu * 3;
       c:	93407c21 	sxtw	x1, w1
/data3/home/yuanqiliang/code/arm-kernel/kernel/time/timer.c:287
	rem = j % HZ;
      10:	f2bc6a66 	movk	x6, #0xe353, lsl #16
/data3/home/yuanqiliang/code/arm-kernel/kernel/time/timer.c:285
	j += cpu * 3;
      14:	8b010004 	add	x4, x0, x1
/data3/home/yuanqiliang/code/arm-kernel/kernel/time/timer.c:287
	rem = j % HZ;
      18:	f2d374a6 	movk	x6, #0x9ba5, lsl #32
/data3/home/yuanqiliang/code/arm-kernel/kernel/time/timer.c:308
	return time_is_after_jiffies(j) ? j : original;
      1c:	f9400045 	ldr	x5, [x2]
/data3/home/yuanqiliang/code/arm-kernel/kernel/time/timer.c:287
	rem = j % HZ;
      20:	d341fc82 	lsr	x2, x4, #1
      24:	f2e41886 	movk	x6, #0x20c4, lsl #48
/data3/home/yuanqiliang/code/arm-kernel/kernel/time/timer.c:297
		j = j - rem;
      28:	9103e883 	add	x3, x4, #0xfa
/data3/home/yuanqiliang/code/arm-kernel/kernel/time/timer.c:308
	return time_is_after_jiffies(j) ? j : original;
      2c:	8b050025 	add	x5, x1, x5
/data3/home/yuanqiliang/code/arm-kernel/kernel/time/timer.c:287
	rem = j % HZ;
      30:	9bc67c42 	umulh	x2, x2, x6
      34:	d344fc42 	lsr	x2, x2, #4
      38:	d37be846 	lsl	x6, x2, #5
      3c:	cb0200c6 	sub	x6, x6, x2
      40:	8b060842 	add	x2, x2, x6, lsl #2
      44:	cb020482 	sub	x2, x4, x2, lsl #1
/data3/home/yuanqiliang/code/arm-kernel/kernel/time/timer.c:297
		j = j - rem;
      48:	f100f45f 	cmp	x2, #0x3d
      4c:	cb020084 	sub	x4, x4, x2
      50:	cb020062 	sub	x2, x3, x2
      54:	9a848042 	csel	x2, x2, x4, hi  // hi = pmore
/data3/home/yuanqiliang/code/arm-kernel/kernel/time/timer.c:302
	j -= cpu * 3;
      58:	eb0200bf 	cmp	x5, x2
      5c:	cb010042 	sub	x2, x2, x1
__round_jiffies():
/data3/home/yuanqiliang/code/arm-kernel/kernel/time/timer.c:334
 * The return value is the rounded version of the @j parameter.
 */
unsigned long __round_jiffies(unsigned long j, int cpu)
{
	return round_jiffies_common(j, cpu, false);
}
      60:	9a804040 	csel	x0, x2, x0, mi  // mi = first
      64:	d65f03c0 	ret

0000000000000068 <__round_jiffies_relative>:
__round_jiffies_relative():
/data3/home/yuanqiliang/code/arm-kernel/kernel/time/timer.c:359
 *
 * The return value is the rounded version of the @j parameter.
 */
unsigned long __round_jiffies_relative(unsigned long j, int cpu)
{
	unsigned long j0 = jiffies;
      68:	90000003 	adrp	x3, 0 <jiffies>
round_jiffies_common():
/data3/home/yuanqiliang/code/arm-kernel/kernel/time/timer.c:285
	j += cpu * 3;
      6c:	0b010421 	add	w1, w1, w1, lsl #1
/data3/home/yuanqiliang/code/arm-kernel/kernel/time/timer.c:287
	rem = j % HZ;
      70:	d29ef9e6 	mov	x6, #0xf7cf                	// #63439
__round_jiffies_relative():
/data3/home/yuanqiliang/code/arm-kernel/kernel/time/timer.c:359
	unsigned long j0 = jiffies;
      74:	f9400062 	ldr	x2, [x3]
round_jiffies_common():
/data3/home/yuanqiliang/code/arm-kernel/kernel/time/timer.c:285
	j += cpu * 3;
      78:	93407c21 	sxtw	x1, w1
/data3/home/yuanqiliang/code/arm-kernel/kernel/time/timer.c:287
	rem = j % HZ;
      7c:	f2bc6a66 	movk	x6, #0xe353, lsl #16
__round_jiffies_relative():
/data3/home/yuanqiliang/code/arm-kernel/kernel/time/timer.c:362

	/* Use j0 because jiffies might change while we run */
	return round_jiffies_common(j + j0, cpu, false) - j0;
      80:	8b000044 	add	x4, x2, x0
      84:	8b010045 	add	x5, x2, x1
round_jiffies_common():
/data3/home/yuanqiliang/code/arm-kernel/kernel/time/timer.c:285
	j += cpu * 3;
      88:	8b010084 	add	x4, x4, x1
/data3/home/yuanqiliang/code/arm-kernel/kernel/time/timer.c:287
	rem = j % HZ;
      8c:	f2d374a6 	movk	x6, #0x9ba5, lsl #32
      90:	f2e41886 	movk	x6, #0x20c4, lsl #48
      94:	d341fc82 	lsr	x2, x4, #1
/data3/home/yuanqiliang/code/arm-kernel/kernel/time/timer.c:308
	return time_is_after_jiffies(j) ? j : original;
      98:	f9400067 	ldr	x7, [x3]
/data3/home/yuanqiliang/code/arm-kernel/kernel/time/timer.c:297
		j = j - rem;
      9c:	9103e883 	add	x3, x4, #0xfa
/data3/home/yuanqiliang/code/arm-kernel/kernel/time/timer.c:287
	rem = j % HZ;
      a0:	9bc67c42 	umulh	x2, x2, x6
/data3/home/yuanqiliang/code/arm-kernel/kernel/time/timer.c:308
	return time_is_after_jiffies(j) ? j : original;
      a4:	8b070021 	add	x1, x1, x7
/data3/home/yuanqiliang/code/arm-kernel/kernel/time/timer.c:287
	rem = j % HZ;
      a8:	d344fc42 	lsr	x2, x2, #4
      ac:	d37be846 	lsl	x6, x2, #5
      b0:	cb0200c6 	sub	x6, x6, x2
      b4:	8b060842 	add	x2, x2, x6, lsl #2
      b8:	cb020482 	sub	x2, x4, x2, lsl #1
/data3/home/yuanqiliang/code/arm-kernel/kernel/time/timer.c:297
		j = j - rem;
      bc:	f100f45f 	cmp	x2, #0x3d
      c0:	cb020084 	sub	x4, x4, x2
      c4:	cb020062 	sub	x2, x3, x2
      c8:	9a848042 	csel	x2, x2, x4, hi  // hi = pmore
__round_jiffies_relative():
/data3/home/yuanqiliang/code/arm-kernel/kernel/time/timer.c:308
	return time_is_after_jiffies(j) ? j : original;
      cc:	eb02003f 	cmp	x1, x2
      d0:	cb050042 	sub	x2, x2, x5
/data3/home/yuanqiliang/code/arm-kernel/kernel/time/timer.c:363
}
      d4:	9a804040 	csel	x0, x2, x0, mi  // mi = first
      d8:	d65f03c0 	ret
      dc:	d503201f 	nop

00000000000000e0 <round_jiffies>:
__my_cpu_offset():
/data3/home/yuanqiliang/code/arm-kernel/./arch/arm64/include/asm/percpu.h:30

	/*
	 * We want to allow caching the value, so avoid using volatile and
	 * instead use a fake stack read to hazard against barrier().
	 */
	asm(ALTERNATIVE("mrs %0, tpidr_el1",
      e0:	d538d082 	mrs	x2, tpidr_el1
round_jiffies():
/data3/home/yuanqiliang/code/arm-kernel/kernel/time/timer.c:383
 *
 * The return value is the rounded version of the @j parameter.
 */
unsigned long round_jiffies(unsigned long j)
{
	return round_jiffies_common(j, raw_smp_processor_id(), false);
      e4:	90000001 	adrp	x1, 0 <cpu_number>
      e8:	91000021 	add	x1, x1, #0x0
round_jiffies_common():
/data3/home/yuanqiliang/code/arm-kernel/kernel/time/timer.c:285
	j += cpu * 3;
      ec:	b8626823 	ldr	w3, [x1, x2]
/data3/home/yuanqiliang/code/arm-kernel/kernel/time/timer.c:287
	rem = j % HZ;
      f0:	d29ef9e6 	mov	x6, #0xf7cf                	// #63439
/data3/home/yuanqiliang/code/arm-kernel/kernel/time/timer.c:308
	return time_is_after_jiffies(j) ? j : original;
      f4:	90000001 	adrp	x1, 0 <jiffies>
/data3/home/yuanqiliang/code/arm-kernel/kernel/time/timer.c:287
	rem = j % HZ;
      f8:	f2bc6a66 	movk	x6, #0xe353, lsl #16
      fc:	f2d374a6 	movk	x6, #0x9ba5, lsl #32
/data3/home/yuanqiliang/code/arm-kernel/kernel/time/timer.c:285
	j += cpu * 3;
     100:	0b030463 	add	w3, w3, w3, lsl #1
/data3/home/yuanqiliang/code/arm-kernel/kernel/time/timer.c:287
	rem = j % HZ;
     104:	f2e41886 	movk	x6, #0x20c4, lsl #48
/data3/home/yuanqiliang/code/arm-kernel/kernel/time/timer.c:308
	return time_is_after_jiffies(j) ? j : original;
     108:	f9400025 	ldr	x5, [x1]
/data3/home/yuanqiliang/code/arm-kernel/kernel/time/timer.c:285
	j += cpu * 3;
     10c:	93407c63 	sxtw	x3, w3
     110:	8b030004 	add	x4, x0, x3
/data3/home/yuanqiliang/code/arm-kernel/kernel/time/timer.c:297
		j = j - rem;
     114:	9103e882 	add	x2, x4, #0xfa
/data3/home/yuanqiliang/code/arm-kernel/kernel/time/timer.c:308
	return time_is_after_jiffies(j) ? j : original;
     118:	8b050065 	add	x5, x3, x5
/data3/home/yuanqiliang/code/arm-kernel/kernel/time/timer.c:287
	rem = j % HZ;
     11c:	d341fc81 	lsr	x1, x4, #1
     120:	9bc67c21 	umulh	x1, x1, x6
     124:	d344fc21 	lsr	x1, x1, #4
     128:	d37be826 	lsl	x6, x1, #5
     12c:	cb0100c6 	sub	x6, x6, x1
     130:	8b060821 	add	x1, x1, x6, lsl #2
     134:	cb010481 	sub	x1, x4, x1, lsl #1
/data3/home/yuanqiliang/code/arm-kernel/kernel/time/timer.c:297
		j = j - rem;
     138:	f100f43f 	cmp	x1, #0x3d
     13c:	cb010084 	sub	x4, x4, x1
     140:	cb010041 	sub	x1, x2, x1
     144:	9a848021 	csel	x1, x1, x4, hi  // hi = pmore
/data3/home/yuanqiliang/code/arm-kernel/kernel/time/timer.c:302
	j -= cpu * 3;
     148:	eb0100bf 	cmp	x5, x1
     14c:	cb030021 	sub	x1, x1, x3
round_jiffies():
/data3/home/yuanqiliang/code/arm-kernel/kernel/time/timer.c:384
}
     150:	9a804020 	csel	x0, x1, x0, mi  // mi = first
     154:	d65f03c0 	ret

0000000000000158 <round_jiffies_relative>:
__round_jiffies_relative():
/data3/home/yuanqiliang/code/arm-kernel/kernel/time/timer.c:359
	unsigned long j0 = jiffies;
     158:	90000003 	adrp	x3, 0 <jiffies>
round_jiffies_relative():
/data3/home/yuanqiliang/code/arm-kernel/kernel/time/timer.c:404
 *
 * The return value is the rounded version of the @j parameter.
 */
unsigned long round_jiffies_relative(unsigned long j)
{
	return __round_jiffies_relative(j, raw_smp_processor_id());
     15c:	90000001 	adrp	x1, 0 <cpu_number>
__my_cpu_offset():
/data3/home/yuanqiliang/code/arm-kernel/./arch/arm64/include/asm/percpu.h:30
     160:	d538d082 	mrs	x2, tpidr_el1
round_jiffies_relative():
/data3/home/yuanqiliang/code/arm-kernel/kernel/time/timer.c:404
     164:	91000021 	add	x1, x1, #0x0
round_jiffies_common():
/data3/home/yuanqiliang/code/arm-kernel/kernel/time/timer.c:287
	rem = j % HZ;
     168:	d29ef9e6 	mov	x6, #0xf7cf                	// #63439
/data3/home/yuanqiliang/code/arm-kernel/kernel/time/timer.c:285
	j += cpu * 3;
     16c:	b8626822 	ldr	w2, [x1, x2]
/data3/home/yuanqiliang/code/arm-kernel/kernel/time/timer.c:287
	rem = j % HZ;
     170:	f2bc6a66 	movk	x6, #0xe353, lsl #16
__round_jiffies_relative():
/data3/home/yuanqiliang/code/arm-kernel/kernel/time/timer.c:359
	unsigned long j0 = jiffies;
     174:	f9400061 	ldr	x1, [x3]
round_jiffies_common():
/data3/home/yuanqiliang/code/arm-kernel/kernel/time/timer.c:287
	rem = j % HZ;
     178:	f2d374a6 	movk	x6, #0x9ba5, lsl #32
/data3/home/yuanqiliang/code/arm-kernel/kernel/time/timer.c:285
	j += cpu * 3;
     17c:	0b020442 	add	w2, w2, w2, lsl #1
/data3/home/yuanqiliang/code/arm-kernel/kernel/time/timer.c:287
	rem = j % HZ;
     180:	f2e41886 	movk	x6, #0x20c4, lsl #48
__round_jiffies_relative():
/data3/home/yuanqiliang/code/arm-kernel/kernel/time/timer.c:362
	return round_jiffies_common(j + j0, cpu, false) - j0;
     184:	8b010004 	add	x4, x0, x1
round_jiffies_common():
/data3/home/yuanqiliang/code/arm-kernel/kernel/time/timer.c:285
	j += cpu * 3;
     188:	93407c42 	sxtw	x2, w2
     18c:	8b020084 	add	x4, x4, x2
/data3/home/yuanqiliang/code/arm-kernel/kernel/time/timer.c:287
	rem = j % HZ;
     190:	8b020025 	add	x5, x1, x2
/data3/home/yuanqiliang/code/arm-kernel/kernel/time/timer.c:308
	return time_is_after_jiffies(j) ? j : original;
     194:	f9400067 	ldr	x7, [x3]
/data3/home/yuanqiliang/code/arm-kernel/kernel/time/timer.c:287
	rem = j % HZ;
     198:	d341fc81 	lsr	x1, x4, #1
/data3/home/yuanqiliang/code/arm-kernel/kernel/time/timer.c:297
		j = j - rem;
     19c:	9103e883 	add	x3, x4, #0xfa
/data3/home/yuanqiliang/code/arm-kernel/kernel/time/timer.c:308
	return time_is_after_jiffies(j) ? j : original;
     1a0:	8b070042 	add	x2, x2, x7
/data3/home/yuanqiliang/code/arm-kernel/kernel/time/timer.c:287
	rem = j % HZ;
     1a4:	9bc67c21 	umulh	x1, x1, x6
     1a8:	d344fc21 	lsr	x1, x1, #4
     1ac:	d37be826 	lsl	x6, x1, #5
     1b0:	cb0100c6 	sub	x6, x6, x1
     1b4:	8b060821 	add	x1, x1, x6, lsl #2
     1b8:	cb010481 	sub	x1, x4, x1, lsl #1
/data3/home/yuanqiliang/code/arm-kernel/kernel/time/timer.c:297
		j = j - rem;
     1bc:	f100f43f 	cmp	x1, #0x3d
     1c0:	cb010084 	sub	x4, x4, x1
     1c4:	cb010061 	sub	x1, x3, x1
     1c8:	9a848021 	csel	x1, x1, x4, hi  // hi = pmore
round_jiffies_relative():
/data3/home/yuanqiliang/code/arm-kernel/kernel/time/timer.c:308
	return time_is_after_jiffies(j) ? j : original;
     1cc:	eb01005f 	cmp	x2, x1
     1d0:	cb050021 	sub	x1, x1, x5
/data3/home/yuanqiliang/code/arm-kernel/kernel/time/timer.c:405
}
     1d4:	9a804020 	csel	x0, x1, x0, mi  // mi = first
     1d8:	d65f03c0 	ret
     1dc:	d503201f 	nop

00000000000001e0 <__round_jiffies_up>:
round_jiffies_common():
/data3/home/yuanqiliang/code/arm-kernel/kernel/time/timer.c:285
	j += cpu * 3;
     1e0:	0b010421 	add	w1, w1, w1, lsl #1
/data3/home/yuanqiliang/code/arm-kernel/kernel/time/timer.c:308
	return time_is_after_jiffies(j) ? j : original;
     1e4:	90000002 	adrp	x2, 0 <jiffies>
/data3/home/yuanqiliang/code/arm-kernel/kernel/time/timer.c:287
	rem = j % HZ;
     1e8:	d29ef9e6 	mov	x6, #0xf7cf                	// #63439
/data3/home/yuanqiliang/code/arm-kernel/kernel/time/timer.c:285
	j += cpu * 3;
     1ec:	93407c21 	sxtw	x1, w1
/data3/home/yuanqiliang/code/arm-kernel/kernel/time/timer.c:287
	rem = j % HZ;
     1f0:	f2bc6a66 	movk	x6, #0xe353, lsl #16
/data3/home/yuanqiliang/code/arm-kernel/kernel/time/timer.c:285
	j += cpu * 3;
     1f4:	8b010005 	add	x5, x0, x1
/data3/home/yuanqiliang/code/arm-kernel/kernel/time/timer.c:287
	rem = j % HZ;
     1f8:	f2d374a6 	movk	x6, #0x9ba5, lsl #32
/data3/home/yuanqiliang/code/arm-kernel/kernel/time/timer.c:308
	return time_is_after_jiffies(j) ? j : original;
     1fc:	f9400047 	ldr	x7, [x2]
/data3/home/yuanqiliang/code/arm-kernel/kernel/time/timer.c:287
	rem = j % HZ;
     200:	d341fca2 	lsr	x2, x5, #1
     204:	f2e41886 	movk	x6, #0x20c4, lsl #48
     208:	9103e8a3 	add	x3, x5, #0xfa
/data3/home/yuanqiliang/code/arm-kernel/kernel/time/timer.c:302
	j -= cpu * 3;
     20c:	cb010064 	sub	x4, x3, x1
/data3/home/yuanqiliang/code/arm-kernel/kernel/time/timer.c:308
	return time_is_after_jiffies(j) ? j : original;
     210:	8b070021 	add	x1, x1, x7
/data3/home/yuanqiliang/code/arm-kernel/kernel/time/timer.c:287
	rem = j % HZ;
     214:	9bc67c42 	umulh	x2, x2, x6
     218:	d344fc42 	lsr	x2, x2, #4
     21c:	d37be846 	lsl	x6, x2, #5
     220:	cb0200c6 	sub	x6, x6, x2
     224:	8b060842 	add	x2, x2, x6, lsl #2
     228:	cb0204a2 	sub	x2, x5, x2, lsl #1
/data3/home/yuanqiliang/code/arm-kernel/kernel/time/timer.c:308
	return time_is_after_jiffies(j) ? j : original;
     22c:	cb030043 	sub	x3, x2, x3
/data3/home/yuanqiliang/code/arm-kernel/kernel/time/timer.c:302
	j -= cpu * 3;
     230:	cb020082 	sub	x2, x4, x2
     234:	ab03003f 	cmn	x1, x3
__round_jiffies_up():
/data3/home/yuanqiliang/code/arm-kernel/kernel/time/timer.c:421
 * early.
 */
unsigned long __round_jiffies_up(unsigned long j, int cpu)
{
	return round_jiffies_common(j, cpu, true);
}
     238:	9a804040 	csel	x0, x2, x0, mi  // mi = first
     23c:	d65f03c0 	ret

0000000000000240 <__round_jiffies_up_relative>:
__round_jiffies_up_relative():
/data3/home/yuanqiliang/code/arm-kernel/kernel/time/timer.c:436
 * of firing does not matter too much, as long as they don't fire too
 * early.
 */
unsigned long __round_jiffies_up_relative(unsigned long j, int cpu)
{
	unsigned long j0 = jiffies;
     240:	90000004 	adrp	x4, 0 <jiffies>
round_jiffies_common():
/data3/home/yuanqiliang/code/arm-kernel/kernel/time/timer.c:285
	j += cpu * 3;
     244:	0b010421 	add	w1, w1, w1, lsl #1
/data3/home/yuanqiliang/code/arm-kernel/kernel/time/timer.c:287
	rem = j % HZ;
     248:	d29ef9e6 	mov	x6, #0xf7cf                	// #63439
__round_jiffies_up_relative():
/data3/home/yuanqiliang/code/arm-kernel/kernel/time/timer.c:436
	unsigned long j0 = jiffies;
     24c:	f9400083 	ldr	x3, [x4]
round_jiffies_common():
/data3/home/yuanqiliang/code/arm-kernel/kernel/time/timer.c:285
	j += cpu * 3;
     250:	93407c21 	sxtw	x1, w1
/data3/home/yuanqiliang/code/arm-kernel/kernel/time/timer.c:308
	return time_is_after_jiffies(j) ? j : original;
     254:	f9400082 	ldr	x2, [x4]
__round_jiffies_up_relative():
/data3/home/yuanqiliang/code/arm-kernel/kernel/time/timer.c:439

	/* Use j0 because jiffies might change while we run */
	return round_jiffies_common(j + j0, cpu, true) - j0;
     258:	8b000064 	add	x4, x3, x0
round_jiffies_common():
/data3/home/yuanqiliang/code/arm-kernel/kernel/time/timer.c:285
	j += cpu * 3;
     25c:	8b010084 	add	x4, x4, x1
/data3/home/yuanqiliang/code/arm-kernel/kernel/time/timer.c:287
	rem = j % HZ;
     260:	f2bc6a66 	movk	x6, #0xe353, lsl #16
     264:	8b010065 	add	x5, x3, x1
     268:	f2d374a6 	movk	x6, #0x9ba5, lsl #32
/data3/home/yuanqiliang/code/arm-kernel/kernel/time/timer.c:308
	return time_is_after_jiffies(j) ? j : original;
     26c:	8b020021 	add	x1, x1, x2
/data3/home/yuanqiliang/code/arm-kernel/kernel/time/timer.c:287
	rem = j % HZ;
     270:	d341fc82 	lsr	x2, x4, #1
     274:	f2e41886 	movk	x6, #0x20c4, lsl #48
     278:	9103e883 	add	x3, x4, #0xfa
     27c:	9bc67c42 	umulh	x2, x2, x6
     280:	d344fc42 	lsr	x2, x2, #4
     284:	d37be846 	lsl	x6, x2, #5
     288:	cb0200c6 	sub	x6, x6, x2
     28c:	8b060842 	add	x2, x2, x6, lsl #2
     290:	cb020482 	sub	x2, x4, x2, lsl #1
/data3/home/yuanqiliang/code/arm-kernel/kernel/time/timer.c:308
	return time_is_after_jiffies(j) ? j : original;
     294:	cb030044 	sub	x4, x2, x3
     298:	cb020062 	sub	x2, x3, x2
     29c:	ab04003f 	cmn	x1, x4
     2a0:	cb050042 	sub	x2, x2, x5
__round_jiffies_up_relative():
/data3/home/yuanqiliang/code/arm-kernel/kernel/time/timer.c:440
}
     2a4:	9a804040 	csel	x0, x2, x0, mi  // mi = first
     2a8:	d65f03c0 	ret
     2ac:	d503201f 	nop

00000000000002b0 <round_jiffies_up>:
__my_cpu_offset():
/data3/home/yuanqiliang/code/arm-kernel/./arch/arm64/include/asm/percpu.h:30
     2b0:	d538d082 	mrs	x2, tpidr_el1
round_jiffies_up():
/data3/home/yuanqiliang/code/arm-kernel/kernel/time/timer.c:454
 * of firing does not matter too much, as long as they don't fire too
 * early.
 */
unsigned long round_jiffies_up(unsigned long j)
{
	return round_jiffies_common(j, raw_smp_processor_id(), true);
     2b4:	90000001 	adrp	x1, 0 <cpu_number>
     2b8:	91000021 	add	x1, x1, #0x0
round_jiffies_common():
/data3/home/yuanqiliang/code/arm-kernel/kernel/time/timer.c:285
	j += cpu * 3;
     2bc:	b8626821 	ldr	w1, [x1, x2]
/data3/home/yuanqiliang/code/arm-kernel/kernel/time/timer.c:287
	rem = j % HZ;
     2c0:	d29ef9e6 	mov	x6, #0xf7cf                	// #63439
/data3/home/yuanqiliang/code/arm-kernel/kernel/time/timer.c:308
	return time_is_after_jiffies(j) ? j : original;
     2c4:	90000002 	adrp	x2, 0 <jiffies>
/data3/home/yuanqiliang/code/arm-kernel/kernel/time/timer.c:287
	rem = j % HZ;
     2c8:	f2bc6a66 	movk	x6, #0xe353, lsl #16
     2cc:	f2d374a6 	movk	x6, #0x9ba5, lsl #32
/data3/home/yuanqiliang/code/arm-kernel/kernel/time/timer.c:285
	j += cpu * 3;
     2d0:	0b010421 	add	w1, w1, w1, lsl #1
/data3/home/yuanqiliang/code/arm-kernel/kernel/time/timer.c:287
	rem = j % HZ;
     2d4:	f2e41886 	movk	x6, #0x20c4, lsl #48
/data3/home/yuanqiliang/code/arm-kernel/kernel/time/timer.c:308
	return time_is_after_jiffies(j) ? j : original;
     2d8:	f9400044 	ldr	x4, [x2]
/data3/home/yuanqiliang/code/arm-kernel/kernel/time/timer.c:285
	j += cpu * 3;
     2dc:	93407c21 	sxtw	x1, w1
     2e0:	8b010005 	add	x5, x0, x1
/data3/home/yuanqiliang/code/arm-kernel/kernel/time/timer.c:287
	rem = j % HZ;
     2e4:	9103e8a3 	add	x3, x5, #0xfa
/data3/home/yuanqiliang/code/arm-kernel/kernel/time/timer.c:308
	return time_is_after_jiffies(j) ? j : original;
     2e8:	8b040024 	add	x4, x1, x4
/data3/home/yuanqiliang/code/arm-kernel/kernel/time/timer.c:287
	rem = j % HZ;
     2ec:	d341fca2 	lsr	x2, x5, #1
/data3/home/yuanqiliang/code/arm-kernel/kernel/time/timer.c:302
	j -= cpu * 3;
     2f0:	cb010061 	sub	x1, x3, x1
/data3/home/yuanqiliang/code/arm-kernel/kernel/time/timer.c:287
	rem = j % HZ;
     2f4:	9bc67c42 	umulh	x2, x2, x6
     2f8:	d344fc42 	lsr	x2, x2, #4
     2fc:	d37be846 	lsl	x6, x2, #5
     300:	cb0200c6 	sub	x6, x6, x2
     304:	8b060842 	add	x2, x2, x6, lsl #2
     308:	cb0204a2 	sub	x2, x5, x2, lsl #1
/data3/home/yuanqiliang/code/arm-kernel/kernel/time/timer.c:308
	return time_is_after_jiffies(j) ? j : original;
     30c:	cb030043 	sub	x3, x2, x3
/data3/home/yuanqiliang/code/arm-kernel/kernel/time/timer.c:302
	j -= cpu * 3;
     310:	cb020021 	sub	x1, x1, x2
     314:	ab03009f 	cmn	x4, x3
round_jiffies_up():
/data3/home/yuanqiliang/code/arm-kernel/kernel/time/timer.c:455
}
     318:	9a804020 	csel	x0, x1, x0, mi  // mi = first
     31c:	d65f03c0 	ret

0000000000000320 <round_jiffies_up_relative>:
__round_jiffies_up_relative():
/data3/home/yuanqiliang/code/arm-kernel/kernel/time/timer.c:436
	unsigned long j0 = jiffies;
     320:	90000005 	adrp	x5, 0 <jiffies>
round_jiffies_up_relative():
/data3/home/yuanqiliang/code/arm-kernel/kernel/time/timer.c:469
 * of firing does not matter too much, as long as they don't fire too
 * early.
 */
unsigned long round_jiffies_up_relative(unsigned long j)
{
	return __round_jiffies_up_relative(j, raw_smp_processor_id());
     324:	90000001 	adrp	x1, 0 <cpu_number>
__my_cpu_offset():
/data3/home/yuanqiliang/code/arm-kernel/./arch/arm64/include/asm/percpu.h:30
     328:	d538d082 	mrs	x2, tpidr_el1
round_jiffies_up_relative():
/data3/home/yuanqiliang/code/arm-kernel/kernel/time/timer.c:469
     32c:	91000021 	add	x1, x1, #0x0
round_jiffies_common():
/data3/home/yuanqiliang/code/arm-kernel/kernel/time/timer.c:287
	rem = j % HZ;
     330:	d29ef9e7 	mov	x7, #0xf7cf                	// #63439
/data3/home/yuanqiliang/code/arm-kernel/kernel/time/timer.c:285
	j += cpu * 3;
     334:	b8626822 	ldr	w2, [x1, x2]
/data3/home/yuanqiliang/code/arm-kernel/kernel/time/timer.c:287
	rem = j % HZ;
     338:	f2bc6a67 	movk	x7, #0xe353, lsl #16
__round_jiffies_up_relative():
/data3/home/yuanqiliang/code/arm-kernel/kernel/time/timer.c:436
	unsigned long j0 = jiffies;
     33c:	f94000a4 	ldr	x4, [x5]
round_jiffies_common():
/data3/home/yuanqiliang/code/arm-kernel/kernel/time/timer.c:287
	rem = j % HZ;
     340:	f2d374a7 	movk	x7, #0x9ba5, lsl #32
/data3/home/yuanqiliang/code/arm-kernel/kernel/time/timer.c:285
	j += cpu * 3;
     344:	0b020442 	add	w2, w2, w2, lsl #1
/data3/home/yuanqiliang/code/arm-kernel/kernel/time/timer.c:287
	rem = j % HZ;
     348:	f2e41887 	movk	x7, #0x20c4, lsl #48
__round_jiffies_up_relative():
/data3/home/yuanqiliang/code/arm-kernel/kernel/time/timer.c:439
	return round_jiffies_common(j + j0, cpu, true) - j0;
     34c:	8b040003 	add	x3, x0, x4
round_jiffies_common():
/data3/home/yuanqiliang/code/arm-kernel/kernel/time/timer.c:285
	j += cpu * 3;
     350:	93407c42 	sxtw	x2, w2
     354:	8b020063 	add	x3, x3, x2
/data3/home/yuanqiliang/code/arm-kernel/kernel/time/timer.c:287
	rem = j % HZ;
     358:	8b020084 	add	x4, x4, x2
/data3/home/yuanqiliang/code/arm-kernel/kernel/time/timer.c:308
	return time_is_after_jiffies(j) ? j : original;
     35c:	f94000a5 	ldr	x5, [x5]
/data3/home/yuanqiliang/code/arm-kernel/kernel/time/timer.c:287
	rem = j % HZ;
     360:	d341fc61 	lsr	x1, x3, #1
     364:	9103e866 	add	x6, x3, #0xfa
/data3/home/yuanqiliang/code/arm-kernel/kernel/time/timer.c:308
	return time_is_after_jiffies(j) ? j : original;
     368:	8b050042 	add	x2, x2, x5
/data3/home/yuanqiliang/code/arm-kernel/kernel/time/timer.c:287
	rem = j % HZ;
     36c:	9bc77c21 	umulh	x1, x1, x7
     370:	d344fc21 	lsr	x1, x1, #4
     374:	d37be825 	lsl	x5, x1, #5
     378:	cb0100a5 	sub	x5, x5, x1
     37c:	8b050821 	add	x1, x1, x5, lsl #2
     380:	cb010461 	sub	x1, x3, x1, lsl #1
round_jiffies_up_relative():
/data3/home/yuanqiliang/code/arm-kernel/kernel/time/timer.c:308
	return time_is_after_jiffies(j) ? j : original;
     384:	cb0100c3 	sub	x3, x6, x1
round_jiffies_common():
/data3/home/yuanqiliang/code/arm-kernel/kernel/time/timer.c:308
     388:	cb060021 	sub	x1, x1, x6
     38c:	cb040064 	sub	x4, x3, x4
     390:	ab01005f 	cmn	x2, x1
round_jiffies_up_relative():
/data3/home/yuanqiliang/code/arm-kernel/kernel/time/timer.c:470
}
     394:	9a804080 	csel	x0, x4, x0, mi  // mi = first
     398:	d65f03c0 	ret
     39c:	d503201f 	nop

00000000000003a0 <calc_wheel_index>:
calc_wheel_index():
/data3/home/yuanqiliang/code/arm-kernel/kernel/time/timer.c:497
	return LVL_OFFS(lvl) + (expires & LVL_MASK);
}

static int calc_wheel_index(unsigned long expires, unsigned long clk)
{
	unsigned long delta = expires - clk;
     3a0:	cb010002 	sub	x2, x0, x1
/data3/home/yuanqiliang/code/arm-kernel/kernel/time/timer.c:500
	unsigned int idx;

	if (delta < LVL_START(1)) {
     3a4:	f100f85f 	cmp	x2, #0x3e
     3a8:	54000088 	b.hi	3b8 <calc_wheel_index+0x18>  // b.pmore
calc_index():
/data3/home/yuanqiliang/code/arm-kernel/kernel/time/timer.c:491
	expires = (expires + LVL_GRAN(lvl)) >> LVL_SHIFT(lvl);
     3ac:	11000400 	add	w0, w0, #0x1
/data3/home/yuanqiliang/code/arm-kernel/kernel/time/timer.c:492
	return LVL_OFFS(lvl) + (expires & LVL_MASK);
     3b0:	12001400 	and	w0, w0, #0x3f
calc_wheel_index():
/data3/home/yuanqiliang/code/arm-kernel/kernel/time/timer.c:529
			expires = WHEEL_TIMEOUT_MAX;

		idx = calc_index(expires, LVL_DEPTH - 1);
	}
	return idx;
}
     3b4:	d65f03c0 	ret
/data3/home/yuanqiliang/code/arm-kernel/kernel/time/timer.c:502
	} else if (delta < LVL_START(2)) {
     3b8:	f107dc5f 	cmp	x2, #0x1f7
     3bc:	540000c8 	b.hi	3d4 <calc_wheel_index+0x34>  // b.pmore
calc_index():
/data3/home/yuanqiliang/code/arm-kernel/kernel/time/timer.c:491
	expires = (expires + LVL_GRAN(lvl)) >> LVL_SHIFT(lvl);
     3c0:	92407c00 	and	x0, x0, #0xffffffff
     3c4:	91002000 	add	x0, x0, #0x8
/data3/home/yuanqiliang/code/arm-kernel/kernel/time/timer.c:492
	return LVL_OFFS(lvl) + (expires & LVL_MASK);
     3c8:	53032000 	ubfx	w0, w0, #3, #6
     3cc:	11010000 	add	w0, w0, #0x40
calc_wheel_index():
/data3/home/yuanqiliang/code/arm-kernel/kernel/time/timer.c:529
}
     3d0:	d65f03c0 	ret
/data3/home/yuanqiliang/code/arm-kernel/kernel/time/timer.c:504
	} else if (delta < LVL_START(3)) {
     3d4:	f13efc5f 	cmp	x2, #0xfbf
     3d8:	54000129 	b.ls	3fc <calc_wheel_index+0x5c>  // b.plast
/data3/home/yuanqiliang/code/arm-kernel/kernel/time/timer.c:506
	} else if (delta < LVL_START(4)) {
     3dc:	d28fbfe3 	mov	x3, #0x7dff                	// #32255
     3e0:	eb03005f 	cmp	x2, x3
     3e4:	54000168 	b.hi	410 <calc_wheel_index+0x70>  // b.pmore
calc_index():
/data3/home/yuanqiliang/code/arm-kernel/kernel/time/timer.c:491
	expires = (expires + LVL_GRAN(lvl)) >> LVL_SHIFT(lvl);
     3e8:	92407c00 	and	x0, x0, #0xffffffff
     3ec:	91080000 	add	x0, x0, #0x200
/data3/home/yuanqiliang/code/arm-kernel/kernel/time/timer.c:492
	return LVL_OFFS(lvl) + (expires & LVL_MASK);
     3f0:	53093800 	ubfx	w0, w0, #9, #6
     3f4:	11030000 	add	w0, w0, #0xc0
calc_wheel_index():
/data3/home/yuanqiliang/code/arm-kernel/kernel/time/timer.c:529
}
     3f8:	d65f03c0 	ret
calc_index():
/data3/home/yuanqiliang/code/arm-kernel/kernel/time/timer.c:491
	expires = (expires + LVL_GRAN(lvl)) >> LVL_SHIFT(lvl);
     3fc:	92407c00 	and	x0, x0, #0xffffffff
     400:	91010000 	add	x0, x0, #0x40
/data3/home/yuanqiliang/code/arm-kernel/kernel/time/timer.c:492
	return LVL_OFFS(lvl) + (expires & LVL_MASK);
     404:	53062c00 	ubfx	w0, w0, #6, #6
     408:	11020000 	add	w0, w0, #0x80
calc_wheel_index():
/data3/home/yuanqiliang/code/arm-kernel/kernel/time/timer.c:529
}
     40c:	d65f03c0 	ret
/data3/home/yuanqiliang/code/arm-kernel/kernel/time/timer.c:508
	} else if (delta < LVL_START(5)) {
     410:	d29dffe3 	mov	x3, #0xefff                	// #61439
     414:	f2a00063 	movk	x3, #0x3, lsl #16
     418:	eb03005f 	cmp	x2, x3
     41c:	54000149 	b.ls	444 <calc_wheel_index+0xa4>  // b.plast
/data3/home/yuanqiliang/code/arm-kernel/kernel/time/timer.c:510
	} else if (delta < LVL_START(6)) {
     420:	d28fffe3 	mov	x3, #0x7fff                	// #32767
     424:	f2a003e3 	movk	x3, #0x1f, lsl #16
     428:	eb03005f 	cmp	x2, x3
     42c:	54000168 	b.hi	458 <calc_wheel_index+0xb8>  // b.pmore
calc_index():
/data3/home/yuanqiliang/code/arm-kernel/kernel/time/timer.c:491
	expires = (expires + LVL_GRAN(lvl)) >> LVL_SHIFT(lvl);
     430:	92407c00 	and	x0, x0, #0xffffffff
     434:	91402000 	add	x0, x0, #0x8, lsl #12
/data3/home/yuanqiliang/code/arm-kernel/kernel/time/timer.c:492
	return LVL_OFFS(lvl) + (expires & LVL_MASK);
     438:	530f5000 	ubfx	w0, w0, #15, #6
     43c:	11050000 	add	w0, w0, #0x140
calc_wheel_index():
/data3/home/yuanqiliang/code/arm-kernel/kernel/time/timer.c:529
}
     440:	d65f03c0 	ret
calc_index():
/data3/home/yuanqiliang/code/arm-kernel/kernel/time/timer.c:491
	expires = (expires + LVL_GRAN(lvl)) >> LVL_SHIFT(lvl);
     444:	92407c00 	and	x0, x0, #0xffffffff
     448:	91400400 	add	x0, x0, #0x1, lsl #12
/data3/home/yuanqiliang/code/arm-kernel/kernel/time/timer.c:492
	return LVL_OFFS(lvl) + (expires & LVL_MASK);
     44c:	530c4400 	ubfx	w0, w0, #12, #6
     450:	11040000 	add	w0, w0, #0x100
calc_wheel_index():
/data3/home/yuanqiliang/code/arm-kernel/kernel/time/timer.c:529
}
     454:	d65f03c0 	ret
/data3/home/yuanqiliang/code/arm-kernel/kernel/time/timer.c:512
	} else if (delta < LVL_START(7)) {
     458:	12bfe083 	mov	w3, #0xfbffff              	// #16515071
     45c:	eb03005f 	cmp	x2, x3
     460:	540000c8 	b.hi	478 <calc_wheel_index+0xd8>  // b.pmore
calc_index():
/data3/home/yuanqiliang/code/arm-kernel/kernel/time/timer.c:491
	expires = (expires + LVL_GRAN(lvl)) >> LVL_SHIFT(lvl);
     464:	92407c00 	and	x0, x0, #0xffffffff
     468:	91410000 	add	x0, x0, #0x40, lsl #12
/data3/home/yuanqiliang/code/arm-kernel/kernel/time/timer.c:492
	return LVL_OFFS(lvl) + (expires & LVL_MASK);
     46c:	53125c00 	ubfx	w0, w0, #18, #6
     470:	11060000 	add	w0, w0, #0x180
calc_wheel_index():
/data3/home/yuanqiliang/code/arm-kernel/kernel/time/timer.c:529
}
     474:	d65f03c0 	ret
/data3/home/yuanqiliang/code/arm-kernel/kernel/time/timer.c:514
	} else if (LVL_DEPTH > 8 && delta < LVL_START(8)) {
     478:	12bf0403 	mov	w3, #0x7dfffff             	// #132120575
     47c:	eb03005f 	cmp	x2, x3
     480:	540000c8 	b.hi	498 <calc_wheel_index+0xf8>  // b.pmore
calc_index():
/data3/home/yuanqiliang/code/arm-kernel/kernel/time/timer.c:491
	expires = (expires + LVL_GRAN(lvl)) >> LVL_SHIFT(lvl);
     484:	92407c00 	and	x0, x0, #0xffffffff
     488:	91480000 	add	x0, x0, #0x200, lsl #12
/data3/home/yuanqiliang/code/arm-kernel/kernel/time/timer.c:492
	return LVL_OFFS(lvl) + (expires & LVL_MASK);
     48c:	53156800 	ubfx	w0, w0, #21, #6
     490:	11070000 	add	w0, w0, #0x1c0
calc_wheel_index():
/data3/home/yuanqiliang/code/arm-kernel/kernel/time/timer.c:529
}
     494:	d65f03c0 	ret
/data3/home/yuanqiliang/code/arm-kernel/kernel/time/timer.c:516
	} else if ((long) delta < 0) {
     498:	b7f80142 	tbnz	x2, #63, 4c0 <calc_wheel_index+0x120>
/data3/home/yuanqiliang/code/arm-kernel/kernel/time/timer.c:523
		if (expires >= WHEEL_TIMEOUT_CUTOFF)
     49c:	d2a02001 	mov	x1, #0x1000000             	// #16777216
     4a0:	8b010001 	add	x1, x0, x1
     4a4:	12b82002 	mov	w2, #0x3effffff            	// #1056964607
     4a8:	eb02001f 	cmp	x0, x2
     4ac:	d358fc21 	lsr	x1, x1, #24
     4b0:	528047e0 	mov	w0, #0x23f                 	// #575
     4b4:	11080021 	add	w1, w1, #0x200
     4b8:	1a809020 	csel	w0, w1, w0, ls  // ls = plast
/data3/home/yuanqiliang/code/arm-kernel/kernel/time/timer.c:529
}
     4bc:	d65f03c0 	ret
/data3/home/yuanqiliang/code/arm-kernel/kernel/time/timer.c:517
		idx = clk & LVL_MASK;
     4c0:	12001420 	and	w0, w1, #0x3f
/data3/home/yuanqiliang/code/arm-kernel/kernel/time/timer.c:529
}
     4c4:	d65f03c0 	ret

00000000000004c8 <enqueue_timer>:
enqueue_timer():
/data3/home/yuanqiliang/code/arm-kernel/kernel/time/timer.c:538
 * the bitmap and store the index in the timer flags.
 */
static void enqueue_timer(struct timer_base *base, struct timer_list *timer,
			  unsigned int idx)
{
	hlist_add_head(&timer->entry, base->vectors + idx);
     4c8:	9101c004 	add	x4, x0, #0x70
     4cc:	2a0203e5 	mov	w5, w2
     4d0:	8b050c86 	add	x6, x4, x5, lsl #3
hlist_add_head():
/data3/home/yuanqiliang/code/arm-kernel/./include/linux/list.h:701
	}
}

static inline void hlist_add_head(struct hlist_node *n, struct hlist_head *h)
{
	struct hlist_node *first = h->first;
     4d4:	f8657883 	ldr	x3, [x4, x5, lsl #3]
/data3/home/yuanqiliang/code/arm-kernel/./include/linux/list.h:702
	n->next = first;
     4d8:	f9000023 	str	x3, [x1]
/data3/home/yuanqiliang/code/arm-kernel/./include/linux/list.h:703
	if (first)
     4dc:	b4000043 	cbz	x3, 4e4 <enqueue_timer+0x1c>
/data3/home/yuanqiliang/code/arm-kernel/./include/linux/list.h:704
		first->pprev = &n->next;
     4e0:	f9000461 	str	x1, [x3, #8]
__set_bit():
/data3/home/yuanqiliang/code/arm-kernel/./include/asm-generic/bitops/non-atomic.h:19
 * may be that only one operation succeeds.
 */
static inline void __set_bit(int nr, volatile unsigned long *addr)
{
	unsigned long mask = BIT_MASK(nr);
	unsigned long *p = ((unsigned long *)addr) + BIT_WORD(nr);
     4e4:	7100005f 	cmp	w2, #0x0
     4e8:	1100fc43 	add	w3, w2, #0x3f
     4ec:	1a82b063 	csel	w3, w3, w2, lt  // lt = tstop
__write_once_size():
/data3/home/yuanqiliang/code/arm-kernel/./include/linux/compiler.h:220
{
	switch (size) {
	case 1: *(volatile __u8 *)p = *(__u8 *)res; break;
	case 2: *(volatile __u16 *)p = *(__u16 *)res; break;
	case 4: *(volatile __u32 *)p = *(__u32 *)res; break;
	case 8: *(volatile __u64 *)p = *(__u64 *)res; break;
     4f0:	f8257881 	str	x1, [x4, x5, lsl #3]
__set_bit():
/data3/home/yuanqiliang/code/arm-kernel/./include/asm-generic/bitops/non-atomic.h:18
	unsigned long mask = BIT_MASK(nr);
     4f4:	6b0203e4 	negs	w4, w2
enqueue_timer():
/data3/home/yuanqiliang/code/arm-kernel/kernel/time/timer.c:539
	__set_bit(idx, base->pending_map);
     4f8:	9100a000 	add	x0, x0, #0x28
__set_bit():
/data3/home/yuanqiliang/code/arm-kernel/./include/asm-generic/bitops/non-atomic.h:19
	unsigned long *p = ((unsigned long *)addr) + BIT_WORD(nr);
     4fc:	13067c63 	asr	w3, w3, #6
/data3/home/yuanqiliang/code/arm-kernel/./include/asm-generic/bitops/non-atomic.h:18
	unsigned long mask = BIT_MASK(nr);
     500:	12001445 	and	w5, w2, #0x3f
     504:	12001484 	and	w4, w4, #0x3f
hlist_add_head():
/data3/home/yuanqiliang/code/arm-kernel/./include/linux/list.h:706
	WRITE_ONCE(h->first, n);
	n->pprev = &h->first;
     508:	f9000426 	str	x6, [x1, #8]
__set_bit():
/data3/home/yuanqiliang/code/arm-kernel/./include/asm-generic/bitops/non-atomic.h:19
	unsigned long *p = ((unsigned long *)addr) + BIT_WORD(nr);
     50c:	93407c63 	sxtw	x3, w3
/data3/home/yuanqiliang/code/arm-kernel/./include/asm-generic/bitops/non-atomic.h:18
	unsigned long mask = BIT_MASK(nr);
     510:	5a8444a4 	csneg	w4, w5, w4, mi  // mi = first
     514:	d2800025 	mov	x5, #0x1                   	// #1
     518:	9ac420a5 	lsl	x5, x5, x4
/data3/home/yuanqiliang/code/arm-kernel/./include/asm-generic/bitops/non-atomic.h:21

	*p  |= mask;
     51c:	f8637804 	ldr	x4, [x0, x3, lsl #3]
     520:	aa050084 	orr	x4, x4, x5
     524:	f8237804 	str	x4, [x0, x3, lsl #3]
timer_set_idx():
/data3/home/yuanqiliang/code/arm-kernel/kernel/time/timer.c:481
	timer->flags = (timer->flags & ~TIMER_ARRAYMASK) |
     528:	b9402020 	ldr	w0, [x1, #32]
     52c:	12005400 	and	w0, w0, #0x3fffff
     530:	2a025802 	orr	w2, w0, w2, lsl #22
     534:	b9002022 	str	w2, [x1, #32]
enqueue_timer():
/data3/home/yuanqiliang/code/arm-kernel/kernel/time/timer.c:541
	timer_set_idx(timer, idx);
}
     538:	d65f03c0 	ret
     53c:	d503201f 	nop

0000000000000540 <__internal_add_timer>:
__internal_add_timer():
/data3/home/yuanqiliang/code/arm-kernel/kernel/time/timer.c:545

static void
__internal_add_timer(struct timer_base *base, struct timer_list *timer)
{
     540:	aa0103e5 	mov	x5, x1
     544:	a9bf7bfd 	stp	x29, x30, [sp, #-16]!
     548:	aa0003e4 	mov	x4, x0
     54c:	910003fd 	mov	x29, sp
/data3/home/yuanqiliang/code/arm-kernel/kernel/time/timer.c:548
	unsigned int idx;

	idx = calc_wheel_index(timer->expires, base->clk);
     550:	f9400801 	ldr	x1, [x0, #16]
     554:	f94008a0 	ldr	x0, [x5, #16]
     558:	97ffff92 	bl	3a0 <calc_wheel_index>
/data3/home/yuanqiliang/code/arm-kernel/kernel/time/timer.c:549
	enqueue_timer(base, timer, idx);
     55c:	2a0003e2 	mov	w2, w0
     560:	aa0503e1 	mov	x1, x5
     564:	aa0403e0 	mov	x0, x4
     568:	97ffffd8 	bl	4c8 <enqueue_timer>
/data3/home/yuanqiliang/code/arm-kernel/kernel/time/timer.c:550
}
     56c:	a8c17bfd 	ldp	x29, x30, [sp], #16
     570:	d65f03c0 	ret
     574:	d503201f 	nop

0000000000000578 <detach_if_pending>:
timer_pending():
/data3/home/yuanqiliang/code/arm-kernel/./include/linux/timer.h:156
 *
 * return value: 1 if the timer is pending, 0 if not.
 */
static inline int timer_pending(const struct timer_list * timer)
{
	return timer->entry.pprev != NULL;
     578:	f9400403 	ldr	x3, [x0, #8]
detach_if_pending():
/data3/home/yuanqiliang/code/arm-kernel/kernel/time/timer.c:829
static int detach_if_pending(struct timer_list *timer, struct timer_base *base,
			     bool clear_pending)
{
	unsigned idx = timer_get_idx(timer);

	if (!timer_pending(timer))
     57c:	b4000803 	cbz	x3, 67c <detach_if_pending+0x104>
/data3/home/yuanqiliang/code/arm-kernel/kernel/time/timer.c:826
{
     580:	a9bd7bfd 	stp	x29, x30, [sp, #-48]!
     584:	910003fd 	mov	x29, sp
     588:	a90153f3 	stp	x19, x20, [sp, #16]
     58c:	f90013f5 	str	x21, [sp, #32]
     590:	12001c55 	and	w21, w2, #0xff
hlist_is_singular_node():
/data3/home/yuanqiliang/code/arm-kernel/./include/linux/list.h:748
 * accessing head:
 */
static inline bool
hlist_is_singular_node(struct hlist_node *n, struct hlist_head *h)
{
	return !n->next && n->pprev == &h->first;
     594:	f9400002 	ldr	x2, [x0]
     598:	b4000542 	cbz	x2, 640 <detach_if_pending+0xc8>
     59c:	aa0003f3 	mov	x19, x0
arch_static_branch():
/data3/home/yuanqiliang/code/arm-kernel/./arch/arm64/include/asm/jump_label.h:20

#define JUMP_LABEL_NOP_SIZE		AARCH64_INSN_SIZE

static __always_inline bool arch_static_branch(struct static_key *key, bool branch)
{
	asm_volatile_goto("1: nop\n\t"
     5a0:	d503201f 	nop
__hlist_del():
/data3/home/yuanqiliang/code/arm-kernel/./include/linux/list.h:677
	struct hlist_node **pprev = n->pprev;
     5a4:	a9400660 	ldp	x0, x1, [x19]
__write_once_size():
/data3/home/yuanqiliang/code/arm-kernel/./include/linux/compiler.h:220
     5a8:	f9000020 	str	x0, [x1]
__hlist_del():
/data3/home/yuanqiliang/code/arm-kernel/./include/linux/list.h:680
	if (next)
     5ac:	b4000040 	cbz	x0, 5b4 <detach_if_pending+0x3c>
/data3/home/yuanqiliang/code/arm-kernel/./include/linux/list.h:681
		next->pprev = pprev;
     5b0:	f9000401 	str	x1, [x0, #8]
detach_timer():
/data3/home/yuanqiliang/code/arm-kernel/kernel/time/timer.c:819
	if (clear_pending)
     5b4:	34000055 	cbz	w21, 5bc <detach_if_pending+0x44>
/data3/home/yuanqiliang/code/arm-kernel/kernel/time/timer.c:820
		entry->pprev = NULL;
     5b8:	f900067f 	str	xzr, [x19, #8]
/data3/home/yuanqiliang/code/arm-kernel/kernel/time/timer.c:821
	entry->next = LIST_POISON2;
     5bc:	d2804001 	mov	x1, #0x200                 	// #512
detach_if_pending():
/data3/home/yuanqiliang/code/arm-kernel/kernel/time/timer.c:836

	if (hlist_is_singular_node(&timer->entry, base->vectors + idx))
		__clear_bit(idx, base->pending_map);

	detach_timer(timer, clear_pending);
	return 1;
     5c0:	52800020 	mov	w0, #0x1                   	// #1
detach_timer():
/data3/home/yuanqiliang/code/arm-kernel/kernel/time/timer.c:821
	entry->next = LIST_POISON2;
     5c4:	f2fbd5a1 	movk	x1, #0xdead, lsl #48
     5c8:	f9000261 	str	x1, [x19]
detach_if_pending():
/data3/home/yuanqiliang/code/arm-kernel/kernel/time/timer.c:837
}
     5cc:	a94153f3 	ldp	x19, x20, [sp, #16]
     5d0:	f94013f5 	ldr	x21, [sp, #32]
     5d4:	a8c37bfd 	ldp	x29, x30, [sp], #48
     5d8:	d65f03c0 	ret
trace_timer_cancel():
/data3/home/yuanqiliang/code/arm-kernel/./include/trace/events/timer.h:132

/**
 * timer_cancel - called when the timer is canceled
 * @timer:	pointer to struct timer_list
 */
DEFINE_EVENT(timer_class, timer_cancel,
     5dc:	90000000 	adrp	x0, 0 <cpu_number>
     5e0:	91000000 	add	x0, x0, #0x0
__my_cpu_offset():
/data3/home/yuanqiliang/code/arm-kernel/./arch/arm64/include/asm/percpu.h:30
     5e4:	d538d081 	mrs	x1, tpidr_el1
trace_timer_cancel():
/data3/home/yuanqiliang/code/arm-kernel/./include/trace/events/timer.h:132
     5e8:	b8616801 	ldr	w1, [x0, x1]
test_bit():
/data3/home/yuanqiliang/code/arm-kernel/./include/asm-generic/bitops/non-atomic.h:106
 * @nr: bit number to test
 * @addr: Address to start counting from
 */
static inline int test_bit(int nr, const volatile unsigned long *addr)
{
	return 1UL & (addr[BIT_WORD(nr)] >> (nr & (BITS_PER_LONG-1)));
     5ec:	90000002 	adrp	x2, 0 <__cpu_online_mask>
     5f0:	91000042 	add	x2, x2, #0x0
     5f4:	7100003f 	cmp	w1, #0x0
     5f8:	1100fc20 	add	w0, w1, #0x3f
     5fc:	1a81b000 	csel	w0, w0, w1, lt  // lt = tstop
     600:	13067c00 	asr	w0, w0, #6
     604:	93407c00 	sxtw	x0, w0
     608:	f8607840 	ldr	x0, [x2, x0, lsl #3]
     60c:	9ac12401 	lsr	x1, x0, x1
trace_timer_cancel():
/data3/home/yuanqiliang/code/arm-kernel/./include/trace/events/timer.h:132
     610:	3607fca1 	tbz	w1, #0, 5a4 <detach_if_pending+0x2c>
__read_once_size():
/data3/home/yuanqiliang/code/arm-kernel/./include/linux/compiler.h:193
	__READ_ONCE_SIZE;
     614:	90000000 	adrp	x0, 0 <__round_jiffies>
     618:	91000000 	add	x0, x0, #0x0
     61c:	f9401414 	ldr	x20, [x0, #40]
trace_timer_cancel():
/data3/home/yuanqiliang/code/arm-kernel/./include/trace/events/timer.h:132
     620:	b40000f4 	cbz	x20, 63c <detach_if_pending+0xc4>
     624:	f9400282 	ldr	x2, [x20]
     628:	aa1303e1 	mov	x1, x19
     62c:	f9400680 	ldr	x0, [x20, #8]
     630:	d63f0040 	blr	x2
     634:	f8418e82 	ldr	x2, [x20, #24]!
     638:	b5ffff82 	cbnz	x2, 628 <detach_if_pending+0xb0>
     63c:	17ffffda 	b	5a4 <detach_if_pending+0x2c>
timer_get_idx():
/data3/home/yuanqiliang/code/arm-kernel/kernel/time/timer.c:476
	return (timer->flags & TIMER_ARRAYMASK) >> TIMER_ARRAYSHIFT;
     640:	b9402002 	ldr	w2, [x0, #32]
detach_if_pending():
/data3/home/yuanqiliang/code/arm-kernel/kernel/time/timer.c:832
	if (hlist_is_singular_node(&timer->entry, base->vectors + idx))
     644:	9101c025 	add	x5, x1, #0x70
timer_get_idx():
/data3/home/yuanqiliang/code/arm-kernel/kernel/time/timer.c:476
	return (timer->flags & TIMER_ARRAYMASK) >> TIMER_ARRAYSHIFT;
     648:	53167c44 	lsr	w4, w2, #22
detach_if_pending():
/data3/home/yuanqiliang/code/arm-kernel/kernel/time/timer.c:832
	if (hlist_is_singular_node(&timer->entry, base->vectors + idx))
     64c:	d37d2486 	ubfiz	x6, x4, #3, #10
     650:	8b0600a2 	add	x2, x5, x6
hlist_is_singular_node():
/data3/home/yuanqiliang/code/arm-kernel/./include/linux/list.h:748
	return !n->next && n->pprev == &h->first;
     654:	eb02007f 	cmp	x3, x2
     658:	54fffa21 	b.ne	59c <detach_if_pending+0x24>  // b.any
detach_if_pending():
/data3/home/yuanqiliang/code/arm-kernel/kernel/time/timer.c:833
		__clear_bit(idx, base->pending_map);
     65c:	9100a021 	add	x1, x1, #0x28
__clear_bit():
/data3/home/yuanqiliang/code/arm-kernel/./include/asm-generic/bitops/non-atomic.h:27
	unsigned long *p = ((unsigned long *)addr) + BIT_WORD(nr);
     660:	d3462483 	ubfx	x3, x4, #6, #4
/data3/home/yuanqiliang/code/arm-kernel/./include/asm-generic/bitops/non-atomic.h:26
	unsigned long mask = BIT_MASK(nr);
     664:	d2800022 	mov	x2, #0x1                   	// #1
     668:	9ac42042 	lsl	x2, x2, x4
/data3/home/yuanqiliang/code/arm-kernel/./include/asm-generic/bitops/non-atomic.h:29
	*p &= ~mask;
     66c:	f8637824 	ldr	x4, [x1, x3, lsl #3]
     670:	8a220082 	bic	x2, x4, x2
     674:	f8237822 	str	x2, [x1, x3, lsl #3]
     678:	17ffffc9 	b	59c <detach_if_pending+0x24>
detach_if_pending():
/data3/home/yuanqiliang/code/arm-kernel/kernel/time/timer.c:830
		return 0;
     67c:	52800000 	mov	w0, #0x0                   	// #0
/data3/home/yuanqiliang/code/arm-kernel/kernel/time/timer.c:837
}
     680:	d65f03c0 	ret
     684:	d503201f 	nop

0000000000000688 <perf_trace_timer_class>:
perf_trace_timer_class():
/data3/home/yuanqiliang/code/arm-kernel/./include/trace/events/timer.h:12
DECLARE_EVENT_CLASS(timer_class,
     688:	a9bc7bfd 	stp	x29, x30, [sp, #-64]!
     68c:	910003fd 	mov	x29, sp
     690:	a9025bf5 	stp	x21, x22, [sp, #32]
__my_cpu_offset():
/data3/home/yuanqiliang/code/arm-kernel/./arch/arm64/include/asm/percpu.h:30
     694:	d538d083 	mrs	x3, tpidr_el1
__read_once_size():
/data3/home/yuanqiliang/code/arm-kernel/./include/linux/compiler.h:193
     698:	f9404004 	ldr	x4, [x0, #128]
perf_trace_timer_class():
/data3/home/yuanqiliang/code/arm-kernel/./include/trace/events/timer.h:12
     69c:	f9403c02 	ldr	x2, [x0, #120]
     6a0:	8b030056 	add	x22, x2, x3
     6a4:	b5000064 	cbnz	x4, 6b0 <perf_trace_timer_class+0x28>
__read_once_size():
/data3/home/yuanqiliang/code/arm-kernel/./include/linux/compiler.h:193
     6a8:	f8636842 	ldr	x2, [x2, x3]
perf_trace_timer_class():
/data3/home/yuanqiliang/code/arm-kernel/./include/trace/events/timer.h:12
     6ac:	b4000342 	cbz	x2, 714 <perf_trace_timer_class+0x8c>
/data3/home/yuanqiliang/code/arm-kernel/./include/trace/events/timer.h:12 (discriminator 8)
     6b0:	aa1e03f5 	mov	x21, x30
     6b4:	9100d3a2 	add	x2, x29, #0x34
     6b8:	a90153b3 	stp	x19, x20, [x29, #16]
     6bc:	aa0103f4 	mov	x20, x1
     6c0:	aa0003f3 	mov	x19, x0
     6c4:	9100e3a1 	add	x1, x29, #0x38
     6c8:	52800280 	mov	w0, #0x14                  	// #20
     6cc:	94000000 	bl	0 <perf_trace_buf_alloc>
     6d0:	b4000280 	cbz	x0, 720 <perf_trace_timer_class+0x98>
/data3/home/yuanqiliang/code/arm-kernel/./include/trace/events/timer.h:12 (discriminator 11)
     6d4:	f9401fa4 	ldr	x4, [x29, #56]
perf_fetch_caller_regs():
/data3/home/yuanqiliang/code/arm-kernel/./include/linux/perf_event.h:1067 (discriminator 11)
 * - bp for callchains
 * - eflags, for future purposes, just in case
 */
static inline void perf_fetch_caller_regs(struct pt_regs *regs)
{
	perf_arch_fetch_caller_regs(regs, CALLER_ADDR0);
     6d8:	910003e3 	mov	x3, sp
perf_trace_timer_class():
/data3/home/yuanqiliang/code/arm-kernel/./include/trace/events/timer.h:12 (discriminator 11)
     6dc:	b94037a2 	ldr	w2, [x29, #52]
perf_fetch_caller_regs():
/data3/home/yuanqiliang/code/arm-kernel/./include/linux/perf_event.h:1067 (discriminator 11)
     6e0:	d28000a8 	mov	x8, #0x5                   	// #5
perf_trace_timer_class():
/data3/home/yuanqiliang/code/arm-kernel/./include/trace/events/timer.h:12 (discriminator 11)
     6e4:	aa0403e5 	mov	x5, x4
     6e8:	aa1603e6 	mov	x6, x22
perf_fetch_caller_regs():
/data3/home/yuanqiliang/code/arm-kernel/./include/linux/perf_event.h:1067 (discriminator 11)
     6ec:	f900749d 	str	x29, [x4, #232]
perf_trace_timer_class():
/data3/home/yuanqiliang/code/arm-kernel/./include/trace/events/timer.h:12 (discriminator 11)
     6f0:	d2800007 	mov	x7, #0x0                   	// #0
perf_fetch_caller_regs():
/data3/home/yuanqiliang/code/arm-kernel/./include/linux/perf_event.h:1067 (discriminator 11)
     6f4:	a90fd483 	stp	x3, x21, [x4, #248]
perf_trace_timer_class():
/data3/home/yuanqiliang/code/arm-kernel/./include/trace/events/timer.h:12 (discriminator 11)
     6f8:	52800281 	mov	w1, #0x14                  	// #20
     6fc:	aa1303e3 	mov	x3, x19
perf_fetch_caller_regs():
/data3/home/yuanqiliang/code/arm-kernel/./include/linux/perf_event.h:1067 (discriminator 11)
     700:	f9008488 	str	x8, [x4, #264]
perf_trace_timer_class():
/data3/home/yuanqiliang/code/arm-kernel/./include/trace/events/timer.h:12 (discriminator 11)
     704:	d2800024 	mov	x4, #0x1                   	// #1
     708:	f9000414 	str	x20, [x0, #8]
     70c:	94000000 	bl	0 <perf_trace_run_bpf_submit>
     710:	a94153b3 	ldp	x19, x20, [x29, #16]
/data3/home/yuanqiliang/code/arm-kernel/./include/trace/events/timer.h:12
     714:	a9425bf5 	ldp	x21, x22, [sp, #32]
     718:	a8c47bfd 	ldp	x29, x30, [sp], #64
     71c:	d65f03c0 	ret
     720:	a94153b3 	ldp	x19, x20, [x29, #16]
     724:	a9425bf5 	ldp	x21, x22, [sp, #32]
     728:	a8c47bfd 	ldp	x29, x30, [sp], #64
     72c:	d65f03c0 	ret

0000000000000730 <perf_trace_timer_start>:
perf_trace_timer_start():
/data3/home/yuanqiliang/code/arm-kernel/./include/trace/events/timer.h:52
TRACE_EVENT(timer_start,
     730:	a9bb7bfd 	stp	x29, x30, [sp, #-80]!
     734:	910003fd 	mov	x29, sp
     738:	a90363f7 	stp	x23, x24, [sp, #48]
__my_cpu_offset():
/data3/home/yuanqiliang/code/arm-kernel/./arch/arm64/include/asm/percpu.h:30
     73c:	d538d085 	mrs	x5, tpidr_el1
__read_once_size():
/data3/home/yuanqiliang/code/arm-kernel/./include/linux/compiler.h:193
     740:	f9404006 	ldr	x6, [x0, #128]
perf_trace_timer_start():
/data3/home/yuanqiliang/code/arm-kernel/./include/trace/events/timer.h:52
     744:	f9403c04 	ldr	x4, [x0, #120]
     748:	8b050097 	add	x23, x4, x5
     74c:	b5000066 	cbnz	x6, 758 <perf_trace_timer_start+0x28>
__read_once_size():
/data3/home/yuanqiliang/code/arm-kernel/./include/linux/compiler.h:193
     750:	f8656884 	ldr	x4, [x4, x5]
perf_trace_timer_start():
/data3/home/yuanqiliang/code/arm-kernel/./include/trace/events/timer.h:52
     754:	b4000484 	cbz	x4, 7e4 <perf_trace_timer_start+0xb4>
/data3/home/yuanqiliang/code/arm-kernel/./include/trace/events/timer.h:52 (discriminator 8)
     758:	aa1e03f8 	mov	x24, x30
     75c:	a90153b3 	stp	x19, x20, [x29, #16]
     760:	aa0103f4 	mov	x20, x1
     764:	aa0003f3 	mov	x19, x0
     768:	910123a1 	add	x1, x29, #0x48
     76c:	52800680 	mov	w0, #0x34                  	// #52
     770:	a9025bb5 	stp	x21, x22, [x29, #32]
     774:	aa0203f6 	mov	x22, x2
     778:	2a0303f5 	mov	w21, w3
     77c:	910113a2 	add	x2, x29, #0x44
     780:	94000000 	bl	0 <perf_trace_buf_alloc>
     784:	b4000360 	cbz	x0, 7f0 <perf_trace_timer_start+0xc0>
/data3/home/yuanqiliang/code/arm-kernel/./include/trace/events/timer.h:52 (discriminator 11)
     788:	f94027a1 	ldr	x1, [x29, #72]
perf_fetch_caller_regs():
/data3/home/yuanqiliang/code/arm-kernel/./include/linux/perf_event.h:1067 (discriminator 11)
     78c:	910003e3 	mov	x3, sp
     790:	d28000a4 	mov	x4, #0x5                   	// #5
perf_trace_timer_start():
/data3/home/yuanqiliang/code/arm-kernel/./include/trace/events/timer.h:52 (discriminator 11)
     794:	90000009 	adrp	x9, 0 <jiffies>
     798:	b94047a2 	ldr	w2, [x29, #68]
     79c:	aa0103e5 	mov	x5, x1
perf_fetch_caller_regs():
/data3/home/yuanqiliang/code/arm-kernel/./include/linux/perf_event.h:1067 (discriminator 11)
     7a0:	f900743d 	str	x29, [x1, #232]
perf_trace_timer_start():
/data3/home/yuanqiliang/code/arm-kernel/./include/trace/events/timer.h:52 (discriminator 11)
     7a4:	aa1703e6 	mov	x6, x23
perf_fetch_caller_regs():
/data3/home/yuanqiliang/code/arm-kernel/./include/linux/perf_event.h:1067 (discriminator 11)
     7a8:	a90fe023 	stp	x3, x24, [x1, #248]
perf_trace_timer_start():
/data3/home/yuanqiliang/code/arm-kernel/./include/trace/events/timer.h:52 (discriminator 11)
     7ac:	d2800007 	mov	x7, #0x0                   	// #0
     7b0:	aa1303e3 	mov	x3, x19
perf_fetch_caller_regs():
/data3/home/yuanqiliang/code/arm-kernel/./include/linux/perf_event.h:1067 (discriminator 11)
     7b4:	f9008424 	str	x4, [x1, #264]
perf_trace_timer_start():
/data3/home/yuanqiliang/code/arm-kernel/./include/trace/events/timer.h:52 (discriminator 11)
     7b8:	d2800024 	mov	x4, #0x1                   	// #1
     7bc:	f9000414 	str	x20, [x0, #8]
     7c0:	52800681 	mov	w1, #0x34                  	// #52
     7c4:	f9400129 	ldr	x9, [x9]
     7c8:	f9400e8a 	ldr	x10, [x20, #24]
     7cc:	a901580a 	stp	x10, x22, [x0, #16]
     7d0:	f9001009 	str	x9, [x0, #32]
     7d4:	b9002815 	str	w21, [x0, #40]
     7d8:	94000000 	bl	0 <perf_trace_run_bpf_submit>
     7dc:	a94153b3 	ldp	x19, x20, [x29, #16]
     7e0:	a9425bb5 	ldp	x21, x22, [x29, #32]
/data3/home/yuanqiliang/code/arm-kernel/./include/trace/events/timer.h:52
     7e4:	a94363f7 	ldp	x23, x24, [sp, #48]
     7e8:	a8c57bfd 	ldp	x29, x30, [sp], #80
     7ec:	d65f03c0 	ret
     7f0:	a94153b3 	ldp	x19, x20, [x29, #16]
     7f4:	a9425bb5 	ldp	x21, x22, [x29, #32]
     7f8:	a94363f7 	ldp	x23, x24, [sp, #48]
     7fc:	a8c57bfd 	ldp	x29, x30, [sp], #80
     800:	d65f03c0 	ret
     804:	d503201f 	nop

0000000000000808 <perf_trace_timer_expire_entry>:
perf_trace_timer_expire_entry():
/data3/home/yuanqiliang/code/arm-kernel/./include/trace/events/timer.h:90
TRACE_EVENT(timer_expire_entry,
     808:	a9bc7bfd 	stp	x29, x30, [sp, #-64]!
     80c:	910003fd 	mov	x29, sp
     810:	a9025bf5 	stp	x21, x22, [sp, #32]
__my_cpu_offset():
/data3/home/yuanqiliang/code/arm-kernel/./arch/arm64/include/asm/percpu.h:30
     814:	d538d083 	mrs	x3, tpidr_el1
__read_once_size():
/data3/home/yuanqiliang/code/arm-kernel/./include/linux/compiler.h:193
     818:	f9404004 	ldr	x4, [x0, #128]
perf_trace_timer_expire_entry():
/data3/home/yuanqiliang/code/arm-kernel/./include/trace/events/timer.h:90
     81c:	f9403c02 	ldr	x2, [x0, #120]
     820:	8b030056 	add	x22, x2, x3
     824:	b5000064 	cbnz	x4, 830 <perf_trace_timer_expire_entry+0x28>
__read_once_size():
/data3/home/yuanqiliang/code/arm-kernel/./include/linux/compiler.h:193
     828:	f8636842 	ldr	x2, [x2, x3]
perf_trace_timer_expire_entry():
/data3/home/yuanqiliang/code/arm-kernel/./include/trace/events/timer.h:90
     82c:	b40003a2 	cbz	x2, 8a0 <perf_trace_timer_expire_entry+0x98>
/data3/home/yuanqiliang/code/arm-kernel/./include/trace/events/timer.h:90 (discriminator 8)
     830:	aa1e03f5 	mov	x21, x30
     834:	9100d3a2 	add	x2, x29, #0x34
     838:	a90153b3 	stp	x19, x20, [x29, #16]
     83c:	aa0103f4 	mov	x20, x1
     840:	aa0003f3 	mov	x19, x0
     844:	9100e3a1 	add	x1, x29, #0x38
     848:	52800480 	mov	w0, #0x24                  	// #36
     84c:	94000000 	bl	0 <perf_trace_buf_alloc>
     850:	b40002e0 	cbz	x0, 8ac <perf_trace_timer_expire_entry+0xa4>
/data3/home/yuanqiliang/code/arm-kernel/./include/trace/events/timer.h:90 (discriminator 11)
     854:	f9401fa5 	ldr	x5, [x29, #56]
     858:	90000004 	adrp	x4, 0 <jiffies>
perf_fetch_caller_regs():
/data3/home/yuanqiliang/code/arm-kernel/./include/linux/perf_event.h:1067 (discriminator 11)
     85c:	910003e6 	mov	x6, sp
     860:	d28000a3 	mov	x3, #0x5                   	// #5
perf_trace_timer_expire_entry():
/data3/home/yuanqiliang/code/arm-kernel/./include/trace/events/timer.h:90 (discriminator 11)
     864:	f9400084 	ldr	x4, [x4]
perf_fetch_caller_regs():
/data3/home/yuanqiliang/code/arm-kernel/./include/linux/perf_event.h:1067 (discriminator 11)
     868:	f90074bd 	str	x29, [x5, #232]
     86c:	a90fd4a6 	stp	x6, x21, [x5, #248]
perf_trace_timer_expire_entry():
/data3/home/yuanqiliang/code/arm-kernel/./include/trace/events/timer.h:90 (discriminator 11)
     870:	d2800007 	mov	x7, #0x0                   	// #0
     874:	b94037a2 	ldr	w2, [x29, #52]
perf_fetch_caller_regs():
/data3/home/yuanqiliang/code/arm-kernel/./include/linux/perf_event.h:1067 (discriminator 11)
     878:	f90084a3 	str	x3, [x5, #264]
perf_trace_timer_expire_entry():
/data3/home/yuanqiliang/code/arm-kernel/./include/trace/events/timer.h:90 (discriminator 11)
     87c:	aa1603e6 	mov	x6, x22
     880:	a9009014 	stp	x20, x4, [x0, #8]
     884:	aa1303e3 	mov	x3, x19
     888:	d2800024 	mov	x4, #0x1                   	// #1
     88c:	f9400e88 	ldr	x8, [x20, #24]
     890:	f9000c08 	str	x8, [x0, #24]
     894:	52800481 	mov	w1, #0x24                  	// #36
     898:	94000000 	bl	0 <perf_trace_run_bpf_submit>
     89c:	a94153b3 	ldp	x19, x20, [x29, #16]
/data3/home/yuanqiliang/code/arm-kernel/./include/trace/events/timer.h:90
     8a0:	a9425bf5 	ldp	x21, x22, [sp, #32]
     8a4:	a8c47bfd 	ldp	x29, x30, [sp], #64
     8a8:	d65f03c0 	ret
     8ac:	a94153b3 	ldp	x19, x20, [x29, #16]
     8b0:	a9425bf5 	ldp	x21, x22, [sp, #32]
     8b4:	a8c47bfd 	ldp	x29, x30, [sp], #64
     8b8:	d65f03c0 	ret
     8bc:	d503201f 	nop

00000000000008c0 <perf_trace_hrtimer_init>:
perf_trace_hrtimer_init():
/data3/home/yuanqiliang/code/arm-kernel/./include/trace/events/timer.h:163
 * hrtimer_init - called when the hrtimer is initialized
 * @hrtimer:	pointer to struct hrtimer
 * @clockid:	the hrtimers clock
 * @mode:	the hrtimers mode
 */
TRACE_EVENT(hrtimer_init,
     8c0:	a9bb7bfd 	stp	x29, x30, [sp, #-80]!
     8c4:	910003fd 	mov	x29, sp
     8c8:	a90363f7 	stp	x23, x24, [sp, #48]
__my_cpu_offset():
/data3/home/yuanqiliang/code/arm-kernel/./arch/arm64/include/asm/percpu.h:30
     8cc:	d538d085 	mrs	x5, tpidr_el1
__read_once_size():
/data3/home/yuanqiliang/code/arm-kernel/./include/linux/compiler.h:193
     8d0:	f9404006 	ldr	x6, [x0, #128]
perf_trace_hrtimer_init():
/data3/home/yuanqiliang/code/arm-kernel/./include/trace/events/timer.h:163
     8d4:	f9403c04 	ldr	x4, [x0, #120]
     8d8:	8b050097 	add	x23, x4, x5
     8dc:	b5000066 	cbnz	x6, 8e8 <perf_trace_hrtimer_init+0x28>
__read_once_size():
/data3/home/yuanqiliang/code/arm-kernel/./include/linux/compiler.h:193
     8e0:	f8656884 	ldr	x4, [x4, x5]
perf_trace_hrtimer_init():
/data3/home/yuanqiliang/code/arm-kernel/./include/trace/events/timer.h:163
     8e4:	b40003e4 	cbz	x4, 960 <perf_trace_hrtimer_init+0xa0>
/data3/home/yuanqiliang/code/arm-kernel/./include/trace/events/timer.h:163 (discriminator 8)
     8e8:	aa0103f8 	mov	x24, x1
     8ec:	910123a1 	add	x1, x29, #0x48
     8f0:	a90153b3 	stp	x19, x20, [x29, #16]
     8f4:	aa0003f3 	mov	x19, x0
     8f8:	2a0303f4 	mov	w20, w3
     8fc:	52800380 	mov	w0, #0x1c                  	// #28
     900:	a9025bb5 	stp	x21, x22, [x29, #32]
     904:	2a0203f5 	mov	w21, w2
     908:	aa1e03f6 	mov	x22, x30
     90c:	910113a2 	add	x2, x29, #0x44
     910:	94000000 	bl	0 <perf_trace_buf_alloc>
     914:	b40002c0 	cbz	x0, 96c <perf_trace_hrtimer_init+0xac>
/data3/home/yuanqiliang/code/arm-kernel/./include/trace/events/timer.h:163 (discriminator 11)
     918:	f94027a4 	ldr	x4, [x29, #72]
perf_fetch_caller_regs():
/data3/home/yuanqiliang/code/arm-kernel/./include/linux/perf_event.h:1067 (discriminator 11)
     91c:	910003e3 	mov	x3, sp
perf_trace_hrtimer_init():
/data3/home/yuanqiliang/code/arm-kernel/./include/trace/events/timer.h:163 (discriminator 11)
     920:	b94047a2 	ldr	w2, [x29, #68]
perf_fetch_caller_regs():
/data3/home/yuanqiliang/code/arm-kernel/./include/linux/perf_event.h:1067 (discriminator 11)
     924:	d28000a1 	mov	x1, #0x5                   	// #5
perf_trace_hrtimer_init():
/data3/home/yuanqiliang/code/arm-kernel/./include/trace/events/timer.h:163 (discriminator 11)
     928:	aa0403e5 	mov	x5, x4
     92c:	aa1703e6 	mov	x6, x23
perf_fetch_caller_regs():
/data3/home/yuanqiliang/code/arm-kernel/./include/linux/perf_event.h:1067 (discriminator 11)
     930:	f900749d 	str	x29, [x4, #232]
perf_trace_hrtimer_init():
/data3/home/yuanqiliang/code/arm-kernel/./include/trace/events/timer.h:163 (discriminator 11)
     934:	d2800007 	mov	x7, #0x0                   	// #0
perf_fetch_caller_regs():
/data3/home/yuanqiliang/code/arm-kernel/./include/linux/perf_event.h:1067 (discriminator 11)
     938:	a90fd883 	stp	x3, x22, [x4, #248]
perf_trace_hrtimer_init():
/data3/home/yuanqiliang/code/arm-kernel/./include/trace/events/timer.h:163 (discriminator 11)
     93c:	aa1303e3 	mov	x3, x19
perf_fetch_caller_regs():
/data3/home/yuanqiliang/code/arm-kernel/./include/linux/perf_event.h:1067 (discriminator 11)
     940:	f9008481 	str	x1, [x4, #264]
perf_trace_hrtimer_init():
/data3/home/yuanqiliang/code/arm-kernel/./include/trace/events/timer.h:163 (discriminator 11)
     944:	d2800024 	mov	x4, #0x1                   	// #1
     948:	f9000418 	str	x24, [x0, #8]
     94c:	52800381 	mov	w1, #0x1c                  	// #28
     950:	29025015 	stp	w21, w20, [x0, #16]
     954:	94000000 	bl	0 <perf_trace_run_bpf_submit>
     958:	a94153b3 	ldp	x19, x20, [x29, #16]
     95c:	a9425bb5 	ldp	x21, x22, [x29, #32]
/data3/home/yuanqiliang/code/arm-kernel/./include/trace/events/timer.h:163
     960:	a94363f7 	ldp	x23, x24, [sp, #48]
     964:	a8c57bfd 	ldp	x29, x30, [sp], #80
     968:	d65f03c0 	ret
     96c:	a94153b3 	ldp	x19, x20, [x29, #16]
     970:	a9425bb5 	ldp	x21, x22, [x29, #32]
     974:	a94363f7 	ldp	x23, x24, [sp, #48]
     978:	a8c57bfd 	ldp	x29, x30, [sp], #80
     97c:	d65f03c0 	ret

0000000000000980 <perf_trace_hrtimer_start>:
perf_trace_hrtimer_start():
/data3/home/yuanqiliang/code/arm-kernel/./include/trace/events/timer.h:191

/**
 * hrtimer_start - called when the hrtimer is started
 * @hrtimer: pointer to struct hrtimer
 */
TRACE_EVENT(hrtimer_start,
     980:	a9bb7bfd 	stp	x29, x30, [sp, #-80]!
     984:	910003fd 	mov	x29, sp
     988:	a9025bf5 	stp	x21, x22, [sp, #32]
__my_cpu_offset():
/data3/home/yuanqiliang/code/arm-kernel/./arch/arm64/include/asm/percpu.h:30
     98c:	d538d083 	mrs	x3, tpidr_el1
__read_once_size():
/data3/home/yuanqiliang/code/arm-kernel/./include/linux/compiler.h:193
     990:	f9404005 	ldr	x5, [x0, #128]
perf_trace_hrtimer_start():
/data3/home/yuanqiliang/code/arm-kernel/./include/trace/events/timer.h:191
     994:	f9403c04 	ldr	x4, [x0, #120]
     998:	8b030096 	add	x22, x4, x3
     99c:	b5000065 	cbnz	x5, 9a8 <perf_trace_hrtimer_start+0x28>
__read_once_size():
/data3/home/yuanqiliang/code/arm-kernel/./include/linux/compiler.h:193
     9a0:	f8636883 	ldr	x3, [x4, x3]
perf_trace_hrtimer_start():
/data3/home/yuanqiliang/code/arm-kernel/./include/trace/events/timer.h:191
     9a4:	b4000483 	cbz	x3, a34 <perf_trace_hrtimer_start+0xb4>
/data3/home/yuanqiliang/code/arm-kernel/./include/trace/events/timer.h:191 (discriminator 8)
     9a8:	aa1e03f5 	mov	x21, x30
     9ac:	a90153b3 	stp	x19, x20, [x29, #16]
     9b0:	aa0103f4 	mov	x20, x1
     9b4:	aa0003f3 	mov	x19, x0
     9b8:	910123a1 	add	x1, x29, #0x48
     9bc:	52800680 	mov	w0, #0x34                  	// #52
     9c0:	f9001bb7 	str	x23, [x29, #48]
     9c4:	2a0203f7 	mov	w23, w2
     9c8:	910113a2 	add	x2, x29, #0x44
     9cc:	94000000 	bl	0 <perf_trace_buf_alloc>
     9d0:	b4000380 	cbz	x0, a40 <perf_trace_hrtimer_start+0xc0>
/data3/home/yuanqiliang/code/arm-kernel/./include/trace/events/timer.h:191 (discriminator 11)
     9d4:	f94027a1 	ldr	x1, [x29, #72]
perf_fetch_caller_regs():
/data3/home/yuanqiliang/code/arm-kernel/./include/linux/perf_event.h:1067 (discriminator 11)
     9d8:	910003e3 	mov	x3, sp
     9dc:	d28000a4 	mov	x4, #0x5                   	// #5
perf_trace_hrtimer_start():
/data3/home/yuanqiliang/code/arm-kernel/./include/trace/events/timer.h:191 (discriminator 11)
     9e0:	b94047a2 	ldr	w2, [x29, #68]
     9e4:	aa0103e5 	mov	x5, x1
     9e8:	aa1603e6 	mov	x6, x22
perf_fetch_caller_regs():
/data3/home/yuanqiliang/code/arm-kernel/./include/linux/perf_event.h:1067 (discriminator 11)
     9ec:	f900743d 	str	x29, [x1, #232]
perf_trace_hrtimer_start():
/data3/home/yuanqiliang/code/arm-kernel/./include/trace/events/timer.h:191 (discriminator 11)
     9f0:	d2800007 	mov	x7, #0x0                   	// #0
perf_fetch_caller_regs():
/data3/home/yuanqiliang/code/arm-kernel/./include/linux/perf_event.h:1067 (discriminator 11)
     9f4:	a90fd423 	stp	x3, x21, [x1, #248]
perf_trace_hrtimer_start():
/data3/home/yuanqiliang/code/arm-kernel/./include/trace/events/timer.h:191 (discriminator 11)
     9f8:	aa1303e3 	mov	x3, x19
perf_fetch_caller_regs():
/data3/home/yuanqiliang/code/arm-kernel/./include/linux/perf_event.h:1067 (discriminator 11)
     9fc:	f9008424 	str	x4, [x1, #264]
perf_trace_hrtimer_start():
/data3/home/yuanqiliang/code/arm-kernel/./include/trace/events/timer.h:191 (discriminator 11)
     a00:	d2800024 	mov	x4, #0x1                   	// #1
     a04:	f9000414 	str	x20, [x0, #8]
     a08:	52800681 	mov	w1, #0x34                  	// #52
     a0c:	f9401689 	ldr	x9, [x20, #40]
     a10:	f9000809 	str	x9, [x0, #16]
hrtimer_get_expires():
/data3/home/yuanqiliang/code/arm-kernel/./include/linux/hrtimer.h:261 (discriminator 11)
	timer->_softexpires = ktime_add_ns(timer->_softexpires, ns);
}

static inline ktime_t hrtimer_get_expires(const struct hrtimer *timer)
{
	return timer->node.expires;
     a14:	f9400e89 	ldr	x9, [x20, #24]
perf_trace_hrtimer_start():
/data3/home/yuanqiliang/code/arm-kernel/./include/trace/events/timer.h:191 (discriminator 11)
     a18:	f9000c09 	str	x9, [x0, #24]
hrtimer_get_softexpires():
/data3/home/yuanqiliang/code/arm-kernel/./include/linux/hrtimer.h:266 (discriminator 11)
}

static inline ktime_t hrtimer_get_softexpires(const struct hrtimer *timer)
{
	return timer->_softexpires;
     a1c:	f9401289 	ldr	x9, [x20, #32]
perf_trace_hrtimer_start():
/data3/home/yuanqiliang/code/arm-kernel/./include/trace/events/timer.h:191 (discriminator 11)
     a20:	f9001009 	str	x9, [x0, #32]
     a24:	b9002817 	str	w23, [x0, #40]
     a28:	94000000 	bl	0 <perf_trace_run_bpf_submit>
     a2c:	a94153b3 	ldp	x19, x20, [x29, #16]
     a30:	f9401bb7 	ldr	x23, [x29, #48]
/data3/home/yuanqiliang/code/arm-kernel/./include/trace/events/timer.h:191
     a34:	a9425bf5 	ldp	x21, x22, [sp, #32]
     a38:	a8c57bfd 	ldp	x29, x30, [sp], #80
     a3c:	d65f03c0 	ret
     a40:	a94153b3 	ldp	x19, x20, [x29, #16]
     a44:	a9425bf5 	ldp	x21, x22, [sp, #32]
     a48:	f9401bb7 	ldr	x23, [x29, #48]
     a4c:	a8c57bfd 	ldp	x29, x30, [sp], #80
     a50:	d65f03c0 	ret
     a54:	d503201f 	nop

0000000000000a58 <perf_trace_hrtimer_expire_entry>:
perf_trace_hrtimer_expire_entry():
/data3/home/yuanqiliang/code/arm-kernel/./include/trace/events/timer.h:228
 * @now:	pointer to variable which contains current time of the
 *		timers base.
 *
 * Allows to determine the timer latency.
 */
TRACE_EVENT(hrtimer_expire_entry,
     a58:	a9bb7bfd 	stp	x29, x30, [sp, #-80]!
     a5c:	910003fd 	mov	x29, sp
     a60:	a9025bf5 	stp	x21, x22, [sp, #32]
__my_cpu_offset():
/data3/home/yuanqiliang/code/arm-kernel/./arch/arm64/include/asm/percpu.h:30
     a64:	d538d083 	mrs	x3, tpidr_el1
__read_once_size():
/data3/home/yuanqiliang/code/arm-kernel/./include/linux/compiler.h:193
     a68:	f9404005 	ldr	x5, [x0, #128]
perf_trace_hrtimer_expire_entry():
/data3/home/yuanqiliang/code/arm-kernel/./include/trace/events/timer.h:228
     a6c:	f9403c04 	ldr	x4, [x0, #120]
     a70:	8b030096 	add	x22, x4, x3
     a74:	b5000065 	cbnz	x5, a80 <perf_trace_hrtimer_expire_entry+0x28>
__read_once_size():
/data3/home/yuanqiliang/code/arm-kernel/./include/linux/compiler.h:193
     a78:	f8636883 	ldr	x3, [x4, x3]
perf_trace_hrtimer_expire_entry():
/data3/home/yuanqiliang/code/arm-kernel/./include/trace/events/timer.h:228
     a7c:	b4000423 	cbz	x3, b00 <perf_trace_hrtimer_expire_entry+0xa8>
/data3/home/yuanqiliang/code/arm-kernel/./include/trace/events/timer.h:228 (discriminator 8)
     a80:	aa0203f5 	mov	x21, x2
     a84:	910113a2 	add	x2, x29, #0x44
     a88:	a90153b3 	stp	x19, x20, [x29, #16]
     a8c:	aa0103f4 	mov	x20, x1
     a90:	aa0003f3 	mov	x19, x0
     a94:	910123a1 	add	x1, x29, #0x48
     a98:	52800480 	mov	w0, #0x24                  	// #36
     a9c:	f9001bb7 	str	x23, [x29, #48]
     aa0:	aa1e03f7 	mov	x23, x30
     aa4:	94000000 	bl	0 <perf_trace_buf_alloc>
     aa8:	b4000320 	cbz	x0, b0c <perf_trace_hrtimer_expire_entry+0xb4>
/data3/home/yuanqiliang/code/arm-kernel/./include/trace/events/timer.h:228 (discriminator 11)
     aac:	f94027a1 	ldr	x1, [x29, #72]
perf_fetch_caller_regs():
/data3/home/yuanqiliang/code/arm-kernel/./include/linux/perf_event.h:1067 (discriminator 11)
     ab0:	910003e3 	mov	x3, sp
     ab4:	d28000a4 	mov	x4, #0x5                   	// #5
perf_trace_hrtimer_expire_entry():
/data3/home/yuanqiliang/code/arm-kernel/./include/trace/events/timer.h:228 (discriminator 11)
     ab8:	b94047a2 	ldr	w2, [x29, #68]
     abc:	aa0103e5 	mov	x5, x1
     ac0:	aa1603e6 	mov	x6, x22
perf_fetch_caller_regs():
/data3/home/yuanqiliang/code/arm-kernel/./include/linux/perf_event.h:1067 (discriminator 11)
     ac4:	f900743d 	str	x29, [x1, #232]
perf_trace_hrtimer_expire_entry():
/data3/home/yuanqiliang/code/arm-kernel/./include/trace/events/timer.h:228 (discriminator 11)
     ac8:	d2800007 	mov	x7, #0x0                   	// #0
perf_fetch_caller_regs():
/data3/home/yuanqiliang/code/arm-kernel/./include/linux/perf_event.h:1067 (discriminator 11)
     acc:	a90fdc23 	stp	x3, x23, [x1, #248]
perf_trace_hrtimer_expire_entry():
/data3/home/yuanqiliang/code/arm-kernel/./include/trace/events/timer.h:228 (discriminator 11)
     ad0:	aa1303e3 	mov	x3, x19
perf_fetch_caller_regs():
/data3/home/yuanqiliang/code/arm-kernel/./include/linux/perf_event.h:1067 (discriminator 11)
     ad4:	f9008424 	str	x4, [x1, #264]
perf_trace_hrtimer_expire_entry():
/data3/home/yuanqiliang/code/arm-kernel/./include/trace/events/timer.h:228 (discriminator 11)
     ad8:	d2800024 	mov	x4, #0x1                   	// #1
     adc:	f9000414 	str	x20, [x0, #8]
     ae0:	52800481 	mov	w1, #0x24                  	// #36
     ae4:	f94002a9 	ldr	x9, [x21]
     ae8:	f9000809 	str	x9, [x0, #16]
     aec:	f9401689 	ldr	x9, [x20, #40]
     af0:	f9000c09 	str	x9, [x0, #24]
     af4:	94000000 	bl	0 <perf_trace_run_bpf_submit>
     af8:	a94153b3 	ldp	x19, x20, [x29, #16]
     afc:	f9401bb7 	ldr	x23, [x29, #48]
/data3/home/yuanqiliang/code/arm-kernel/./include/trace/events/timer.h:228
     b00:	a9425bf5 	ldp	x21, x22, [sp, #32]
     b04:	a8c57bfd 	ldp	x29, x30, [sp], #80
     b08:	d65f03c0 	ret
     b0c:	a94153b3 	ldp	x19, x20, [x29, #16]
     b10:	a9425bf5 	ldp	x21, x22, [sp, #32]
     b14:	f9401bb7 	ldr	x23, [x29, #48]
     b18:	a8c57bfd 	ldp	x29, x30, [sp], #80
     b1c:	d65f03c0 	ret

0000000000000b20 <perf_trace_hrtimer_class>:
perf_trace_hrtimer_class():
/data3/home/yuanqiliang/code/arm-kernel/./include/trace/events/timer.h:250

	TP_printk("hrtimer=%p function=%pf now=%llu", __entry->hrtimer, __entry->function,
		  (unsigned long long) __entry->now)
);

DECLARE_EVENT_CLASS(hrtimer_class,
     b20:	a9bc7bfd 	stp	x29, x30, [sp, #-64]!
     b24:	910003fd 	mov	x29, sp
     b28:	a9025bf5 	stp	x21, x22, [sp, #32]
__my_cpu_offset():
/data3/home/yuanqiliang/code/arm-kernel/./arch/arm64/include/asm/percpu.h:30
     b2c:	d538d083 	mrs	x3, tpidr_el1
__read_once_size():
/data3/home/yuanqiliang/code/arm-kernel/./include/linux/compiler.h:193
     b30:	f9404004 	ldr	x4, [x0, #128]
perf_trace_hrtimer_class():
/data3/home/yuanqiliang/code/arm-kernel/./include/trace/events/timer.h:250
     b34:	f9403c02 	ldr	x2, [x0, #120]
     b38:	8b030056 	add	x22, x2, x3
     b3c:	b5000064 	cbnz	x4, b48 <perf_trace_hrtimer_class+0x28>
__read_once_size():
/data3/home/yuanqiliang/code/arm-kernel/./include/linux/compiler.h:193
     b40:	f8636842 	ldr	x2, [x2, x3]
perf_trace_hrtimer_class():
/data3/home/yuanqiliang/code/arm-kernel/./include/trace/events/timer.h:250
     b44:	b4000342 	cbz	x2, bac <perf_trace_hrtimer_class+0x8c>
/data3/home/yuanqiliang/code/arm-kernel/./include/trace/events/timer.h:250 (discriminator 8)
     b48:	aa1e03f5 	mov	x21, x30
     b4c:	9100d3a2 	add	x2, x29, #0x34
     b50:	a90153b3 	stp	x19, x20, [x29, #16]
     b54:	aa0103f4 	mov	x20, x1
     b58:	aa0003f3 	mov	x19, x0
     b5c:	9100e3a1 	add	x1, x29, #0x38
     b60:	52800280 	mov	w0, #0x14                  	// #20
     b64:	94000000 	bl	0 <perf_trace_buf_alloc>
     b68:	b4000280 	cbz	x0, bb8 <perf_trace_hrtimer_class+0x98>
/data3/home/yuanqiliang/code/arm-kernel/./include/trace/events/timer.h:250 (discriminator 11)
     b6c:	f9401fa4 	ldr	x4, [x29, #56]
perf_fetch_caller_regs():
/data3/home/yuanqiliang/code/arm-kernel/./include/linux/perf_event.h:1067 (discriminator 11)
     b70:	910003e3 	mov	x3, sp
perf_trace_hrtimer_class():
/data3/home/yuanqiliang/code/arm-kernel/./include/trace/events/timer.h:250 (discriminator 11)
     b74:	b94037a2 	ldr	w2, [x29, #52]
perf_fetch_caller_regs():
/data3/home/yuanqiliang/code/arm-kernel/./include/linux/perf_event.h:1067 (discriminator 11)
     b78:	d28000a8 	mov	x8, #0x5                   	// #5
perf_trace_hrtimer_class():
/data3/home/yuanqiliang/code/arm-kernel/./include/trace/events/timer.h:250 (discriminator 11)
     b7c:	aa0403e5 	mov	x5, x4
     b80:	aa1603e6 	mov	x6, x22
perf_fetch_caller_regs():
/data3/home/yuanqiliang/code/arm-kernel/./include/linux/perf_event.h:1067 (discriminator 11)
     b84:	f900749d 	str	x29, [x4, #232]
perf_trace_hrtimer_class():
/data3/home/yuanqiliang/code/arm-kernel/./include/trace/events/timer.h:250 (discriminator 11)
     b88:	d2800007 	mov	x7, #0x0                   	// #0
perf_fetch_caller_regs():
/data3/home/yuanqiliang/code/arm-kernel/./include/linux/perf_event.h:1067 (discriminator 11)
     b8c:	a90fd483 	stp	x3, x21, [x4, #248]
perf_trace_hrtimer_class():
/data3/home/yuanqiliang/code/arm-kernel/./include/trace/events/timer.h:250 (discriminator 11)
     b90:	52800281 	mov	w1, #0x14                  	// #20
     b94:	aa1303e3 	mov	x3, x19
perf_fetch_caller_regs():
/data3/home/yuanqiliang/code/arm-kernel/./include/linux/perf_event.h:1067 (discriminator 11)
     b98:	f9008488 	str	x8, [x4, #264]
perf_trace_hrtimer_class():
/data3/home/yuanqiliang/code/arm-kernel/./include/trace/events/timer.h:250 (discriminator 11)
     b9c:	d2800024 	mov	x4, #0x1                   	// #1
     ba0:	f9000414 	str	x20, [x0, #8]
     ba4:	94000000 	bl	0 <perf_trace_run_bpf_submit>
     ba8:	a94153b3 	ldp	x19, x20, [x29, #16]
/data3/home/yuanqiliang/code/arm-kernel/./include/trace/events/timer.h:250
     bac:	a9425bf5 	ldp	x21, x22, [sp, #32]
     bb0:	a8c47bfd 	ldp	x29, x30, [sp], #64
     bb4:	d65f03c0 	ret
     bb8:	a94153b3 	ldp	x19, x20, [x29, #16]
     bbc:	a9425bf5 	ldp	x21, x22, [sp, #32]
     bc0:	a8c47bfd 	ldp	x29, x30, [sp], #64
     bc4:	d65f03c0 	ret

0000000000000bc8 <perf_trace_itimer_state>:
perf_trace_itimer_state():
/data3/home/yuanqiliang/code/arm-kernel/./include/trace/events/timer.h:299
 * @which:	name of the interval timer
 * @value:	the itimers value, itimer is canceled if value->it_value is
 *		zero, otherwise it is started
 * @expires:	the itimers expiry time
 */
TRACE_EVENT(itimer_state,
     bc8:	a9bb7bfd 	stp	x29, x30, [sp, #-80]!
     bcc:	910003fd 	mov	x29, sp
     bd0:	a90363f7 	stp	x23, x24, [sp, #48]
__my_cpu_offset():
/data3/home/yuanqiliang/code/arm-kernel/./arch/arm64/include/asm/percpu.h:30
     bd4:	d538d085 	mrs	x5, tpidr_el1
__read_once_size():
/data3/home/yuanqiliang/code/arm-kernel/./include/linux/compiler.h:193
     bd8:	f9404006 	ldr	x6, [x0, #128]
perf_trace_itimer_state():
/data3/home/yuanqiliang/code/arm-kernel/./include/trace/events/timer.h:299
     bdc:	f9403c04 	ldr	x4, [x0, #120]
     be0:	8b050097 	add	x23, x4, x5
     be4:	b5000066 	cbnz	x6, bf0 <perf_trace_itimer_state+0x28>
__read_once_size():
/data3/home/yuanqiliang/code/arm-kernel/./include/linux/compiler.h:193
     be8:	f8656884 	ldr	x4, [x4, x5]
perf_trace_itimer_state():
/data3/home/yuanqiliang/code/arm-kernel/./include/trace/events/timer.h:299
     bec:	b40004e4 	cbz	x4, c88 <perf_trace_itimer_state+0xc0>
/data3/home/yuanqiliang/code/arm-kernel/./include/trace/events/timer.h:299 (discriminator 8)
     bf0:	2a0103f8 	mov	w24, w1
     bf4:	910123a1 	add	x1, x29, #0x48
     bf8:	a90153b3 	stp	x19, x20, [x29, #16]
     bfc:	aa0203f4 	mov	x20, x2
     c00:	aa0003f3 	mov	x19, x0
     c04:	910113a2 	add	x2, x29, #0x44
     c08:	52800780 	mov	w0, #0x3c                  	// #60
     c0c:	a9025bb5 	stp	x21, x22, [x29, #32]
     c10:	aa0303f5 	mov	x21, x3
     c14:	aa1e03f6 	mov	x22, x30
     c18:	94000000 	bl	0 <perf_trace_buf_alloc>
     c1c:	b40003c0 	cbz	x0, c94 <perf_trace_itimer_state+0xcc>
/data3/home/yuanqiliang/code/arm-kernel/./include/trace/events/timer.h:299 (discriminator 11)
     c20:	f94027a4 	ldr	x4, [x29, #72]
perf_fetch_caller_regs():
/data3/home/yuanqiliang/code/arm-kernel/./include/linux/perf_event.h:1067 (discriminator 11)
     c24:	910003e3 	mov	x3, sp
     c28:	d28000a1 	mov	x1, #0x5                   	// #5
perf_trace_itimer_state():
/data3/home/yuanqiliang/code/arm-kernel/./include/trace/events/timer.h:299 (discriminator 11)
     c2c:	b94047a2 	ldr	w2, [x29, #68]
     c30:	aa0403e5 	mov	x5, x4
     c34:	aa1703e6 	mov	x6, x23
perf_fetch_caller_regs():
/data3/home/yuanqiliang/code/arm-kernel/./include/linux/perf_event.h:1067 (discriminator 11)
     c38:	f900749d 	str	x29, [x4, #232]
perf_trace_itimer_state():
/data3/home/yuanqiliang/code/arm-kernel/./include/trace/events/timer.h:299 (discriminator 11)
     c3c:	d2800007 	mov	x7, #0x0                   	// #0
perf_fetch_caller_regs():
/data3/home/yuanqiliang/code/arm-kernel/./include/linux/perf_event.h:1067 (discriminator 11)
     c40:	a90fd883 	stp	x3, x22, [x4, #248]
perf_trace_itimer_state():
/data3/home/yuanqiliang/code/arm-kernel/./include/trace/events/timer.h:299 (discriminator 11)
     c44:	aa1303e3 	mov	x3, x19
perf_fetch_caller_regs():
/data3/home/yuanqiliang/code/arm-kernel/./include/linux/perf_event.h:1067 (discriminator 11)
     c48:	f9008481 	str	x1, [x4, #264]
perf_trace_itimer_state():
/data3/home/yuanqiliang/code/arm-kernel/./include/trace/events/timer.h:299 (discriminator 11)
     c4c:	d2800024 	mov	x4, #0x1                   	// #1
     c50:	b9000818 	str	w24, [x0, #8]
     c54:	52800781 	mov	w1, #0x3c                  	// #60
     c58:	f9000815 	str	x21, [x0, #16]
     c5c:	f9400a89 	ldr	x9, [x20, #16]
     c60:	f9000c09 	str	x9, [x0, #24]
     c64:	f9400e89 	ldr	x9, [x20, #24]
     c68:	f9001009 	str	x9, [x0, #32]
     c6c:	f9400289 	ldr	x9, [x20]
     c70:	f9001409 	str	x9, [x0, #40]
     c74:	f9400689 	ldr	x9, [x20, #8]
     c78:	f9001809 	str	x9, [x0, #48]
     c7c:	94000000 	bl	0 <perf_trace_run_bpf_submit>
     c80:	a94153b3 	ldp	x19, x20, [x29, #16]
     c84:	a9425bb5 	ldp	x21, x22, [x29, #32]
/data3/home/yuanqiliang/code/arm-kernel/./include/trace/events/timer.h:299
     c88:	a94363f7 	ldp	x23, x24, [sp, #48]
     c8c:	a8c57bfd 	ldp	x29, x30, [sp], #80
     c90:	d65f03c0 	ret
     c94:	a94153b3 	ldp	x19, x20, [x29, #16]
     c98:	a9425bb5 	ldp	x21, x22, [x29, #32]
     c9c:	a94363f7 	ldp	x23, x24, [sp, #48]
     ca0:	a8c57bfd 	ldp	x29, x30, [sp], #80
     ca4:	d65f03c0 	ret

0000000000000ca8 <perf_trace_itimer_expire>:
perf_trace_itimer_expire():
/data3/home/yuanqiliang/code/arm-kernel/./include/trace/events/timer.h:336
 * itimer_expire - called when itimer expires
 * @which:	type of the interval timer
 * @pid:	pid of the process which owns the timer
 * @now:	current time, used to calculate the latency of itimer
 */
TRACE_EVENT(itimer_expire,
     ca8:	a9bb7bfd 	stp	x29, x30, [sp, #-80]!
     cac:	910003fd 	mov	x29, sp
     cb0:	a90363f7 	stp	x23, x24, [sp, #48]
__my_cpu_offset():
/data3/home/yuanqiliang/code/arm-kernel/./arch/arm64/include/asm/percpu.h:30
     cb4:	d538d085 	mrs	x5, tpidr_el1
__read_once_size():
/data3/home/yuanqiliang/code/arm-kernel/./include/linux/compiler.h:193
     cb8:	f9404007 	ldr	x7, [x0, #128]
perf_trace_itimer_expire():
/data3/home/yuanqiliang/code/arm-kernel/./include/trace/events/timer.h:336
     cbc:	f9403c04 	ldr	x4, [x0, #120]
     cc0:	8b050098 	add	x24, x4, x5
     cc4:	b5000067 	cbnz	x7, cd0 <perf_trace_itimer_expire+0x28>
__read_once_size():
/data3/home/yuanqiliang/code/arm-kernel/./include/linux/compiler.h:193
     cc8:	f8656884 	ldr	x4, [x4, x5]
perf_trace_itimer_expire():
/data3/home/yuanqiliang/code/arm-kernel/./include/trace/events/timer.h:336
     ccc:	b4000444 	cbz	x4, d54 <perf_trace_itimer_expire+0xac>
/data3/home/yuanqiliang/code/arm-kernel/./include/trace/events/timer.h:336 (discriminator 8)
     cd0:	2a0103f7 	mov	w23, w1
     cd4:	910123a1 	add	x1, x29, #0x48
     cd8:	a90153b3 	stp	x19, x20, [x29, #16]
     cdc:	aa0203f4 	mov	x20, x2
     ce0:	aa0003f3 	mov	x19, x0
     ce4:	910113a2 	add	x2, x29, #0x44
     ce8:	52800380 	mov	w0, #0x1c                  	// #28
     cec:	a9025bb5 	stp	x21, x22, [x29, #32]
     cf0:	aa0303f5 	mov	x21, x3
     cf4:	aa1e03f6 	mov	x22, x30
     cf8:	94000000 	bl	0 <perf_trace_buf_alloc>
     cfc:	b4000320 	cbz	x0, d60 <perf_trace_itimer_expire+0xb8>
/data3/home/yuanqiliang/code/arm-kernel/./include/trace/events/timer.h:336 (discriminator 11)
     d00:	f94027a5 	ldr	x5, [x29, #72]
perf_fetch_caller_regs():
/data3/home/yuanqiliang/code/arm-kernel/./include/linux/perf_event.h:1067 (discriminator 11)
     d04:	d28000a2 	mov	x2, #0x5                   	// #5
     d08:	910003e3 	mov	x3, sp
pid_nr():
/data3/home/yuanqiliang/code/arm-kernel/./include/linux/pid.h:160 (discriminator 11)
 * see also task_xid_nr() etc in include/linux/sched.h
 */

static inline pid_t pid_nr(struct pid *pid)
{
	pid_t nr = 0;
     d0c:	52800001 	mov	w1, #0x0                   	// #0
perf_fetch_caller_regs():
/data3/home/yuanqiliang/code/arm-kernel/./include/linux/perf_event.h:1067 (discriminator 11)
     d10:	f90074bd 	str	x29, [x5, #232]
     d14:	a90fd8a3 	stp	x3, x22, [x5, #248]
     d18:	f90084a2 	str	x2, [x5, #264]
perf_trace_itimer_expire():
/data3/home/yuanqiliang/code/arm-kernel/./include/trace/events/timer.h:336 (discriminator 11)
     d1c:	b9000817 	str	w23, [x0, #8]
     d20:	f9000815 	str	x21, [x0, #16]
pid_nr():
/data3/home/yuanqiliang/code/arm-kernel/./include/linux/pid.h:161 (discriminator 11)
	if (pid)
     d24:	b4000054 	cbz	x20, d2c <perf_trace_itimer_expire+0x84>
/data3/home/yuanqiliang/code/arm-kernel/./include/linux/pid.h:162
		nr = pid->numbers[0].nr;
     d28:	b9403a81 	ldr	w1, [x20, #56]
perf_trace_itimer_expire():
/data3/home/yuanqiliang/code/arm-kernel/./include/trace/events/timer.h:336
     d2c:	b94047a2 	ldr	w2, [x29, #68]
     d30:	aa1303e3 	mov	x3, x19
     d34:	b9000c01 	str	w1, [x0, #12]
     d38:	aa1803e6 	mov	x6, x24
     d3c:	d2800007 	mov	x7, #0x0                   	// #0
     d40:	d2800024 	mov	x4, #0x1                   	// #1
     d44:	52800381 	mov	w1, #0x1c                  	// #28
     d48:	94000000 	bl	0 <perf_trace_run_bpf_submit>
     d4c:	a94153b3 	ldp	x19, x20, [x29, #16]
     d50:	a9425bb5 	ldp	x21, x22, [x29, #32]
     d54:	a94363f7 	ldp	x23, x24, [sp, #48]
     d58:	a8c57bfd 	ldp	x29, x30, [sp], #80
     d5c:	d65f03c0 	ret
     d60:	a94153b3 	ldp	x19, x20, [x29, #16]
     d64:	a9425bb5 	ldp	x21, x22, [x29, #32]
     d68:	a94363f7 	ldp	x23, x24, [sp, #48]
     d6c:	a8c57bfd 	ldp	x29, x30, [sp], #80
     d70:	d65f03c0 	ret
     d74:	d503201f 	nop

0000000000000d78 <perf_trace_tick_stop>:
perf_trace_tick_stop():
/data3/home/yuanqiliang/code/arm-kernel/./include/trace/events/timer.h:392
#define tick_dep_name_end(sdep) { TICK_DEP_MASK_##sdep, #sdep }

#define show_tick_dep_name(val)				\
	__print_symbolic(val, TICK_DEP_NAMES)

TRACE_EVENT(tick_stop,
     d78:	a9bb7bfd 	stp	x29, x30, [sp, #-80]!
     d7c:	910003fd 	mov	x29, sp
     d80:	a9025bf5 	stp	x21, x22, [sp, #32]
__my_cpu_offset():
/data3/home/yuanqiliang/code/arm-kernel/./arch/arm64/include/asm/percpu.h:30
     d84:	d538d083 	mrs	x3, tpidr_el1
__read_once_size():
/data3/home/yuanqiliang/code/arm-kernel/./include/linux/compiler.h:193
     d88:	f9404005 	ldr	x5, [x0, #128]
perf_trace_tick_stop():
/data3/home/yuanqiliang/code/arm-kernel/./include/trace/events/timer.h:392
     d8c:	f9403c04 	ldr	x4, [x0, #120]
     d90:	8b030096 	add	x22, x4, x3
     d94:	b5000065 	cbnz	x5, da0 <perf_trace_tick_stop+0x28>
__read_once_size():
/data3/home/yuanqiliang/code/arm-kernel/./include/linux/compiler.h:193
     d98:	f8636883 	ldr	x3, [x4, x3]
perf_trace_tick_stop():
/data3/home/yuanqiliang/code/arm-kernel/./include/trace/events/timer.h:392
     d9c:	b40003a3 	cbz	x3, e10 <perf_trace_tick_stop+0x98>
/data3/home/yuanqiliang/code/arm-kernel/./include/trace/events/timer.h:392 (discriminator 8)
     da0:	aa1e03f5 	mov	x21, x30
     da4:	a90153b3 	stp	x19, x20, [x29, #16]
     da8:	2a0103f4 	mov	w20, w1
     dac:	aa0003f3 	mov	x19, x0
     db0:	910123a1 	add	x1, x29, #0x48
     db4:	52800280 	mov	w0, #0x14                  	// #20
     db8:	f9001bb7 	str	x23, [x29, #48]
     dbc:	2a0203f7 	mov	w23, w2
     dc0:	910113a2 	add	x2, x29, #0x44
     dc4:	94000000 	bl	0 <perf_trace_buf_alloc>
     dc8:	b40002a0 	cbz	x0, e1c <perf_trace_tick_stop+0xa4>
/data3/home/yuanqiliang/code/arm-kernel/./include/trace/events/timer.h:392 (discriminator 11)
     dcc:	f94027a4 	ldr	x4, [x29, #72]
perf_fetch_caller_regs():
/data3/home/yuanqiliang/code/arm-kernel/./include/linux/perf_event.h:1067 (discriminator 11)
     dd0:	910003e3 	mov	x3, sp
perf_trace_tick_stop():
/data3/home/yuanqiliang/code/arm-kernel/./include/trace/events/timer.h:392 (discriminator 11)
     dd4:	b94047a2 	ldr	w2, [x29, #68]
perf_fetch_caller_regs():
/data3/home/yuanqiliang/code/arm-kernel/./include/linux/perf_event.h:1067 (discriminator 11)
     dd8:	d28000a1 	mov	x1, #0x5                   	// #5
perf_trace_tick_stop():
/data3/home/yuanqiliang/code/arm-kernel/./include/trace/events/timer.h:392 (discriminator 11)
     ddc:	aa0403e5 	mov	x5, x4
     de0:	aa1603e6 	mov	x6, x22
perf_fetch_caller_regs():
/data3/home/yuanqiliang/code/arm-kernel/./include/linux/perf_event.h:1067 (discriminator 11)
     de4:	f900749d 	str	x29, [x4, #232]
perf_trace_tick_stop():
/data3/home/yuanqiliang/code/arm-kernel/./include/trace/events/timer.h:392 (discriminator 11)
     de8:	d2800007 	mov	x7, #0x0                   	// #0
perf_fetch_caller_regs():
/data3/home/yuanqiliang/code/arm-kernel/./include/linux/perf_event.h:1067 (discriminator 11)
     dec:	a90fd483 	stp	x3, x21, [x4, #248]
perf_trace_tick_stop():
/data3/home/yuanqiliang/code/arm-kernel/./include/trace/events/timer.h:392 (discriminator 11)
     df0:	aa1303e3 	mov	x3, x19
perf_fetch_caller_regs():
/data3/home/yuanqiliang/code/arm-kernel/./include/linux/perf_event.h:1067 (discriminator 11)
     df4:	f9008481 	str	x1, [x4, #264]
perf_trace_tick_stop():
/data3/home/yuanqiliang/code/arm-kernel/./include/trace/events/timer.h:392 (discriminator 11)
     df8:	d2800024 	mov	x4, #0x1                   	// #1
     dfc:	29015c14 	stp	w20, w23, [x0, #8]
     e00:	52800281 	mov	w1, #0x14                  	// #20
     e04:	94000000 	bl	0 <perf_trace_run_bpf_submit>
     e08:	a94153b3 	ldp	x19, x20, [x29, #16]
     e0c:	f9401bb7 	ldr	x23, [x29, #48]
/data3/home/yuanqiliang/code/arm-kernel/./include/trace/events/timer.h:392
     e10:	a9425bf5 	ldp	x21, x22, [sp, #32]
     e14:	a8c57bfd 	ldp	x29, x30, [sp], #80
     e18:	d65f03c0 	ret
     e1c:	a94153b3 	ldp	x19, x20, [x29, #16]
     e20:	a9425bf5 	ldp	x21, x22, [sp, #32]
     e24:	f9401bb7 	ldr	x23, [x29, #48]
     e28:	a8c57bfd 	ldp	x29, x30, [sp], #80
     e2c:	d65f03c0 	ret

0000000000000e30 <trace_event_raw_event_timer_class>:
trace_event_raw_event_timer_class():
/data3/home/yuanqiliang/code/arm-kernel/./include/trace/events/timer.h:12
DECLARE_EVENT_CLASS(timer_class,
     e30:	a9ba7bfd 	stp	x29, x30, [sp, #-96]!
     e34:	910003fd 	mov	x29, sp
     e38:	a90153f3 	stp	x19, x20, [sp, #16]
     e3c:	aa0003f4 	mov	x20, x0
     e40:	f90013f5 	str	x21, [sp, #32]
     e44:	aa0103f5 	mov	x21, x1
trace_trigger_soft_disabled():
/data3/home/yuanqiliang/code/arm-kernel/./include/linux/trace_events.h:454
 * otherwise false.
 */
static inline bool
trace_trigger_soft_disabled(struct trace_event_file *file)
{
	unsigned long eflags = file->flags;
     e48:	f9402413 	ldr	x19, [x0, #72]
/data3/home/yuanqiliang/code/arm-kernel/./include/linux/trace_events.h:456

	if (!(eflags & EVENT_FILE_FL_TRIGGER_COND)) {
     e4c:	37400093 	tbnz	w19, #8, e5c <trace_event_raw_event_timer_class+0x2c>
/data3/home/yuanqiliang/code/arm-kernel/./include/linux/trace_events.h:457
		if (eflags & EVENT_FILE_FL_TRIGGER_MODE)
     e50:	373801f3 	tbnz	w19, #7, e8c <trace_event_raw_event_timer_class+0x5c>
/data3/home/yuanqiliang/code/arm-kernel/./include/linux/trace_events.h:459
			event_triggers_call(file, NULL, NULL);
		if (eflags & EVENT_FILE_FL_SOFT_DISABLED)
     e54:	37300153 	tbnz	w19, #6, e7c <trace_event_raw_event_timer_class+0x4c>
/data3/home/yuanqiliang/code/arm-kernel/./include/linux/trace_events.h:461
			return true;
		if (eflags & EVENT_FILE_FL_PID_FILTER)
     e58:	37480233 	tbnz	w19, #9, e9c <trace_event_raw_event_timer_class+0x6c>
trace_event_raw_event_timer_class():
/data3/home/yuanqiliang/code/arm-kernel/./include/trace/events/timer.h:12
     e5c:	aa1403e1 	mov	x1, x20
     e60:	9100c3e0 	add	x0, sp, #0x30
     e64:	d2800202 	mov	x2, #0x10                  	// #16
     e68:	94000000 	bl	0 <trace_event_buffer_reserve>
     e6c:	b4000080 	cbz	x0, e7c <trace_event_raw_event_timer_class+0x4c>
/data3/home/yuanqiliang/code/arm-kernel/./include/trace/events/timer.h:12 (discriminator 5)
     e70:	f9000415 	str	x21, [x0, #8]
     e74:	9100c3e0 	add	x0, sp, #0x30
     e78:	94000000 	bl	0 <trace_event_buffer_commit>
/data3/home/yuanqiliang/code/arm-kernel/./include/trace/events/timer.h:12
     e7c:	a94153f3 	ldp	x19, x20, [sp, #16]
     e80:	f94013f5 	ldr	x21, [sp, #32]
     e84:	a8c67bfd 	ldp	x29, x30, [sp], #96
     e88:	d65f03c0 	ret
trace_trigger_soft_disabled():
/data3/home/yuanqiliang/code/arm-kernel/./include/linux/trace_events.h:458
			event_triggers_call(file, NULL, NULL);
     e8c:	d2800002 	mov	x2, #0x0                   	// #0
     e90:	d2800001 	mov	x1, #0x0                   	// #0
     e94:	94000000 	bl	0 <event_triggers_call>
     e98:	17ffffef 	b	e54 <trace_event_raw_event_timer_class+0x24>
/data3/home/yuanqiliang/code/arm-kernel/./include/linux/trace_events.h:462
			return trace_event_ignore_this_pid(file);
     e9c:	aa1403e0 	mov	x0, x20
     ea0:	94000000 	bl	0 <trace_event_ignore_this_pid>
trace_event_raw_event_timer_class():
/data3/home/yuanqiliang/code/arm-kernel/./include/trace/events/timer.h:12
     ea4:	72001c1f 	tst	w0, #0xff
     ea8:	54fffda0 	b.eq	e5c <trace_event_raw_event_timer_class+0x2c>  // b.none
     eac:	17fffff4 	b	e7c <trace_event_raw_event_timer_class+0x4c>

0000000000000eb0 <trace_event_raw_event_timer_start>:
trace_event_raw_event_timer_start():
/data3/home/yuanqiliang/code/arm-kernel/./include/trace/events/timer.h:52
TRACE_EVENT(timer_start,
     eb0:	a9b97bfd 	stp	x29, x30, [sp, #-112]!
     eb4:	910003fd 	mov	x29, sp
     eb8:	a90153f3 	stp	x19, x20, [sp, #16]
     ebc:	aa0003f4 	mov	x20, x0
     ec0:	a9025bf5 	stp	x21, x22, [sp, #32]
     ec4:	aa0103f5 	mov	x21, x1
     ec8:	2a0303f6 	mov	w22, w3
     ecc:	f9001bf7 	str	x23, [sp, #48]
     ed0:	aa0203f7 	mov	x23, x2
trace_trigger_soft_disabled():
/data3/home/yuanqiliang/code/arm-kernel/./include/linux/trace_events.h:454
	unsigned long eflags = file->flags;
     ed4:	f9402413 	ldr	x19, [x0, #72]
/data3/home/yuanqiliang/code/arm-kernel/./include/linux/trace_events.h:456
	if (!(eflags & EVENT_FILE_FL_TRIGGER_COND)) {
     ed8:	37400093 	tbnz	w19, #8, ee8 <trace_event_raw_event_timer_start+0x38>
/data3/home/yuanqiliang/code/arm-kernel/./include/linux/trace_events.h:457
		if (eflags & EVENT_FILE_FL_TRIGGER_MODE)
     edc:	373802f3 	tbnz	w19, #7, f38 <trace_event_raw_event_timer_start+0x88>
/data3/home/yuanqiliang/code/arm-kernel/./include/linux/trace_events.h:459
		if (eflags & EVENT_FILE_FL_SOFT_DISABLED)
     ee0:	37300233 	tbnz	w19, #6, f24 <trace_event_raw_event_timer_start+0x74>
/data3/home/yuanqiliang/code/arm-kernel/./include/linux/trace_events.h:461
		if (eflags & EVENT_FILE_FL_PID_FILTER)
     ee4:	37480333 	tbnz	w19, #9, f48 <trace_event_raw_event_timer_start+0x98>
trace_event_raw_event_timer_start():
/data3/home/yuanqiliang/code/arm-kernel/./include/trace/events/timer.h:52
     ee8:	aa1403e1 	mov	x1, x20
     eec:	910103e0 	add	x0, sp, #0x40
     ef0:	d2800602 	mov	x2, #0x30                  	// #48
     ef4:	94000000 	bl	0 <trace_event_buffer_reserve>
     ef8:	aa0003e1 	mov	x1, x0
     efc:	b4000140 	cbz	x0, f24 <trace_event_raw_event_timer_start+0x74>
/data3/home/yuanqiliang/code/arm-kernel/./include/trace/events/timer.h:52 (discriminator 5)
     f00:	90000002 	adrp	x2, 0 <jiffies>
     f04:	f9000435 	str	x21, [x1, #8]
     f08:	910103e0 	add	x0, sp, #0x40
     f0c:	f9400042 	ldr	x2, [x2]
     f10:	f9400ea3 	ldr	x3, [x21, #24]
     f14:	a9015c23 	stp	x3, x23, [x1, #16]
     f18:	f9001022 	str	x2, [x1, #32]
     f1c:	b9002836 	str	w22, [x1, #40]
     f20:	94000000 	bl	0 <trace_event_buffer_commit>
/data3/home/yuanqiliang/code/arm-kernel/./include/trace/events/timer.h:52
     f24:	a94153f3 	ldp	x19, x20, [sp, #16]
     f28:	a9425bf5 	ldp	x21, x22, [sp, #32]
     f2c:	f9401bf7 	ldr	x23, [sp, #48]
     f30:	a8c77bfd 	ldp	x29, x30, [sp], #112
     f34:	d65f03c0 	ret
trace_trigger_soft_disabled():
/data3/home/yuanqiliang/code/arm-kernel/./include/linux/trace_events.h:458
			event_triggers_call(file, NULL, NULL);
     f38:	d2800002 	mov	x2, #0x0                   	// #0
     f3c:	d2800001 	mov	x1, #0x0                   	// #0
     f40:	94000000 	bl	0 <event_triggers_call>
     f44:	17ffffe7 	b	ee0 <trace_event_raw_event_timer_start+0x30>
/data3/home/yuanqiliang/code/arm-kernel/./include/linux/trace_events.h:462
			return trace_event_ignore_this_pid(file);
     f48:	aa1403e0 	mov	x0, x20
     f4c:	94000000 	bl	0 <trace_event_ignore_this_pid>
trace_event_raw_event_timer_start():
/data3/home/yuanqiliang/code/arm-kernel/./include/trace/events/timer.h:52
     f50:	72001c1f 	tst	w0, #0xff
     f54:	54fffca0 	b.eq	ee8 <trace_event_raw_event_timer_start+0x38>  // b.none
     f58:	17fffff3 	b	f24 <trace_event_raw_event_timer_start+0x74>
     f5c:	d503201f 	nop

0000000000000f60 <trace_event_raw_event_timer_expire_entry>:
trace_event_raw_event_timer_expire_entry():
/data3/home/yuanqiliang/code/arm-kernel/./include/trace/events/timer.h:90
TRACE_EVENT(timer_expire_entry,
     f60:	a9ba7bfd 	stp	x29, x30, [sp, #-96]!
     f64:	910003fd 	mov	x29, sp
     f68:	a90153f3 	stp	x19, x20, [sp, #16]
     f6c:	aa0003f4 	mov	x20, x0
     f70:	f90013f5 	str	x21, [sp, #32]
     f74:	aa0103f5 	mov	x21, x1
trace_trigger_soft_disabled():
/data3/home/yuanqiliang/code/arm-kernel/./include/linux/trace_events.h:454
	unsigned long eflags = file->flags;
     f78:	f9402413 	ldr	x19, [x0, #72]
/data3/home/yuanqiliang/code/arm-kernel/./include/linux/trace_events.h:456
	if (!(eflags & EVENT_FILE_FL_TRIGGER_COND)) {
     f7c:	37400093 	tbnz	w19, #8, f8c <trace_event_raw_event_timer_expire_entry+0x2c>
/data3/home/yuanqiliang/code/arm-kernel/./include/linux/trace_events.h:457
		if (eflags & EVENT_FILE_FL_TRIGGER_MODE)
     f80:	37380293 	tbnz	w19, #7, fd0 <trace_event_raw_event_timer_expire_entry+0x70>
/data3/home/yuanqiliang/code/arm-kernel/./include/linux/trace_events.h:459
		if (eflags & EVENT_FILE_FL_SOFT_DISABLED)
     f84:	373001f3 	tbnz	w19, #6, fc0 <trace_event_raw_event_timer_expire_entry+0x60>
/data3/home/yuanqiliang/code/arm-kernel/./include/linux/trace_events.h:461
		if (eflags & EVENT_FILE_FL_PID_FILTER)
     f88:	374802d3 	tbnz	w19, #9, fe0 <trace_event_raw_event_timer_expire_entry+0x80>
trace_event_raw_event_timer_expire_entry():
/data3/home/yuanqiliang/code/arm-kernel/./include/trace/events/timer.h:90
     f8c:	aa1403e1 	mov	x1, x20
     f90:	9100c3e0 	add	x0, sp, #0x30
     f94:	d2800402 	mov	x2, #0x20                  	// #32
     f98:	94000000 	bl	0 <trace_event_buffer_reserve>
     f9c:	aa0003e1 	mov	x1, x0
     fa0:	b4000100 	cbz	x0, fc0 <trace_event_raw_event_timer_expire_entry+0x60>
/data3/home/yuanqiliang/code/arm-kernel/./include/trace/events/timer.h:90 (discriminator 5)
     fa4:	90000002 	adrp	x2, 0 <jiffies>
     fa8:	9100c3e0 	add	x0, sp, #0x30
     fac:	f9400042 	ldr	x2, [x2]
     fb0:	a9008835 	stp	x21, x2, [x1, #8]
     fb4:	f9400ea2 	ldr	x2, [x21, #24]
     fb8:	f9000c22 	str	x2, [x1, #24]
     fbc:	94000000 	bl	0 <trace_event_buffer_commit>
/data3/home/yuanqiliang/code/arm-kernel/./include/trace/events/timer.h:90
     fc0:	a94153f3 	ldp	x19, x20, [sp, #16]
     fc4:	f94013f5 	ldr	x21, [sp, #32]
     fc8:	a8c67bfd 	ldp	x29, x30, [sp], #96
     fcc:	d65f03c0 	ret
trace_trigger_soft_disabled():
/data3/home/yuanqiliang/code/arm-kernel/./include/linux/trace_events.h:458
			event_triggers_call(file, NULL, NULL);
     fd0:	d2800002 	mov	x2, #0x0                   	// #0
     fd4:	d2800001 	mov	x1, #0x0                   	// #0
     fd8:	94000000 	bl	0 <event_triggers_call>
     fdc:	17ffffea 	b	f84 <trace_event_raw_event_timer_expire_entry+0x24>
/data3/home/yuanqiliang/code/arm-kernel/./include/linux/trace_events.h:462
			return trace_event_ignore_this_pid(file);
     fe0:	aa1403e0 	mov	x0, x20
     fe4:	94000000 	bl	0 <trace_event_ignore_this_pid>
trace_event_raw_event_timer_expire_entry():
/data3/home/yuanqiliang/code/arm-kernel/./include/trace/events/timer.h:90
     fe8:	72001c1f 	tst	w0, #0xff
     fec:	54fffd00 	b.eq	f8c <trace_event_raw_event_timer_expire_entry+0x2c>  // b.none
     ff0:	17fffff4 	b	fc0 <trace_event_raw_event_timer_expire_entry+0x60>
     ff4:	d503201f 	nop

0000000000000ff8 <trace_event_raw_event_hrtimer_init>:
trace_event_raw_event_hrtimer_init():
/data3/home/yuanqiliang/code/arm-kernel/./include/trace/events/timer.h:163
TRACE_EVENT(hrtimer_init,
     ff8:	a9b97bfd 	stp	x29, x30, [sp, #-112]!
     ffc:	910003fd 	mov	x29, sp
    1000:	a90153f3 	stp	x19, x20, [sp, #16]
    1004:	aa0003f4 	mov	x20, x0
    1008:	a9025bf5 	stp	x21, x22, [sp, #32]
    100c:	2a0203f6 	mov	w22, w2
    1010:	2a0303f5 	mov	w21, w3
    1014:	f9001bf7 	str	x23, [sp, #48]
    1018:	aa0103f7 	mov	x23, x1
trace_trigger_soft_disabled():
/data3/home/yuanqiliang/code/arm-kernel/./include/linux/trace_events.h:454
	unsigned long eflags = file->flags;
    101c:	f9402413 	ldr	x19, [x0, #72]
/data3/home/yuanqiliang/code/arm-kernel/./include/linux/trace_events.h:456
	if (!(eflags & EVENT_FILE_FL_TRIGGER_COND)) {
    1020:	37400093 	tbnz	w19, #8, 1030 <trace_event_raw_event_hrtimer_init+0x38>
/data3/home/yuanqiliang/code/arm-kernel/./include/linux/trace_events.h:457
		if (eflags & EVENT_FILE_FL_TRIGGER_MODE)
    1024:	37380253 	tbnz	w19, #7, 106c <trace_event_raw_event_hrtimer_init+0x74>
/data3/home/yuanqiliang/code/arm-kernel/./include/linux/trace_events.h:459
		if (eflags & EVENT_FILE_FL_SOFT_DISABLED)
    1028:	37300193 	tbnz	w19, #6, 1058 <trace_event_raw_event_hrtimer_init+0x60>
/data3/home/yuanqiliang/code/arm-kernel/./include/linux/trace_events.h:461
		if (eflags & EVENT_FILE_FL_PID_FILTER)
    102c:	37480293 	tbnz	w19, #9, 107c <trace_event_raw_event_hrtimer_init+0x84>
trace_event_raw_event_hrtimer_init():
/data3/home/yuanqiliang/code/arm-kernel/./include/trace/events/timer.h:163
    1030:	aa1403e1 	mov	x1, x20
    1034:	910103e0 	add	x0, sp, #0x40
    1038:	d2800302 	mov	x2, #0x18                  	// #24
    103c:	94000000 	bl	0 <trace_event_buffer_reserve>
    1040:	aa0003e1 	mov	x1, x0
    1044:	b40000a0 	cbz	x0, 1058 <trace_event_raw_event_hrtimer_init+0x60>
/data3/home/yuanqiliang/code/arm-kernel/./include/trace/events/timer.h:163 (discriminator 5)
    1048:	f9000437 	str	x23, [x1, #8]
    104c:	910103e0 	add	x0, sp, #0x40
    1050:	29025436 	stp	w22, w21, [x1, #16]
    1054:	94000000 	bl	0 <trace_event_buffer_commit>
/data3/home/yuanqiliang/code/arm-kernel/./include/trace/events/timer.h:163
    1058:	a94153f3 	ldp	x19, x20, [sp, #16]
    105c:	a9425bf5 	ldp	x21, x22, [sp, #32]
    1060:	f9401bf7 	ldr	x23, [sp, #48]
    1064:	a8c77bfd 	ldp	x29, x30, [sp], #112
    1068:	d65f03c0 	ret
trace_trigger_soft_disabled():
/data3/home/yuanqiliang/code/arm-kernel/./include/linux/trace_events.h:458
			event_triggers_call(file, NULL, NULL);
    106c:	d2800002 	mov	x2, #0x0                   	// #0
    1070:	d2800001 	mov	x1, #0x0                   	// #0
    1074:	94000000 	bl	0 <event_triggers_call>
    1078:	17ffffec 	b	1028 <trace_event_raw_event_hrtimer_init+0x30>
/data3/home/yuanqiliang/code/arm-kernel/./include/linux/trace_events.h:462
			return trace_event_ignore_this_pid(file);
    107c:	aa1403e0 	mov	x0, x20
    1080:	94000000 	bl	0 <trace_event_ignore_this_pid>
trace_event_raw_event_hrtimer_init():
/data3/home/yuanqiliang/code/arm-kernel/./include/trace/events/timer.h:163
    1084:	72001c1f 	tst	w0, #0xff
    1088:	54fffd40 	b.eq	1030 <trace_event_raw_event_hrtimer_init+0x38>  // b.none
    108c:	17fffff3 	b	1058 <trace_event_raw_event_hrtimer_init+0x60>

0000000000001090 <trace_event_raw_event_hrtimer_start>:
trace_event_raw_event_hrtimer_start():
/data3/home/yuanqiliang/code/arm-kernel/./include/trace/events/timer.h:191
TRACE_EVENT(hrtimer_start,
    1090:	a9ba7bfd 	stp	x29, x30, [sp, #-96]!
    1094:	910003fd 	mov	x29, sp
    1098:	a90153f3 	stp	x19, x20, [sp, #16]
    109c:	aa0103f4 	mov	x20, x1
    10a0:	a9025bf5 	stp	x21, x22, [sp, #32]
    10a4:	aa0003f5 	mov	x21, x0
    10a8:	2a0203f6 	mov	w22, w2
trace_trigger_soft_disabled():
/data3/home/yuanqiliang/code/arm-kernel/./include/linux/trace_events.h:454
	unsigned long eflags = file->flags;
    10ac:	f9402413 	ldr	x19, [x0, #72]
/data3/home/yuanqiliang/code/arm-kernel/./include/linux/trace_events.h:456
	if (!(eflags & EVENT_FILE_FL_TRIGGER_COND)) {
    10b0:	37400093 	tbnz	w19, #8, 10c0 <trace_event_raw_event_hrtimer_start+0x30>
/data3/home/yuanqiliang/code/arm-kernel/./include/linux/trace_events.h:457
		if (eflags & EVENT_FILE_FL_TRIGGER_MODE)
    10b4:	373802f3 	tbnz	w19, #7, 1110 <trace_event_raw_event_hrtimer_start+0x80>
/data3/home/yuanqiliang/code/arm-kernel/./include/linux/trace_events.h:459
		if (eflags & EVENT_FILE_FL_SOFT_DISABLED)
    10b8:	37300253 	tbnz	w19, #6, 1100 <trace_event_raw_event_hrtimer_start+0x70>
/data3/home/yuanqiliang/code/arm-kernel/./include/linux/trace_events.h:461
		if (eflags & EVENT_FILE_FL_PID_FILTER)
    10bc:	37480333 	tbnz	w19, #9, 1120 <trace_event_raw_event_hrtimer_start+0x90>
trace_event_raw_event_hrtimer_start():
/data3/home/yuanqiliang/code/arm-kernel/./include/trace/events/timer.h:191
    10c0:	aa1503e1 	mov	x1, x21
    10c4:	9100c3e0 	add	x0, sp, #0x30
    10c8:	d2800602 	mov	x2, #0x30                  	// #48
    10cc:	94000000 	bl	0 <trace_event_buffer_reserve>
    10d0:	aa0003e1 	mov	x1, x0
    10d4:	b4000160 	cbz	x0, 1100 <trace_event_raw_event_hrtimer_start+0x70>
/data3/home/yuanqiliang/code/arm-kernel/./include/trace/events/timer.h:191 (discriminator 5)
    10d8:	f9000434 	str	x20, [x1, #8]
    10dc:	9100c3e0 	add	x0, sp, #0x30
    10e0:	f9401682 	ldr	x2, [x20, #40]
    10e4:	f9000822 	str	x2, [x1, #16]
hrtimer_get_expires():
/data3/home/yuanqiliang/code/arm-kernel/./include/linux/hrtimer.h:261 (discriminator 5)
	return timer->node.expires;
    10e8:	f9400e82 	ldr	x2, [x20, #24]
trace_event_raw_event_hrtimer_start():
/data3/home/yuanqiliang/code/arm-kernel/./include/trace/events/timer.h:191 (discriminator 5)
    10ec:	f9000c22 	str	x2, [x1, #24]
hrtimer_get_softexpires():
/data3/home/yuanqiliang/code/arm-kernel/./include/linux/hrtimer.h:266 (discriminator 5)
	return timer->_softexpires;
    10f0:	f9401282 	ldr	x2, [x20, #32]
trace_event_raw_event_hrtimer_start():
/data3/home/yuanqiliang/code/arm-kernel/./include/trace/events/timer.h:191 (discriminator 5)
    10f4:	f9001022 	str	x2, [x1, #32]
    10f8:	b9002836 	str	w22, [x1, #40]
    10fc:	94000000 	bl	0 <trace_event_buffer_commit>
/data3/home/yuanqiliang/code/arm-kernel/./include/trace/events/timer.h:191
    1100:	a94153f3 	ldp	x19, x20, [sp, #16]
    1104:	a9425bf5 	ldp	x21, x22, [sp, #32]
    1108:	a8c67bfd 	ldp	x29, x30, [sp], #96
    110c:	d65f03c0 	ret
trace_trigger_soft_disabled():
/data3/home/yuanqiliang/code/arm-kernel/./include/linux/trace_events.h:458
			event_triggers_call(file, NULL, NULL);
    1110:	d2800002 	mov	x2, #0x0                   	// #0
    1114:	d2800001 	mov	x1, #0x0                   	// #0
    1118:	94000000 	bl	0 <event_triggers_call>
    111c:	17ffffe7 	b	10b8 <trace_event_raw_event_hrtimer_start+0x28>
/data3/home/yuanqiliang/code/arm-kernel/./include/linux/trace_events.h:462
			return trace_event_ignore_this_pid(file);
    1120:	aa1503e0 	mov	x0, x21
    1124:	94000000 	bl	0 <trace_event_ignore_this_pid>
trace_event_raw_event_hrtimer_start():
/data3/home/yuanqiliang/code/arm-kernel/./include/trace/events/timer.h:191
    1128:	72001c1f 	tst	w0, #0xff
    112c:	54fffca0 	b.eq	10c0 <trace_event_raw_event_hrtimer_start+0x30>  // b.none
    1130:	17fffff4 	b	1100 <trace_event_raw_event_hrtimer_start+0x70>
    1134:	d503201f 	nop

0000000000001138 <trace_event_raw_event_hrtimer_expire_entry>:
trace_event_raw_event_hrtimer_expire_entry():
/data3/home/yuanqiliang/code/arm-kernel/./include/trace/events/timer.h:228
TRACE_EVENT(hrtimer_expire_entry,
    1138:	a9ba7bfd 	stp	x29, x30, [sp, #-96]!
    113c:	910003fd 	mov	x29, sp
    1140:	a90153f3 	stp	x19, x20, [sp, #16]
    1144:	aa0003f4 	mov	x20, x0
    1148:	a9025bf5 	stp	x21, x22, [sp, #32]
    114c:	aa0103f5 	mov	x21, x1
    1150:	aa0203f6 	mov	x22, x2
trace_trigger_soft_disabled():
/data3/home/yuanqiliang/code/arm-kernel/./include/linux/trace_events.h:454
	unsigned long eflags = file->flags;
    1154:	f9402413 	ldr	x19, [x0, #72]
/data3/home/yuanqiliang/code/arm-kernel/./include/linux/trace_events.h:456
	if (!(eflags & EVENT_FILE_FL_TRIGGER_COND)) {
    1158:	37400093 	tbnz	w19, #8, 1168 <trace_event_raw_event_hrtimer_expire_entry+0x30>
/data3/home/yuanqiliang/code/arm-kernel/./include/linux/trace_events.h:457
		if (eflags & EVENT_FILE_FL_TRIGGER_MODE)
    115c:	37380293 	tbnz	w19, #7, 11ac <trace_event_raw_event_hrtimer_expire_entry+0x74>
/data3/home/yuanqiliang/code/arm-kernel/./include/linux/trace_events.h:459
		if (eflags & EVENT_FILE_FL_SOFT_DISABLED)
    1160:	373001f3 	tbnz	w19, #6, 119c <trace_event_raw_event_hrtimer_expire_entry+0x64>
/data3/home/yuanqiliang/code/arm-kernel/./include/linux/trace_events.h:461
		if (eflags & EVENT_FILE_FL_PID_FILTER)
    1164:	374802d3 	tbnz	w19, #9, 11bc <trace_event_raw_event_hrtimer_expire_entry+0x84>
trace_event_raw_event_hrtimer_expire_entry():
/data3/home/yuanqiliang/code/arm-kernel/./include/trace/events/timer.h:228
    1168:	aa1403e1 	mov	x1, x20
    116c:	9100c3e0 	add	x0, sp, #0x30
    1170:	d2800402 	mov	x2, #0x20                  	// #32
    1174:	94000000 	bl	0 <trace_event_buffer_reserve>
    1178:	aa0003e1 	mov	x1, x0
    117c:	b4000100 	cbz	x0, 119c <trace_event_raw_event_hrtimer_expire_entry+0x64>
/data3/home/yuanqiliang/code/arm-kernel/./include/trace/events/timer.h:228 (discriminator 5)
    1180:	f9000435 	str	x21, [x1, #8]
    1184:	9100c3e0 	add	x0, sp, #0x30
    1188:	f94002c2 	ldr	x2, [x22]
    118c:	f9000822 	str	x2, [x1, #16]
    1190:	f94016a2 	ldr	x2, [x21, #40]
    1194:	f9000c22 	str	x2, [x1, #24]
    1198:	94000000 	bl	0 <trace_event_buffer_commit>
/data3/home/yuanqiliang/code/arm-kernel/./include/trace/events/timer.h:228
    119c:	a94153f3 	ldp	x19, x20, [sp, #16]
    11a0:	a9425bf5 	ldp	x21, x22, [sp, #32]
    11a4:	a8c67bfd 	ldp	x29, x30, [sp], #96
    11a8:	d65f03c0 	ret
trace_trigger_soft_disabled():
/data3/home/yuanqiliang/code/arm-kernel/./include/linux/trace_events.h:458
			event_triggers_call(file, NULL, NULL);
    11ac:	d2800002 	mov	x2, #0x0                   	// #0
    11b0:	d2800001 	mov	x1, #0x0                   	// #0
    11b4:	94000000 	bl	0 <event_triggers_call>
    11b8:	17ffffea 	b	1160 <trace_event_raw_event_hrtimer_expire_entry+0x28>
/data3/home/yuanqiliang/code/arm-kernel/./include/linux/trace_events.h:462
			return trace_event_ignore_this_pid(file);
    11bc:	aa1403e0 	mov	x0, x20
    11c0:	94000000 	bl	0 <trace_event_ignore_this_pid>
trace_event_raw_event_hrtimer_expire_entry():
/data3/home/yuanqiliang/code/arm-kernel/./include/trace/events/timer.h:228
    11c4:	72001c1f 	tst	w0, #0xff
    11c8:	54fffd00 	b.eq	1168 <trace_event_raw_event_hrtimer_expire_entry+0x30>  // b.none
    11cc:	17fffff4 	b	119c <trace_event_raw_event_hrtimer_expire_entry+0x64>

00000000000011d0 <trace_event_raw_event_hrtimer_class>:
trace_event_raw_event_hrtimer_class():
/data3/home/yuanqiliang/code/arm-kernel/./include/trace/events/timer.h:250
DECLARE_EVENT_CLASS(hrtimer_class,
    11d0:	a9ba7bfd 	stp	x29, x30, [sp, #-96]!
    11d4:	910003fd 	mov	x29, sp
    11d8:	a90153f3 	stp	x19, x20, [sp, #16]
    11dc:	aa0003f4 	mov	x20, x0
    11e0:	f90013f5 	str	x21, [sp, #32]
    11e4:	aa0103f5 	mov	x21, x1
trace_trigger_soft_disabled():
/data3/home/yuanqiliang/code/arm-kernel/./include/linux/trace_events.h:454
	unsigned long eflags = file->flags;
    11e8:	f9402413 	ldr	x19, [x0, #72]
/data3/home/yuanqiliang/code/arm-kernel/./include/linux/trace_events.h:456
	if (!(eflags & EVENT_FILE_FL_TRIGGER_COND)) {
    11ec:	37400093 	tbnz	w19, #8, 11fc <trace_event_raw_event_hrtimer_class+0x2c>
/data3/home/yuanqiliang/code/arm-kernel/./include/linux/trace_events.h:457
		if (eflags & EVENT_FILE_FL_TRIGGER_MODE)
    11f0:	373801f3 	tbnz	w19, #7, 122c <trace_event_raw_event_hrtimer_class+0x5c>
/data3/home/yuanqiliang/code/arm-kernel/./include/linux/trace_events.h:459
		if (eflags & EVENT_FILE_FL_SOFT_DISABLED)
    11f4:	37300153 	tbnz	w19, #6, 121c <trace_event_raw_event_hrtimer_class+0x4c>
/data3/home/yuanqiliang/code/arm-kernel/./include/linux/trace_events.h:461
		if (eflags & EVENT_FILE_FL_PID_FILTER)
    11f8:	37480233 	tbnz	w19, #9, 123c <trace_event_raw_event_hrtimer_class+0x6c>
trace_event_raw_event_hrtimer_class():
/data3/home/yuanqiliang/code/arm-kernel/./include/trace/events/timer.h:250
    11fc:	aa1403e1 	mov	x1, x20
    1200:	9100c3e0 	add	x0, sp, #0x30
    1204:	d2800202 	mov	x2, #0x10                  	// #16
    1208:	94000000 	bl	0 <trace_event_buffer_reserve>
    120c:	b4000080 	cbz	x0, 121c <trace_event_raw_event_hrtimer_class+0x4c>
/data3/home/yuanqiliang/code/arm-kernel/./include/trace/events/timer.h:250 (discriminator 5)
    1210:	f9000415 	str	x21, [x0, #8]
    1214:	9100c3e0 	add	x0, sp, #0x30
    1218:	94000000 	bl	0 <trace_event_buffer_commit>
/data3/home/yuanqiliang/code/arm-kernel/./include/trace/events/timer.h:250
    121c:	a94153f3 	ldp	x19, x20, [sp, #16]
    1220:	f94013f5 	ldr	x21, [sp, #32]
    1224:	a8c67bfd 	ldp	x29, x30, [sp], #96
    1228:	d65f03c0 	ret
trace_trigger_soft_disabled():
/data3/home/yuanqiliang/code/arm-kernel/./include/linux/trace_events.h:458
			event_triggers_call(file, NULL, NULL);
    122c:	d2800002 	mov	x2, #0x0                   	// #0
    1230:	d2800001 	mov	x1, #0x0                   	// #0
    1234:	94000000 	bl	0 <event_triggers_call>
    1238:	17ffffef 	b	11f4 <trace_event_raw_event_hrtimer_class+0x24>
/data3/home/yuanqiliang/code/arm-kernel/./include/linux/trace_events.h:462
			return trace_event_ignore_this_pid(file);
    123c:	aa1403e0 	mov	x0, x20
    1240:	94000000 	bl	0 <trace_event_ignore_this_pid>
trace_event_raw_event_hrtimer_class():
/data3/home/yuanqiliang/code/arm-kernel/./include/trace/events/timer.h:250
    1244:	72001c1f 	tst	w0, #0xff
    1248:	54fffda0 	b.eq	11fc <trace_event_raw_event_hrtimer_class+0x2c>  // b.none
    124c:	17fffff4 	b	121c <trace_event_raw_event_hrtimer_class+0x4c>

0000000000001250 <trace_event_raw_event_itimer_state>:
trace_event_raw_event_itimer_state():
/data3/home/yuanqiliang/code/arm-kernel/./include/trace/events/timer.h:299
TRACE_EVENT(itimer_state,
    1250:	a9b97bfd 	stp	x29, x30, [sp, #-112]!
    1254:	910003fd 	mov	x29, sp
    1258:	a90153f3 	stp	x19, x20, [sp, #16]
    125c:	aa0203f4 	mov	x20, x2
    1260:	a9025bf5 	stp	x21, x22, [sp, #32]
    1264:	aa0003f5 	mov	x21, x0
    1268:	aa0303f6 	mov	x22, x3
    126c:	f9001bf7 	str	x23, [sp, #48]
    1270:	2a0103f7 	mov	w23, w1
trace_trigger_soft_disabled():
/data3/home/yuanqiliang/code/arm-kernel/./include/linux/trace_events.h:454
	unsigned long eflags = file->flags;
    1274:	f9402413 	ldr	x19, [x0, #72]
/data3/home/yuanqiliang/code/arm-kernel/./include/linux/trace_events.h:456
	if (!(eflags & EVENT_FILE_FL_TRIGGER_COND)) {
    1278:	37400093 	tbnz	w19, #8, 1288 <trace_event_raw_event_itimer_state+0x38>
/data3/home/yuanqiliang/code/arm-kernel/./include/linux/trace_events.h:457
		if (eflags & EVENT_FILE_FL_TRIGGER_MODE)
    127c:	37380353 	tbnz	w19, #7, 12e4 <trace_event_raw_event_itimer_state+0x94>
/data3/home/yuanqiliang/code/arm-kernel/./include/linux/trace_events.h:459
		if (eflags & EVENT_FILE_FL_SOFT_DISABLED)
    1280:	37300293 	tbnz	w19, #6, 12d0 <trace_event_raw_event_itimer_state+0x80>
/data3/home/yuanqiliang/code/arm-kernel/./include/linux/trace_events.h:461
		if (eflags & EVENT_FILE_FL_PID_FILTER)
    1284:	37480393 	tbnz	w19, #9, 12f4 <trace_event_raw_event_itimer_state+0xa4>
trace_event_raw_event_itimer_state():
/data3/home/yuanqiliang/code/arm-kernel/./include/trace/events/timer.h:299
    1288:	aa1503e1 	mov	x1, x21
    128c:	910103e0 	add	x0, sp, #0x40
    1290:	d2800702 	mov	x2, #0x38                  	// #56
    1294:	94000000 	bl	0 <trace_event_buffer_reserve>
    1298:	aa0003e1 	mov	x1, x0
    129c:	b40001a0 	cbz	x0, 12d0 <trace_event_raw_event_itimer_state+0x80>
/data3/home/yuanqiliang/code/arm-kernel/./include/trace/events/timer.h:299 (discriminator 5)
    12a0:	b9000837 	str	w23, [x1, #8]
    12a4:	910103e0 	add	x0, sp, #0x40
    12a8:	f9000836 	str	x22, [x1, #16]
    12ac:	f9400a82 	ldr	x2, [x20, #16]
    12b0:	f9000c22 	str	x2, [x1, #24]
    12b4:	f9400e82 	ldr	x2, [x20, #24]
    12b8:	f9001022 	str	x2, [x1, #32]
    12bc:	f9400282 	ldr	x2, [x20]
    12c0:	f9001422 	str	x2, [x1, #40]
    12c4:	f9400682 	ldr	x2, [x20, #8]
    12c8:	f9001822 	str	x2, [x1, #48]
    12cc:	94000000 	bl	0 <trace_event_buffer_commit>
/data3/home/yuanqiliang/code/arm-kernel/./include/trace/events/timer.h:299
    12d0:	a94153f3 	ldp	x19, x20, [sp, #16]
    12d4:	a9425bf5 	ldp	x21, x22, [sp, #32]
    12d8:	f9401bf7 	ldr	x23, [sp, #48]
    12dc:	a8c77bfd 	ldp	x29, x30, [sp], #112
    12e0:	d65f03c0 	ret
trace_trigger_soft_disabled():
/data3/home/yuanqiliang/code/arm-kernel/./include/linux/trace_events.h:458
			event_triggers_call(file, NULL, NULL);
    12e4:	d2800002 	mov	x2, #0x0                   	// #0
    12e8:	d2800001 	mov	x1, #0x0                   	// #0
    12ec:	94000000 	bl	0 <event_triggers_call>
    12f0:	17ffffe4 	b	1280 <trace_event_raw_event_itimer_state+0x30>
/data3/home/yuanqiliang/code/arm-kernel/./include/linux/trace_events.h:462
			return trace_event_ignore_this_pid(file);
    12f4:	aa1503e0 	mov	x0, x21
    12f8:	94000000 	bl	0 <trace_event_ignore_this_pid>
trace_event_raw_event_itimer_state():
/data3/home/yuanqiliang/code/arm-kernel/./include/trace/events/timer.h:299
    12fc:	72001c1f 	tst	w0, #0xff
    1300:	54fffc40 	b.eq	1288 <trace_event_raw_event_itimer_state+0x38>  // b.none
    1304:	17fffff3 	b	12d0 <trace_event_raw_event_itimer_state+0x80>

0000000000001308 <trace_event_raw_event_itimer_expire>:
trace_event_raw_event_itimer_expire():
/data3/home/yuanqiliang/code/arm-kernel/./include/trace/events/timer.h:336
TRACE_EVENT(itimer_expire,
    1308:	a9b97bfd 	stp	x29, x30, [sp, #-112]!
    130c:	910003fd 	mov	x29, sp
    1310:	a90153f3 	stp	x19, x20, [sp, #16]
    1314:	aa0003f4 	mov	x20, x0
    1318:	a9025bf5 	stp	x21, x22, [sp, #32]
    131c:	aa0203f5 	mov	x21, x2
    1320:	aa0303f6 	mov	x22, x3
    1324:	f9001bf7 	str	x23, [sp, #48]
    1328:	2a0103f7 	mov	w23, w1
trace_trigger_soft_disabled():
/data3/home/yuanqiliang/code/arm-kernel/./include/linux/trace_events.h:454
	unsigned long eflags = file->flags;
    132c:	f9402413 	ldr	x19, [x0, #72]
/data3/home/yuanqiliang/code/arm-kernel/./include/linux/trace_events.h:456
	if (!(eflags & EVENT_FILE_FL_TRIGGER_COND)) {
    1330:	37400093 	tbnz	w19, #8, 1340 <trace_event_raw_event_itimer_expire+0x38>
/data3/home/yuanqiliang/code/arm-kernel/./include/linux/trace_events.h:457
		if (eflags & EVENT_FILE_FL_TRIGGER_MODE)
    1334:	373802b3 	tbnz	w19, #7, 1388 <trace_event_raw_event_itimer_expire+0x80>
/data3/home/yuanqiliang/code/arm-kernel/./include/linux/trace_events.h:459
		if (eflags & EVENT_FILE_FL_SOFT_DISABLED)
    1338:	373001f3 	tbnz	w19, #6, 1374 <trace_event_raw_event_itimer_expire+0x6c>
/data3/home/yuanqiliang/code/arm-kernel/./include/linux/trace_events.h:461
		if (eflags & EVENT_FILE_FL_PID_FILTER)
    133c:	374802f3 	tbnz	w19, #9, 1398 <trace_event_raw_event_itimer_expire+0x90>
trace_event_raw_event_itimer_expire():
/data3/home/yuanqiliang/code/arm-kernel/./include/trace/events/timer.h:336
    1340:	aa1403e1 	mov	x1, x20
    1344:	910103e0 	add	x0, sp, #0x40
    1348:	d2800302 	mov	x2, #0x18                  	// #24
    134c:	94000000 	bl	0 <trace_event_buffer_reserve>
    1350:	b4000120 	cbz	x0, 1374 <trace_event_raw_event_itimer_expire+0x6c>
/data3/home/yuanqiliang/code/arm-kernel/./include/trace/events/timer.h:336 (discriminator 5)
    1354:	b9000817 	str	w23, [x0, #8]
pid_nr():
/data3/home/yuanqiliang/code/arm-kernel/./include/linux/pid.h:160 (discriminator 5)
	pid_t nr = 0;
    1358:	52800001 	mov	w1, #0x0                   	// #0
trace_event_raw_event_itimer_expire():
/data3/home/yuanqiliang/code/arm-kernel/./include/trace/events/timer.h:336 (discriminator 5)
    135c:	f9000816 	str	x22, [x0, #16]
pid_nr():
/data3/home/yuanqiliang/code/arm-kernel/./include/linux/pid.h:161 (discriminator 5)
	if (pid)
    1360:	b4000055 	cbz	x21, 1368 <trace_event_raw_event_itimer_expire+0x60>
/data3/home/yuanqiliang/code/arm-kernel/./include/linux/pid.h:162
		nr = pid->numbers[0].nr;
    1364:	b9403aa1 	ldr	w1, [x21, #56]
trace_event_raw_event_itimer_expire():
/data3/home/yuanqiliang/code/arm-kernel/./include/trace/events/timer.h:336
    1368:	b9000c01 	str	w1, [x0, #12]
    136c:	910103e0 	add	x0, sp, #0x40
    1370:	94000000 	bl	0 <trace_event_buffer_commit>
    1374:	a94153f3 	ldp	x19, x20, [sp, #16]
    1378:	a9425bf5 	ldp	x21, x22, [sp, #32]
    137c:	f9401bf7 	ldr	x23, [sp, #48]
    1380:	a8c77bfd 	ldp	x29, x30, [sp], #112
    1384:	d65f03c0 	ret
trace_trigger_soft_disabled():
/data3/home/yuanqiliang/code/arm-kernel/./include/linux/trace_events.h:458
			event_triggers_call(file, NULL, NULL);
    1388:	d2800002 	mov	x2, #0x0                   	// #0
    138c:	d2800001 	mov	x1, #0x0                   	// #0
    1390:	94000000 	bl	0 <event_triggers_call>
    1394:	17ffffe9 	b	1338 <trace_event_raw_event_itimer_expire+0x30>
/data3/home/yuanqiliang/code/arm-kernel/./include/linux/trace_events.h:462
			return trace_event_ignore_this_pid(file);
    1398:	aa1403e0 	mov	x0, x20
    139c:	94000000 	bl	0 <trace_event_ignore_this_pid>
trace_event_raw_event_itimer_expire():
/data3/home/yuanqiliang/code/arm-kernel/./include/trace/events/timer.h:336
    13a0:	72001c1f 	tst	w0, #0xff
    13a4:	54fffce0 	b.eq	1340 <trace_event_raw_event_itimer_expire+0x38>  // b.none
    13a8:	17fffff3 	b	1374 <trace_event_raw_event_itimer_expire+0x6c>
    13ac:	d503201f 	nop

00000000000013b0 <trace_event_raw_event_tick_stop>:
trace_event_raw_event_tick_stop():
/data3/home/yuanqiliang/code/arm-kernel/./include/trace/events/timer.h:392
TRACE_EVENT(tick_stop,
    13b0:	a9ba7bfd 	stp	x29, x30, [sp, #-96]!
    13b4:	910003fd 	mov	x29, sp
    13b8:	a90153f3 	stp	x19, x20, [sp, #16]
    13bc:	aa0003f4 	mov	x20, x0
    13c0:	a9025bf5 	stp	x21, x22, [sp, #32]
    13c4:	2a0103f6 	mov	w22, w1
    13c8:	2a0203f5 	mov	w21, w2
trace_trigger_soft_disabled():
/data3/home/yuanqiliang/code/arm-kernel/./include/linux/trace_events.h:454
	unsigned long eflags = file->flags;
    13cc:	f9402413 	ldr	x19, [x0, #72]
/data3/home/yuanqiliang/code/arm-kernel/./include/linux/trace_events.h:456
	if (!(eflags & EVENT_FILE_FL_TRIGGER_COND)) {
    13d0:	37400093 	tbnz	w19, #8, 13e0 <trace_event_raw_event_tick_stop+0x30>
/data3/home/yuanqiliang/code/arm-kernel/./include/linux/trace_events.h:457
		if (eflags & EVENT_FILE_FL_TRIGGER_MODE)
    13d4:	37380213 	tbnz	w19, #7, 1414 <trace_event_raw_event_tick_stop+0x64>
/data3/home/yuanqiliang/code/arm-kernel/./include/linux/trace_events.h:459
		if (eflags & EVENT_FILE_FL_SOFT_DISABLED)
    13d8:	37300173 	tbnz	w19, #6, 1404 <trace_event_raw_event_tick_stop+0x54>
/data3/home/yuanqiliang/code/arm-kernel/./include/linux/trace_events.h:461
		if (eflags & EVENT_FILE_FL_PID_FILTER)
    13dc:	37480253 	tbnz	w19, #9, 1424 <trace_event_raw_event_tick_stop+0x74>
trace_event_raw_event_tick_stop():
/data3/home/yuanqiliang/code/arm-kernel/./include/trace/events/timer.h:392
    13e0:	aa1403e1 	mov	x1, x20
    13e4:	9100c3e0 	add	x0, sp, #0x30
    13e8:	d2800202 	mov	x2, #0x10                  	// #16
    13ec:	94000000 	bl	0 <trace_event_buffer_reserve>
    13f0:	aa0003e1 	mov	x1, x0
    13f4:	b4000080 	cbz	x0, 1404 <trace_event_raw_event_tick_stop+0x54>
/data3/home/yuanqiliang/code/arm-kernel/./include/trace/events/timer.h:392 (discriminator 5)
    13f8:	29015436 	stp	w22, w21, [x1, #8]
    13fc:	9100c3e0 	add	x0, sp, #0x30
    1400:	94000000 	bl	0 <trace_event_buffer_commit>
/data3/home/yuanqiliang/code/arm-kernel/./include/trace/events/timer.h:392
    1404:	a94153f3 	ldp	x19, x20, [sp, #16]
    1408:	a9425bf5 	ldp	x21, x22, [sp, #32]
    140c:	a8c67bfd 	ldp	x29, x30, [sp], #96
    1410:	d65f03c0 	ret
trace_trigger_soft_disabled():
/data3/home/yuanqiliang/code/arm-kernel/./include/linux/trace_events.h:458
			event_triggers_call(file, NULL, NULL);
    1414:	d2800002 	mov	x2, #0x0                   	// #0
    1418:	d2800001 	mov	x1, #0x0                   	// #0
    141c:	94000000 	bl	0 <event_triggers_call>
    1420:	17ffffee 	b	13d8 <trace_event_raw_event_tick_stop+0x28>
/data3/home/yuanqiliang/code/arm-kernel/./include/linux/trace_events.h:462
			return trace_event_ignore_this_pid(file);
    1424:	aa1403e0 	mov	x0, x20
    1428:	94000000 	bl	0 <trace_event_ignore_this_pid>
trace_event_raw_event_tick_stop():
/data3/home/yuanqiliang/code/arm-kernel/./include/trace/events/timer.h:392
    142c:	72001c1f 	tst	w0, #0xff
    1430:	54fffd80 	b.eq	13e0 <trace_event_raw_event_tick_stop+0x30>  // b.none
    1434:	17fffff4 	b	1404 <trace_event_raw_event_tick_stop+0x54>

0000000000001438 <trace_raw_output_timer_class>:
trace_raw_output_timer_class():
/data3/home/yuanqiliang/code/arm-kernel/./include/trace/events/timer.h:12
DECLARE_EVENT_CLASS(timer_class,
    1438:	a9be7bfd 	stp	x29, x30, [sp, #-32]!
    143c:	aa0203e1 	mov	x1, x2
    1440:	910003fd 	mov	x29, sp
    1444:	a90153f3 	stp	x19, x20, [sp, #16]
    1448:	aa0003f3 	mov	x19, x0
    144c:	f9506814 	ldr	x20, [x0, #8400]
    1450:	94000000 	bl	0 <trace_raw_output_prep>
    1454:	7100041f 	cmp	w0, #0x1
    1458:	54000080 	b.eq	1468 <trace_raw_output_timer_class+0x30>  // b.none
    145c:	a94153f3 	ldp	x19, x20, [sp, #16]
    1460:	a8c27bfd 	ldp	x29, x30, [sp], #32
    1464:	d65f03c0 	ret
/data3/home/yuanqiliang/code/arm-kernel/./include/trace/events/timer.h:12 (discriminator 2)
    1468:	f9400682 	ldr	x2, [x20, #8]
    146c:	90000001 	adrp	x1, 0 <__round_jiffies>
    1470:	91000021 	add	x1, x1, #0x0
    1474:	d2821500 	mov	x0, #0x10a8                	// #4264
    1478:	8b000273 	add	x19, x19, x0
    147c:	aa1303e0 	mov	x0, x19
    1480:	94000000 	bl	0 <trace_seq_printf>
    1484:	aa1303e0 	mov	x0, x19
    1488:	94000000 	bl	0 <trace_handle_return>
    148c:	a94153f3 	ldp	x19, x20, [sp, #16]
    1490:	a8c27bfd 	ldp	x29, x30, [sp], #32
    1494:	d65f03c0 	ret

0000000000001498 <trace_raw_output_timer_expire_entry>:
trace_raw_output_timer_expire_entry():
/data3/home/yuanqiliang/code/arm-kernel/./include/trace/events/timer.h:90
TRACE_EVENT(timer_expire_entry,
    1498:	a9be7bfd 	stp	x29, x30, [sp, #-32]!
    149c:	aa0203e1 	mov	x1, x2
    14a0:	910003fd 	mov	x29, sp
    14a4:	a90153f3 	stp	x19, x20, [sp, #16]
    14a8:	aa0003f3 	mov	x19, x0
    14ac:	f9506814 	ldr	x20, [x0, #8400]
    14b0:	94000000 	bl	0 <trace_raw_output_prep>
    14b4:	7100041f 	cmp	w0, #0x1
    14b8:	54000080 	b.eq	14c8 <trace_raw_output_timer_expire_entry+0x30>  // b.none
    14bc:	a94153f3 	ldp	x19, x20, [sp, #16]
    14c0:	a8c27bfd 	ldp	x29, x30, [sp], #32
    14c4:	d65f03c0 	ret
/data3/home/yuanqiliang/code/arm-kernel/./include/trace/events/timer.h:90 (discriminator 2)
    14c8:	a9409282 	ldp	x2, x4, [x20, #8]
    14cc:	90000001 	adrp	x1, 0 <__round_jiffies>
    14d0:	f9400e83 	ldr	x3, [x20, #24]
    14d4:	91000021 	add	x1, x1, #0x0
    14d8:	d2821500 	mov	x0, #0x10a8                	// #4264
    14dc:	8b000273 	add	x19, x19, x0
    14e0:	aa1303e0 	mov	x0, x19
    14e4:	94000000 	bl	0 <trace_seq_printf>
    14e8:	aa1303e0 	mov	x0, x19
    14ec:	94000000 	bl	0 <trace_handle_return>
    14f0:	a94153f3 	ldp	x19, x20, [sp, #16]
    14f4:	a8c27bfd 	ldp	x29, x30, [sp], #32
    14f8:	d65f03c0 	ret
    14fc:	d503201f 	nop

0000000000001500 <trace_raw_output_hrtimer_expire_entry>:
trace_raw_output_hrtimer_expire_entry():
/data3/home/yuanqiliang/code/arm-kernel/./include/trace/events/timer.h:228
TRACE_EVENT(hrtimer_expire_entry,
    1500:	a9be7bfd 	stp	x29, x30, [sp, #-32]!
    1504:	aa0203e1 	mov	x1, x2
    1508:	910003fd 	mov	x29, sp
    150c:	a90153f3 	stp	x19, x20, [sp, #16]
    1510:	aa0003f3 	mov	x19, x0
    1514:	f9506814 	ldr	x20, [x0, #8400]
    1518:	94000000 	bl	0 <trace_raw_output_prep>
    151c:	7100041f 	cmp	w0, #0x1
    1520:	54000080 	b.eq	1530 <trace_raw_output_hrtimer_expire_entry+0x30>  // b.none
    1524:	a94153f3 	ldp	x19, x20, [sp, #16]
    1528:	a8c27bfd 	ldp	x29, x30, [sp], #32
    152c:	d65f03c0 	ret
/data3/home/yuanqiliang/code/arm-kernel/./include/trace/events/timer.h:228 (discriminator 2)
    1530:	a9409282 	ldp	x2, x4, [x20, #8]
    1534:	90000001 	adrp	x1, 0 <__round_jiffies>
    1538:	f9400e83 	ldr	x3, [x20, #24]
    153c:	91000021 	add	x1, x1, #0x0
    1540:	d2821500 	mov	x0, #0x10a8                	// #4264
    1544:	8b000273 	add	x19, x19, x0
    1548:	aa1303e0 	mov	x0, x19
    154c:	94000000 	bl	0 <trace_seq_printf>
    1550:	aa1303e0 	mov	x0, x19
    1554:	94000000 	bl	0 <trace_handle_return>
    1558:	a94153f3 	ldp	x19, x20, [sp, #16]
    155c:	a8c27bfd 	ldp	x29, x30, [sp], #32
    1560:	d65f03c0 	ret
    1564:	d503201f 	nop

0000000000001568 <trace_raw_output_hrtimer_class>:
trace_raw_output_hrtimer_class():
/data3/home/yuanqiliang/code/arm-kernel/./include/trace/events/timer.h:250
DECLARE_EVENT_CLASS(hrtimer_class,
    1568:	a9be7bfd 	stp	x29, x30, [sp, #-32]!
    156c:	aa0203e1 	mov	x1, x2
    1570:	910003fd 	mov	x29, sp
    1574:	a90153f3 	stp	x19, x20, [sp, #16]
    1578:	aa0003f3 	mov	x19, x0
    157c:	f9506814 	ldr	x20, [x0, #8400]
    1580:	94000000 	bl	0 <trace_raw_output_prep>
    1584:	7100041f 	cmp	w0, #0x1
    1588:	54000080 	b.eq	1598 <trace_raw_output_hrtimer_class+0x30>  // b.none
    158c:	a94153f3 	ldp	x19, x20, [sp, #16]
    1590:	a8c27bfd 	ldp	x29, x30, [sp], #32
    1594:	d65f03c0 	ret
/data3/home/yuanqiliang/code/arm-kernel/./include/trace/events/timer.h:250 (discriminator 2)
    1598:	f9400682 	ldr	x2, [x20, #8]
    159c:	90000001 	adrp	x1, 0 <__round_jiffies>
    15a0:	91000021 	add	x1, x1, #0x0
    15a4:	d2821500 	mov	x0, #0x10a8                	// #4264
    15a8:	8b000273 	add	x19, x19, x0
    15ac:	aa1303e0 	mov	x0, x19
    15b0:	94000000 	bl	0 <trace_seq_printf>
    15b4:	aa1303e0 	mov	x0, x19
    15b8:	94000000 	bl	0 <trace_handle_return>
    15bc:	a94153f3 	ldp	x19, x20, [sp, #16]
    15c0:	a8c27bfd 	ldp	x29, x30, [sp], #32
    15c4:	d65f03c0 	ret

00000000000015c8 <trace_raw_output_itimer_state>:
trace_raw_output_itimer_state():
/data3/home/yuanqiliang/code/arm-kernel/./include/trace/events/timer.h:299
TRACE_EVENT(itimer_state,
    15c8:	a9be7bfd 	stp	x29, x30, [sp, #-32]!
    15cc:	aa0203e1 	mov	x1, x2
    15d0:	910003fd 	mov	x29, sp
    15d4:	a90153f3 	stp	x19, x20, [sp, #16]
    15d8:	aa0003f3 	mov	x19, x0
    15dc:	f9506814 	ldr	x20, [x0, #8400]
    15e0:	94000000 	bl	0 <trace_raw_output_prep>
    15e4:	7100041f 	cmp	w0, #0x1
    15e8:	54000080 	b.eq	15f8 <trace_raw_output_itimer_state+0x30>  // b.none
    15ec:	a94153f3 	ldp	x19, x20, [sp, #16]
    15f0:	a8c27bfd 	ldp	x29, x30, [sp], #32
    15f4:	d65f03c0 	ret
/data3/home/yuanqiliang/code/arm-kernel/./include/trace/events/timer.h:299 (discriminator 2)
    15f8:	a9411283 	ldp	x3, x4, [x20, #16]
    15fc:	90000001 	adrp	x1, 0 <__round_jiffies>
    1600:	a9421a85 	ldp	x5, x6, [x20, #32]
    1604:	91000021 	add	x1, x1, #0x0
    1608:	b9400a82 	ldr	w2, [x20, #8]
    160c:	d2821500 	mov	x0, #0x10a8                	// #4264
    1610:	f9401a87 	ldr	x7, [x20, #48]
    1614:	8b000273 	add	x19, x19, x0
    1618:	aa1303e0 	mov	x0, x19
    161c:	94000000 	bl	0 <trace_seq_printf>
    1620:	aa1303e0 	mov	x0, x19
    1624:	94000000 	bl	0 <trace_handle_return>
    1628:	a94153f3 	ldp	x19, x20, [sp, #16]
    162c:	a8c27bfd 	ldp	x29, x30, [sp], #32
    1630:	d65f03c0 	ret
    1634:	d503201f 	nop

0000000000001638 <trace_raw_output_itimer_expire>:
trace_raw_output_itimer_expire():
/data3/home/yuanqiliang/code/arm-kernel/./include/trace/events/timer.h:336
TRACE_EVENT(itimer_expire,
    1638:	a9be7bfd 	stp	x29, x30, [sp, #-32]!
    163c:	aa0203e1 	mov	x1, x2
    1640:	910003fd 	mov	x29, sp
    1644:	a90153f3 	stp	x19, x20, [sp, #16]
    1648:	aa0003f3 	mov	x19, x0
    164c:	f9506814 	ldr	x20, [x0, #8400]
    1650:	94000000 	bl	0 <trace_raw_output_prep>
    1654:	7100041f 	cmp	w0, #0x1
    1658:	54000080 	b.eq	1668 <trace_raw_output_itimer_expire+0x30>  // b.none
    165c:	a94153f3 	ldp	x19, x20, [sp, #16]
    1660:	a8c27bfd 	ldp	x29, x30, [sp], #32
    1664:	d65f03c0 	ret
/data3/home/yuanqiliang/code/arm-kernel/./include/trace/events/timer.h:336 (discriminator 2)
    1668:	29410e82 	ldp	w2, w3, [x20, #8]
    166c:	90000001 	adrp	x1, 0 <__round_jiffies>
    1670:	f9400a84 	ldr	x4, [x20, #16]
    1674:	91000021 	add	x1, x1, #0x0
    1678:	d2821500 	mov	x0, #0x10a8                	// #4264
    167c:	8b000273 	add	x19, x19, x0
    1680:	aa1303e0 	mov	x0, x19
    1684:	94000000 	bl	0 <trace_seq_printf>
    1688:	aa1303e0 	mov	x0, x19
    168c:	94000000 	bl	0 <trace_handle_return>
    1690:	a94153f3 	ldp	x19, x20, [sp, #16]
    1694:	a8c27bfd 	ldp	x29, x30, [sp], #32
    1698:	d65f03c0 	ret
    169c:	d503201f 	nop

00000000000016a0 <trace_raw_output_timer_start>:
trace_raw_output_timer_start():
/data3/home/yuanqiliang/code/arm-kernel/./include/trace/events/timer.h:52
TRACE_EVENT(timer_start,
    16a0:	d10143ff 	sub	sp, sp, #0x50
    16a4:	aa0203e1 	mov	x1, x2
    16a8:	a9017bfd 	stp	x29, x30, [sp, #16]
    16ac:	910043fd 	add	x29, sp, #0x10
    16b0:	a90253f3 	stp	x19, x20, [sp, #32]
    16b4:	aa0003f3 	mov	x19, x0
    16b8:	f9506814 	ldr	x20, [x0, #8400]
    16bc:	94000000 	bl	0 <trace_raw_output_prep>
    16c0:	7100041f 	cmp	w0, #0x1
    16c4:	540000a0 	b.eq	16d8 <trace_raw_output_timer_start+0x38>  // b.none
    16c8:	a9417bfd 	ldp	x29, x30, [sp, #16]
    16cc:	a94253f3 	ldp	x19, x20, [sp, #32]
    16d0:	910143ff 	add	sp, sp, #0x50
    16d4:	d65f03c0 	ret
    16d8:	a9035bf5 	stp	x21, x22, [sp, #48]
/data3/home/yuanqiliang/code/arm-kernel/./include/trace/events/timer.h:52 (discriminator 2)
    16dc:	d2821502 	mov	x2, #0x10a8                	// #4264
    16e0:	91016260 	add	x0, x19, #0x58
    16e4:	a90463f7 	stp	x23, x24, [sp, #64]
    16e8:	8b020273 	add	x19, x19, x2
    16ec:	90000003 	adrp	x3, 0 <__round_jiffies>
    16f0:	a941d696 	ldp	x22, x21, [x20, #24]
    16f4:	91000063 	add	x3, x3, #0x0
    16f8:	a940e297 	ldp	x23, x24, [x20, #8]
    16fc:	90000001 	adrp	x1, 0 <__round_jiffies>
    1700:	b9402a94 	ldr	w20, [x20, #40]
    1704:	91000021 	add	x1, x1, #0x0
    1708:	926e0e82 	and	x2, x20, #0x3c0000
    170c:	cb1502d5 	sub	x21, x22, x21
    1710:	94000000 	bl	0 <trace_print_flags_seq>
    1714:	f90003e0 	str	x0, [sp]
    1718:	aa1503e5 	mov	x5, x21
    171c:	aa1603e4 	mov	x4, x22
    1720:	aa1803e3 	mov	x3, x24
    1724:	aa1703e2 	mov	x2, x23
    1728:	53167e87 	lsr	w7, w20, #22
    172c:	12004686 	and	w6, w20, #0x3ffff
    1730:	90000001 	adrp	x1, 0 <__round_jiffies>
    1734:	91000021 	add	x1, x1, #0x0
    1738:	aa1303e0 	mov	x0, x19
    173c:	94000000 	bl	0 <trace_seq_printf>
    1740:	aa1303e0 	mov	x0, x19
    1744:	94000000 	bl	0 <trace_handle_return>
    1748:	a9417bfd 	ldp	x29, x30, [sp, #16]
    174c:	a94253f3 	ldp	x19, x20, [sp, #32]
    1750:	a9435bf5 	ldp	x21, x22, [sp, #48]
    1754:	a94463f7 	ldp	x23, x24, [sp, #64]
    1758:	910143ff 	add	sp, sp, #0x50
    175c:	d65f03c0 	ret

0000000000001760 <trace_raw_output_hrtimer_init>:
trace_raw_output_hrtimer_init():
/data3/home/yuanqiliang/code/arm-kernel/./include/trace/events/timer.h:163
TRACE_EVENT(hrtimer_init,
    1760:	a9bc7bfd 	stp	x29, x30, [sp, #-64]!
    1764:	aa0203e1 	mov	x1, x2
    1768:	910003fd 	mov	x29, sp
    176c:	a90153f3 	stp	x19, x20, [sp, #16]
    1770:	aa0003f3 	mov	x19, x0
    1774:	f9506814 	ldr	x20, [x0, #8400]
    1778:	94000000 	bl	0 <trace_raw_output_prep>
    177c:	7100041f 	cmp	w0, #0x1
    1780:	54000080 	b.eq	1790 <trace_raw_output_hrtimer_init+0x30>  // b.none
    1784:	a94153f3 	ldp	x19, x20, [sp, #16]
    1788:	a8c47bfd 	ldp	x29, x30, [sp], #64
    178c:	d65f03c0 	ret
    1790:	a9025bf5 	stp	x21, x22, [sp, #32]
/data3/home/yuanqiliang/code/arm-kernel/./include/trace/events/timer.h:163 (discriminator 2)
    1794:	d2821501 	mov	x1, #0x10a8                	// #4264
    1798:	91016276 	add	x22, x19, #0x58
    179c:	a90363f7 	stp	x23, x24, [sp, #48]
    17a0:	8b010273 	add	x19, x19, x1
    17a4:	90000015 	adrp	x21, 0 <__round_jiffies>
    17a8:	b9801281 	ldrsw	x1, [x20, #16]
    17ac:	910002b5 	add	x21, x21, #0x0
    17b0:	910142a2 	add	x2, x21, #0x50
    17b4:	aa1603e0 	mov	x0, x22
    17b8:	f9400697 	ldr	x23, [x20, #8]
    17bc:	94000000 	bl	0 <trace_print_symbols_seq>
    17c0:	aa0003f8 	mov	x24, x0
    17c4:	b9401681 	ldr	w1, [x20, #20]
    17c8:	910282a2 	add	x2, x21, #0xa0
    17cc:	aa1603e0 	mov	x0, x22
    17d0:	94000000 	bl	0 <trace_print_symbols_seq>
    17d4:	aa0003e4 	mov	x4, x0
    17d8:	aa1803e3 	mov	x3, x24
    17dc:	aa1703e2 	mov	x2, x23
    17e0:	90000001 	adrp	x1, 0 <__round_jiffies>
    17e4:	91000021 	add	x1, x1, #0x0
    17e8:	aa1303e0 	mov	x0, x19
    17ec:	94000000 	bl	0 <trace_seq_printf>
    17f0:	aa1303e0 	mov	x0, x19
    17f4:	94000000 	bl	0 <trace_handle_return>
    17f8:	a94153f3 	ldp	x19, x20, [sp, #16]
    17fc:	a9425bf5 	ldp	x21, x22, [sp, #32]
    1800:	a94363f7 	ldp	x23, x24, [sp, #48]
    1804:	a8c47bfd 	ldp	x29, x30, [sp], #64
    1808:	d65f03c0 	ret
    180c:	d503201f 	nop

0000000000001810 <trace_raw_output_hrtimer_start>:
trace_raw_output_hrtimer_start():
/data3/home/yuanqiliang/code/arm-kernel/./include/trace/events/timer.h:191
TRACE_EVENT(hrtimer_start,
    1810:	a9bc7bfd 	stp	x29, x30, [sp, #-64]!
    1814:	aa0203e1 	mov	x1, x2
    1818:	910003fd 	mov	x29, sp
    181c:	a90153f3 	stp	x19, x20, [sp, #16]
    1820:	aa0003f3 	mov	x19, x0
    1824:	f9506814 	ldr	x20, [x0, #8400]
    1828:	94000000 	bl	0 <trace_raw_output_prep>
    182c:	7100041f 	cmp	w0, #0x1
    1830:	54000080 	b.eq	1840 <trace_raw_output_hrtimer_start+0x30>  // b.none
    1834:	a94153f3 	ldp	x19, x20, [sp, #16]
    1838:	a8c47bfd 	ldp	x29, x30, [sp], #64
    183c:	d65f03c0 	ret
    1840:	a9025bf5 	stp	x21, x22, [sp, #32]
/data3/home/yuanqiliang/code/arm-kernel/./include/trace/events/timer.h:191 (discriminator 2)
    1844:	d2821501 	mov	x1, #0x10a8                	// #4264
    1848:	91016260 	add	x0, x19, #0x58
    184c:	f9001bf7 	str	x23, [sp, #48]
    1850:	8b010273 	add	x19, x19, x1
    1854:	90000002 	adrp	x2, 0 <__round_jiffies>
    1858:	91000042 	add	x2, x2, #0x0
    185c:	b9402a81 	ldr	w1, [x20, #40]
    1860:	9104c042 	add	x2, x2, #0x130
    1864:	a940da95 	ldp	x21, x22, [x20, #8]
    1868:	a941d297 	ldp	x23, x20, [x20, #24]
    186c:	94000000 	bl	0 <trace_print_symbols_seq>
    1870:	90000001 	adrp	x1, 0 <__round_jiffies>
    1874:	aa0003e6 	mov	x6, x0
    1878:	91000021 	add	x1, x1, #0x0
    187c:	aa1303e0 	mov	x0, x19
    1880:	aa1603e3 	mov	x3, x22
    1884:	aa1503e2 	mov	x2, x21
    1888:	aa1703e4 	mov	x4, x23
    188c:	aa1403e5 	mov	x5, x20
    1890:	94000000 	bl	0 <trace_seq_printf>
    1894:	aa1303e0 	mov	x0, x19
    1898:	94000000 	bl	0 <trace_handle_return>
    189c:	a94153f3 	ldp	x19, x20, [sp, #16]
    18a0:	a9425bf5 	ldp	x21, x22, [sp, #32]
    18a4:	f9401bf7 	ldr	x23, [sp, #48]
    18a8:	a8c47bfd 	ldp	x29, x30, [sp], #64
    18ac:	d65f03c0 	ret

00000000000018b0 <trace_raw_output_tick_stop>:
trace_raw_output_tick_stop():
/data3/home/yuanqiliang/code/arm-kernel/./include/trace/events/timer.h:392
TRACE_EVENT(tick_stop,
    18b0:	a9be7bfd 	stp	x29, x30, [sp, #-32]!
    18b4:	aa0203e1 	mov	x1, x2
    18b8:	910003fd 	mov	x29, sp
    18bc:	a90153f3 	stp	x19, x20, [sp, #16]
    18c0:	aa0003f3 	mov	x19, x0
    18c4:	f9506814 	ldr	x20, [x0, #8400]
    18c8:	94000000 	bl	0 <trace_raw_output_prep>
    18cc:	7100041f 	cmp	w0, #0x1
    18d0:	54000080 	b.eq	18e0 <trace_raw_output_tick_stop+0x30>  // b.none
    18d4:	a94153f3 	ldp	x19, x20, [sp, #16]
    18d8:	a8c27bfd 	ldp	x29, x30, [sp], #32
    18dc:	d65f03c0 	ret
/data3/home/yuanqiliang/code/arm-kernel/./include/trace/events/timer.h:392 (discriminator 2)
    18e0:	d2821501 	mov	x1, #0x10a8                	// #4264
    18e4:	91016260 	add	x0, x19, #0x58
    18e8:	8b010273 	add	x19, x19, x1
    18ec:	b9800e81 	ldrsw	x1, [x20, #12]
    18f0:	90000002 	adrp	x2, 0 <__round_jiffies>
    18f4:	b9400a94 	ldr	w20, [x20, #8]
    18f8:	91000042 	add	x2, x2, #0x0
    18fc:	91070042 	add	x2, x2, #0x1c0
    1900:	94000000 	bl	0 <trace_print_symbols_seq>
    1904:	aa0003e3 	mov	x3, x0
    1908:	2a1403e2 	mov	w2, w20
    190c:	90000001 	adrp	x1, 0 <__round_jiffies>
    1910:	91000021 	add	x1, x1, #0x0
    1914:	aa1303e0 	mov	x0, x19
    1918:	94000000 	bl	0 <trace_seq_printf>
    191c:	aa1303e0 	mov	x0, x19
    1920:	94000000 	bl	0 <trace_handle_return>
    1924:	a94153f3 	ldp	x19, x20, [sp, #16]
    1928:	a8c27bfd 	ldp	x29, x30, [sp], #32
    192c:	d65f03c0 	ret

0000000000001930 <__bpf_trace_timer_class>:
__bpf_trace_timer_class():
/data3/home/yuanqiliang/code/arm-kernel/./include/trace/events/timer.h:12
DECLARE_EVENT_CLASS(timer_class,
    1930:	a9bf7bfd 	stp	x29, x30, [sp, #-16]!
    1934:	910003fd 	mov	x29, sp
    1938:	94000000 	bl	0 <bpf_trace_run1>
    193c:	a8c17bfd 	ldp	x29, x30, [sp], #16
    1940:	d65f03c0 	ret
    1944:	d503201f 	nop

0000000000001948 <__bpf_trace_hrtimer_class>:
__bpf_trace_hrtimer_class():
/data3/home/yuanqiliang/code/arm-kernel/./include/trace/events/timer.h:250
DECLARE_EVENT_CLASS(hrtimer_class,
    1948:	a9bf7bfd 	stp	x29, x30, [sp, #-16]!
    194c:	910003fd 	mov	x29, sp
    1950:	94000000 	bl	0 <bpf_trace_run1>
    1954:	a8c17bfd 	ldp	x29, x30, [sp], #16
    1958:	d65f03c0 	ret
    195c:	d503201f 	nop

0000000000001960 <__bpf_trace_timer_start>:
__bpf_trace_timer_start():
/data3/home/yuanqiliang/code/arm-kernel/./include/trace/events/timer.h:52
TRACE_EVENT(timer_start,
    1960:	a9bf7bfd 	stp	x29, x30, [sp, #-16]!
    1964:	2a0303e3 	mov	w3, w3
    1968:	910003fd 	mov	x29, sp
    196c:	94000000 	bl	0 <bpf_trace_run3>
    1970:	a8c17bfd 	ldp	x29, x30, [sp], #16
    1974:	d65f03c0 	ret

0000000000001978 <__bpf_trace_hrtimer_init>:
__bpf_trace_hrtimer_init():
/data3/home/yuanqiliang/code/arm-kernel/./include/trace/events/timer.h:163
TRACE_EVENT(hrtimer_init,
    1978:	a9bf7bfd 	stp	x29, x30, [sp, #-16]!
    197c:	2a0303e3 	mov	w3, w3
    1980:	2a0203e2 	mov	w2, w2
    1984:	910003fd 	mov	x29, sp
    1988:	94000000 	bl	0 <bpf_trace_run3>
    198c:	a8c17bfd 	ldp	x29, x30, [sp], #16
    1990:	d65f03c0 	ret
    1994:	d503201f 	nop

0000000000001998 <__bpf_trace_itimer_state>:
__bpf_trace_itimer_state():
/data3/home/yuanqiliang/code/arm-kernel/./include/trace/events/timer.h:299
TRACE_EVENT(itimer_state,
    1998:	a9bf7bfd 	stp	x29, x30, [sp, #-16]!
    199c:	2a0103e1 	mov	w1, w1
    19a0:	910003fd 	mov	x29, sp
    19a4:	94000000 	bl	0 <bpf_trace_run3>
    19a8:	a8c17bfd 	ldp	x29, x30, [sp], #16
    19ac:	d65f03c0 	ret

00000000000019b0 <__bpf_trace_itimer_expire>:
__bpf_trace_itimer_expire():
/data3/home/yuanqiliang/code/arm-kernel/./include/trace/events/timer.h:336
TRACE_EVENT(itimer_expire,
    19b0:	a9bf7bfd 	stp	x29, x30, [sp, #-16]!
    19b4:	2a0103e1 	mov	w1, w1
    19b8:	910003fd 	mov	x29, sp
    19bc:	94000000 	bl	0 <bpf_trace_run3>
    19c0:	a8c17bfd 	ldp	x29, x30, [sp], #16
    19c4:	d65f03c0 	ret

00000000000019c8 <__bpf_trace_hrtimer_start>:
__bpf_trace_hrtimer_start():
/data3/home/yuanqiliang/code/arm-kernel/./include/trace/events/timer.h:191
TRACE_EVENT(hrtimer_start,
    19c8:	a9bf7bfd 	stp	x29, x30, [sp, #-16]!
    19cc:	2a0203e2 	mov	w2, w2
    19d0:	910003fd 	mov	x29, sp
    19d4:	94000000 	bl	0 <bpf_trace_run2>
    19d8:	a8c17bfd 	ldp	x29, x30, [sp], #16
    19dc:	d65f03c0 	ret

00000000000019e0 <__bpf_trace_hrtimer_expire_entry>:
__bpf_trace_hrtimer_expire_entry():
/data3/home/yuanqiliang/code/arm-kernel/./include/trace/events/timer.h:228
TRACE_EVENT(hrtimer_expire_entry,
    19e0:	a9bf7bfd 	stp	x29, x30, [sp, #-16]!
    19e4:	910003fd 	mov	x29, sp
    19e8:	94000000 	bl	0 <bpf_trace_run2>
    19ec:	a8c17bfd 	ldp	x29, x30, [sp], #16
    19f0:	d65f03c0 	ret
    19f4:	d503201f 	nop

00000000000019f8 <__bpf_trace_tick_stop>:
__bpf_trace_tick_stop():
/data3/home/yuanqiliang/code/arm-kernel/./include/trace/events/timer.h:392
TRACE_EVENT(tick_stop,
    19f8:	a9bf7bfd 	stp	x29, x30, [sp, #-16]!
    19fc:	2a0203e2 	mov	w2, w2
    1a00:	2a0103e1 	mov	w1, w1
    1a04:	910003fd 	mov	x29, sp
    1a08:	94000000 	bl	0 <bpf_trace_run2>
    1a0c:	a8c17bfd 	ldp	x29, x30, [sp], #16
    1a10:	d65f03c0 	ret
    1a14:	d503201f 	nop

0000000000001a18 <timers_update_migration>:
timers_update_migration():
/data3/home/yuanqiliang/code/arm-kernel/kernel/time/timer.c:226
{
    1a18:	a9bf7bfd 	stp	x29, x30, [sp, #-16]!
/data3/home/yuanqiliang/code/arm-kernel/kernel/time/timer.c:227
	if (sysctl_timer_migration && tick_nohz_active)
    1a1c:	90000000 	adrp	x0, 0 <__round_jiffies>
/data3/home/yuanqiliang/code/arm-kernel/kernel/time/timer.c:226
{
    1a20:	910003fd 	mov	x29, sp
/data3/home/yuanqiliang/code/arm-kernel/kernel/time/timer.c:227
	if (sysctl_timer_migration && tick_nohz_active)
    1a24:	b9400000 	ldr	w0, [x0]
    1a28:	34000080 	cbz	w0, 1a38 <timers_update_migration+0x20>
/data3/home/yuanqiliang/code/arm-kernel/kernel/time/timer.c:227 (discriminator 1)
    1a2c:	90000000 	adrp	x0, 0 <tick_nohz_active>
    1a30:	f9400000 	ldr	x0, [x0]
    1a34:	b50000c0 	cbnz	x0, 1a4c <timers_update_migration+0x34>
/data3/home/yuanqiliang/code/arm-kernel/kernel/time/timer.c:230
		static_branch_disable(&timers_migration_enabled);
    1a38:	90000000 	adrp	x0, 0 <__round_jiffies>
    1a3c:	91000000 	add	x0, x0, #0x0
    1a40:	94000000 	bl	0 <static_key_disable>
/data3/home/yuanqiliang/code/arm-kernel/kernel/time/timer.c:231
}
    1a44:	a8c17bfd 	ldp	x29, x30, [sp], #16
    1a48:	d65f03c0 	ret
/data3/home/yuanqiliang/code/arm-kernel/kernel/time/timer.c:228
		static_branch_enable(&timers_migration_enabled);
    1a4c:	90000000 	adrp	x0, 0 <__round_jiffies>
    1a50:	91000000 	add	x0, x0, #0x0
    1a54:	94000000 	bl	0 <static_key_enable>
/data3/home/yuanqiliang/code/arm-kernel/kernel/time/timer.c:231
}
    1a58:	a8c17bfd 	ldp	x29, x30, [sp], #16
    1a5c:	d65f03c0 	ret

0000000000001a60 <timer_update_keys>:
timer_update_keys():
/data3/home/yuanqiliang/code/arm-kernel/kernel/time/timer.c:237
{
    1a60:	a9be7bfd 	stp	x29, x30, [sp, #-32]!
    1a64:	910003fd 	mov	x29, sp
    1a68:	f9000bf3 	str	x19, [sp, #16]
/data3/home/yuanqiliang/code/arm-kernel/kernel/time/timer.c:238
	mutex_lock(&timer_keys_mutex);
    1a6c:	90000013 	adrp	x19, 0 <__round_jiffies>
    1a70:	91000273 	add	x19, x19, #0x0
    1a74:	91002273 	add	x19, x19, #0x8
    1a78:	aa1303e0 	mov	x0, x19
    1a7c:	94000000 	bl	0 <mutex_lock>
/data3/home/yuanqiliang/code/arm-kernel/kernel/time/timer.c:239
	timers_update_migration();
    1a80:	97ffffe6 	bl	1a18 <timers_update_migration>
/data3/home/yuanqiliang/code/arm-kernel/kernel/time/timer.c:240
	static_branch_enable(&timers_nohz_active);
    1a84:	90000000 	adrp	x0, 0 <__round_jiffies>
    1a88:	91000000 	add	x0, x0, #0x0
    1a8c:	91004000 	add	x0, x0, #0x10
    1a90:	94000000 	bl	0 <static_key_enable>
/data3/home/yuanqiliang/code/arm-kernel/kernel/time/timer.c:241
	mutex_unlock(&timer_keys_mutex);
    1a94:	aa1303e0 	mov	x0, x19
    1a98:	94000000 	bl	0 <mutex_unlock>
/data3/home/yuanqiliang/code/arm-kernel/kernel/time/timer.c:242
}
    1a9c:	f9400bf3 	ldr	x19, [sp, #16]
    1aa0:	a8c27bfd 	ldp	x29, x30, [sp], #32
    1aa4:	d65f03c0 	ret

0000000000001aa8 <lock_timer_base>:
lock_timer_base():
/data3/home/yuanqiliang/code/arm-kernel/kernel/time/timer.c:925
 * to wait until the migration is done.
 */
static struct timer_base *lock_timer_base(struct timer_list *timer,
					  unsigned long *flags)
	__acquires(timer->base->lock)
{
    1aa8:	a9b97bfd 	stp	x29, x30, [sp, #-112]!
queued_spin_unlock():
/data3/home/yuanqiliang/code/arm-kernel/./include/asm-generic/qspinlock.h:101
static __always_inline void queued_spin_unlock(struct qspinlock *lock)
{
	/*
	 * unlock() needs release semantics:
	 */
	smp_store_release(&lock->locked, 0);
    1aac:	52800003 	mov	w3, #0x0                   	// #0
lock_timer_base():
/data3/home/yuanqiliang/code/arm-kernel/kernel/time/timer.c:925
    1ab0:	910003fd 	mov	x29, sp
    1ab4:	a90363f7 	stp	x23, x24, [sp, #48]
    1ab8:	aa0003f7 	mov	x23, x0
    1abc:	a9046bf9 	stp	x25, x26, [sp, #64]
    1ac0:	90000019 	adrp	x25, 0 <__round_jiffies>
get_timer_cpu_base():
/data3/home/yuanqiliang/code/arm-kernel/kernel/time/timer.c:848
		base = per_cpu_ptr(&timer_bases[BASE_DEF], cpu);
    1ac4:	9000001a 	adrp	x26, 0 <__round_jiffies>
    1ac8:	91000339 	add	x25, x25, #0x0
    1acc:	9100035a 	add	x26, x26, #0x0
lock_timer_base():
/data3/home/yuanqiliang/code/arm-kernel/kernel/time/timer.c:925
{
    1ad0:	a90573fb 	stp	x27, x28, [sp, #80]
    1ad4:	9000001b 	adrp	x27, 0 <__per_cpu_offset>
    1ad8:	aa0103fc 	mov	x28, x1
    1adc:	9100037b 	add	x27, x27, #0x0
    1ae0:	a90153f3 	stp	x19, x20, [sp, #16]
    1ae4:	a9025bf5 	stp	x21, x22, [sp, #32]
__cmpxchg_case_acq_4():
/data3/home/yuanqiliang/code/arm-kernel/./arch/arm64/include/asm/atomic_ll_sc.h:272
__CMPXCHG_CASE(w, h,     2,        ,  ,  ,         )
__CMPXCHG_CASE(w,  ,     4,        ,  ,  ,         )
__CMPXCHG_CASE( ,  ,     8,        ,  ,  ,         )
__CMPXCHG_CASE(w, b, acq_1,        , a,  , "memory")
__CMPXCHG_CASE(w, h, acq_2,        , a,  , "memory")
__CMPXCHG_CASE(w,  , acq_4,        , a,  , "memory")
    1ae8:	d2800016 	mov	x22, #0x0                   	// #0
    1aec:	d2800035 	mov	x21, #0x1                   	// #1
__read_once_size():
/data3/home/yuanqiliang/code/arm-kernel/./include/linux/compiler.h:193
    1af0:	b94022f4 	ldr	w20, [x23, #32]
get_timer_cpu_base():
/data3/home/yuanqiliang/code/arm-kernel/kernel/time/timer.c:841
	struct timer_base *base = per_cpu_ptr(&timer_bases[BASE_STD], cpu);
    1af4:	aa1903e0 	mov	x0, x25
    1af8:	92404681 	and	x1, x20, #0x3ffff
lock_timer_base():
/data3/home/yuanqiliang/code/arm-kernel/kernel/time/timer.c:937
		 * might re-read @tf between the check for TIMER_MIGRATING
		 * and spin_lock().
		 */
		tf = READ_ONCE(timer->flags);

		if (!(tf & TIMER_MIGRATING)) {
    1afc:	37900294 	tbnz	w20, #18, 1b4c <lock_timer_base+0xa4>
get_timer_cpu_base():
/data3/home/yuanqiliang/code/arm-kernel/kernel/time/timer.c:848
		base = per_cpu_ptr(&timer_bases[BASE_DEF], cpu);
    1b00:	aa1a03e2 	mov	x2, x26
/data3/home/yuanqiliang/code/arm-kernel/kernel/time/timer.c:841
	struct timer_base *base = per_cpu_ptr(&timer_bases[BASE_STD], cpu);
    1b04:	f8617b73 	ldr	x19, [x27, x1, lsl #3]
/data3/home/yuanqiliang/code/arm-kernel/kernel/time/timer.c:847
	if (IS_ENABLED(CONFIG_NO_HZ_COMMON) && (tflags & TIMER_DEFERRABLE))
    1b08:	37980274 	tbnz	w20, #19, 1b54 <lock_timer_base+0xac>
/data3/home/yuanqiliang/code/arm-kernel/kernel/time/timer.c:841
	struct timer_base *base = per_cpu_ptr(&timer_bases[BASE_STD], cpu);
    1b0c:	8b130013 	add	x19, x0, x19
arch_local_irq_save():
/data3/home/yuanqiliang/code/arm-kernel/./arch/arm64/include/asm/irqflags.h:31
 * CPU interrupt mask handling.
 */
static inline unsigned long arch_local_irq_save(void)
{
	unsigned long flags;
	asm volatile(
    1b10:	d53b4238 	mrs	x24, daif
    1b14:	d50342df 	msr	daifset, #0x2
__cmpxchg_case_acq_4():
/data3/home/yuanqiliang/code/arm-kernel/./arch/arm64/include/asm/atomic_ll_sc.h:272
    1b18:	f9800271 	prfm	pstl1strm, [x19]
    1b1c:	885ffe61 	ldaxr	w1, [x19]
    1b20:	4a160020 	eor	w0, w1, w22
    1b24:	35000060 	cbnz	w0, 1b30 <lock_timer_base+0x88>
    1b28:	88007e75 	stxr	w0, w21, [x19]
    1b2c:	35ffff80 	cbnz	w0, 1b1c <lock_timer_base+0x74>
queued_spin_lock():
/data3/home/yuanqiliang/code/arm-kernel/./include/asm-generic/qspinlock.h:86
	if (likely(val == 0))
    1b30:	35000261 	cbnz	w1, 1b7c <lock_timer_base+0xd4>
lock_timer_base():
/data3/home/yuanqiliang/code/arm-kernel/kernel/time/timer.c:939
			base = get_timer_base(tf);
			raw_spin_lock_irqsave(&base->lock, *flags);
    1b34:	f9000398 	str	x24, [x28]
/data3/home/yuanqiliang/code/arm-kernel/kernel/time/timer.c:940
			if (timer->flags == tf)
    1b38:	b94022e0 	ldr	w0, [x23, #32]
    1b3c:	6b14001f 	cmp	w0, w20
    1b40:	540000e0 	b.eq	1b5c <lock_timer_base+0xb4>  // b.none
queued_spin_unlock():
/data3/home/yuanqiliang/code/arm-kernel/./include/asm-generic/qspinlock.h:101
	smp_store_release(&lock->locked, 0);
    1b44:	089ffe63 	stlrb	w3, [x19]
arch_local_irq_restore():
/data3/home/yuanqiliang/code/arm-kernel/./arch/arm64/include/asm/irqflags.h:77
/*
 * restore saved IRQ state
 */
static inline void arch_local_irq_restore(unsigned long flags)
{
	asm volatile(
    1b48:	d51b4238 	msr	daif, x24
cpu_relax():
/data3/home/yuanqiliang/code/arm-kernel/./arch/arm64/include/asm/processor.h:221

unsigned long get_wchan(struct task_struct *p);

static inline void cpu_relax(void)
{
	asm volatile("yield" ::: "memory");
    1b4c:	d503203f 	yield
    1b50:	17ffffe8 	b	1af0 <lock_timer_base+0x48>
get_timer_cpu_base():
/data3/home/yuanqiliang/code/arm-kernel/kernel/time/timer.c:848
		base = per_cpu_ptr(&timer_bases[BASE_DEF], cpu);
    1b54:	8b020273 	add	x19, x19, x2
    1b58:	17ffffee 	b	1b10 <lock_timer_base+0x68>
lock_timer_base():
/data3/home/yuanqiliang/code/arm-kernel/kernel/time/timer.c:946
				return base;
			raw_spin_unlock_irqrestore(&base->lock, *flags);
		}
		cpu_relax();
	}
}
    1b5c:	aa1303e0 	mov	x0, x19
    1b60:	a94153f3 	ldp	x19, x20, [sp, #16]
    1b64:	a9425bf5 	ldp	x21, x22, [sp, #32]
    1b68:	a94363f7 	ldp	x23, x24, [sp, #48]
    1b6c:	a9446bf9 	ldp	x25, x26, [sp, #64]
    1b70:	a94573fb 	ldp	x27, x28, [sp, #80]
    1b74:	a8c77bfd 	ldp	x29, x30, [sp], #112
    1b78:	d65f03c0 	ret
queued_spin_lock():
/data3/home/yuanqiliang/code/arm-kernel/./include/asm-generic/qspinlock.h:88
	queued_spin_lock_slowpath(lock, val);
    1b7c:	aa1303e0 	mov	x0, x19
    1b80:	b9006fe3 	str	w3, [sp, #108]
    1b84:	94000000 	bl	0 <queued_spin_lock_slowpath>
    1b88:	b9406fe3 	ldr	w3, [sp, #108]
    1b8c:	17ffffea 	b	1b34 <lock_timer_base+0x8c>

0000000000001b90 <try_to_del_timer_sync>:
try_to_del_timer_sync():
/data3/home/yuanqiliang/code/arm-kernel/kernel/time/timer.c:1219
 *
 * This function tries to deactivate a timer. Upon successful (ret >= 0)
 * exit the timer is not queued and the handler is not running on any CPU.
 */
int try_to_del_timer_sync(struct timer_list *timer)
{
    1b90:	a9bd7bfd 	stp	x29, x30, [sp, #-48]!
    1b94:	910003fd 	mov	x29, sp
/data3/home/yuanqiliang/code/arm-kernel/kernel/time/timer.c:1226
	unsigned long flags;
	int ret = -1;

	debug_assert_init(timer);

	base = lock_timer_base(timer, &flags);
    1b98:	9100a3e1 	add	x1, sp, #0x28
/data3/home/yuanqiliang/code/arm-kernel/kernel/time/timer.c:1219
{
    1b9c:	a90153f3 	stp	x19, x20, [sp, #16]
    1ba0:	aa0003f4 	mov	x20, x0
/data3/home/yuanqiliang/code/arm-kernel/kernel/time/timer.c:1226
	base = lock_timer_base(timer, &flags);
    1ba4:	97ffffc1 	bl	1aa8 <lock_timer_base>
    1ba8:	aa0003f3 	mov	x19, x0
/data3/home/yuanqiliang/code/arm-kernel/kernel/time/timer.c:1228

	if (base->running_timer != timer)
    1bac:	f9400400 	ldr	x0, [x0, #8]
    1bb0:	eb14001f 	cmp	x0, x20
    1bb4:	54000180 	b.eq	1be4 <try_to_del_timer_sync+0x54>  // b.none
/data3/home/yuanqiliang/code/arm-kernel/kernel/time/timer.c:1229
		ret = detach_if_pending(timer, base, true);
    1bb8:	aa1403e0 	mov	x0, x20
    1bbc:	52800022 	mov	w2, #0x1                   	// #1
    1bc0:	aa1303e1 	mov	x1, x19
    1bc4:	97fffa6d 	bl	578 <detach_if_pending>
queued_spin_unlock():
/data3/home/yuanqiliang/code/arm-kernel/./include/asm-generic/qspinlock.h:101
	smp_store_release(&lock->locked, 0);
    1bc8:	52800002 	mov	w2, #0x0                   	// #0
try_to_del_timer_sync():
/data3/home/yuanqiliang/code/arm-kernel/kernel/time/timer.c:1231

	raw_spin_unlock_irqrestore(&base->lock, flags);
    1bcc:	f94017e1 	ldr	x1, [sp, #40]
queued_spin_unlock():
/data3/home/yuanqiliang/code/arm-kernel/./include/asm-generic/qspinlock.h:101
    1bd0:	089ffe62 	stlrb	w2, [x19]
arch_local_irq_restore():
/data3/home/yuanqiliang/code/arm-kernel/./arch/arm64/include/asm/irqflags.h:77
    1bd4:	d51b4221 	msr	daif, x1
try_to_del_timer_sync():
/data3/home/yuanqiliang/code/arm-kernel/kernel/time/timer.c:1234

	return ret;
}
    1bd8:	a94153f3 	ldp	x19, x20, [sp, #16]
    1bdc:	a8c37bfd 	ldp	x29, x30, [sp], #48
    1be0:	d65f03c0 	ret
/data3/home/yuanqiliang/code/arm-kernel/kernel/time/timer.c:1222
	int ret = -1;
    1be4:	12800000 	mov	w0, #0xffffffff            	// #-1
    1be8:	17fffff8 	b	1bc8 <try_to_del_timer_sync+0x38>
    1bec:	d503201f 	nop

0000000000001bf0 <__next_timer_interrupt>:
__next_timer_interrupt():
/data3/home/yuanqiliang/code/arm-kernel/kernel/time/timer.c:1420
/*
 * Search the first expiring timer in the various clock levels. Caller must
 * hold base->lock.
 */
static unsigned long __next_timer_interrupt(struct timer_base *base)
{
    1bf0:	a9ba7bfd 	stp	x29, x30, [sp, #-96]!
    1bf4:	910003fd 	mov	x29, sp
    1bf8:	a90153f3 	stp	x19, x20, [sp, #16]
/data3/home/yuanqiliang/code/arm-kernel/kernel/time/timer.c:1424
	unsigned long clk, next, adj;
	unsigned lvl, offset = 0;

	next = base->clk + NEXT_TIMER_MAX_DELTA;
    1bfc:	d2800013 	mov	x19, #0x0                   	// #0
/data3/home/yuanqiliang/code/arm-kernel/kernel/time/timer.c:1420
{
    1c00:	a9025bf5 	stp	x21, x22, [sp, #32]
/data3/home/yuanqiliang/code/arm-kernel/kernel/time/timer.c:1424
	next = base->clk + NEXT_TIMER_MAX_DELTA;
    1c04:	b24077f6 	mov	x22, #0x3fffffff            	// #1073741823
/data3/home/yuanqiliang/code/arm-kernel/kernel/time/timer.c:1420
{
    1c08:	a90363f7 	stp	x23, x24, [sp, #48]
    1c0c:	9100a017 	add	x23, x0, #0x28
next_pending_bucket():
/data3/home/yuanqiliang/code/arm-kernel/kernel/time/timer.c:1412
	return pos < start ? pos + LVL_SIZE - start : -1;
    1c10:	52800818 	mov	w24, #0x40                  	// #64
__next_timer_interrupt():
/data3/home/yuanqiliang/code/arm-kernel/kernel/time/timer.c:1420
{
    1c14:	a9046bf9 	stp	x25, x26, [sp, #64]
    1c18:	a90573fb 	stp	x27, x28, [sp, #80]
/data3/home/yuanqiliang/code/arm-kernel/kernel/time/timer.c:1424
	next = base->clk + NEXT_TIMER_MAX_DELTA;
    1c1c:	f9400815 	ldr	x21, [x0, #16]
    1c20:	8b1602b6 	add	x22, x21, x22
/data3/home/yuanqiliang/code/arm-kernel/kernel/time/timer.c:1426
	clk = base->clk;
	for (lvl = 0; lvl < LVL_DEPTH; lvl++, offset += LVL_SIZE) {
    1c24:	1400000e 	b	1c5c <__next_timer_interrupt+0x6c>
next_pending_bucket():
/data3/home/yuanqiliang/code/arm-kernel/kernel/time/timer.c:1409
		return pos - start;
    1c28:	4b1b0074 	sub	w20, w3, w27
__next_timer_interrupt():
/data3/home/yuanqiliang/code/arm-kernel/kernel/time/timer.c:1432
		int pos = next_pending_bucket(base, offset, clk & LVL_MASK);

		if (pos >= 0) {
			unsigned long tmp = clk + (unsigned long) pos;

			tmp <<= LVL_SHIFT(lvl);
    1c2c:	0b190739 	add	w25, w25, w25, lsl #1
/data3/home/yuanqiliang/code/arm-kernel/kernel/time/timer.c:1430
			unsigned long tmp = clk + (unsigned long) pos;
    1c30:	8b34c2a0 	add	x0, x21, w20, sxtw
/data3/home/yuanqiliang/code/arm-kernel/kernel/time/timer.c:1429
		if (pos >= 0) {
    1c34:	37f80094 	tbnz	w20, #31, 1c44 <__next_timer_interrupt+0x54>
/data3/home/yuanqiliang/code/arm-kernel/kernel/time/timer.c:1432
			tmp <<= LVL_SHIFT(lvl);
    1c38:	9ad92019 	lsl	x25, x0, x25
/data3/home/yuanqiliang/code/arm-kernel/kernel/time/timer.c:1434
			if (time_before(tmp, next))
				next = tmp;
    1c3c:	eb16033f 	cmp	x25, x22
    1c40:	9a9952d6 	csel	x22, x22, x25, pl  // pl = nfrst
/data3/home/yuanqiliang/code/arm-kernel/kernel/time/timer.c:1472 (discriminator 2)
		 * from LVL2 to LVL3.
		 *
		 * So the simple check whether the lower bits of the current
		 * level are 0 or not is sufficient for all cases.
		 */
		adj = clk & LVL_CLK_MASK ? 1 : 0;
    1c44:	f2400abf 	tst	x21, #0x7
/data3/home/yuanqiliang/code/arm-kernel/kernel/time/timer.c:1473 (discriminator 2)
		clk >>= LVL_CLK_SHIFT;
    1c48:	d343feb5 	lsr	x21, x21, #3
/data3/home/yuanqiliang/code/arm-kernel/kernel/time/timer.c:1474 (discriminator 2)
		clk += adj;
    1c4c:	9a9506b5 	cinc	x21, x21, ne  // ne = any
    1c50:	aa1a03f3 	mov	x19, x26
/data3/home/yuanqiliang/code/arm-kernel/kernel/time/timer.c:1426 (discriminator 2)
	for (lvl = 0; lvl < LVL_DEPTH; lvl++, offset += LVL_SIZE) {
    1c54:	f100275f 	cmp	x26, #0x9
    1c58:	540002e0 	b.eq	1cb4 <__next_timer_interrupt+0xc4>  // b.none
    1c5c:	9100067a 	add	x26, x19, #0x1
/data3/home/yuanqiliang/code/arm-kernel/kernel/time/timer.c:1427
		int pos = next_pending_bucket(base, offset, clk & LVL_MASK);
    1c60:	120016b4 	and	w20, w21, #0x3f
    1c64:	2a1303f9 	mov	w25, w19
next_pending_bucket():
/data3/home/yuanqiliang/code/arm-kernel/kernel/time/timer.c:1407
	pos = find_next_bit(base->pending_map, end, start);
    1c68:	aa1703e0 	mov	x0, x23
/data3/home/yuanqiliang/code/arm-kernel/kernel/time/timer.c:1404
	unsigned pos, start = offset + clk;
    1c6c:	0b131a9b 	add	w27, w20, w19, lsl #6
    1c70:	d37ae75c 	lsl	x28, x26, #6
/data3/home/yuanqiliang/code/arm-kernel/kernel/time/timer.c:1408
	if (pos < end)
    1c74:	11000673 	add	w19, w19, #0x1
/data3/home/yuanqiliang/code/arm-kernel/kernel/time/timer.c:1407
	pos = find_next_bit(base->pending_map, end, start);
    1c78:	aa1c03e1 	mov	x1, x28
    1c7c:	aa1b03e2 	mov	x2, x27
    1c80:	94000000 	bl	0 <find_next_bit>
    1c84:	aa0003e3 	mov	x3, x0
/data3/home/yuanqiliang/code/arm-kernel/kernel/time/timer.c:1411
	pos = find_next_bit(base->pending_map, start, offset);
    1c88:	d1010382 	sub	x2, x28, #0x40
    1c8c:	aa1b03e1 	mov	x1, x27
    1c90:	aa1703e0 	mov	x0, x23
/data3/home/yuanqiliang/code/arm-kernel/kernel/time/timer.c:1408
	if (pos < end)
    1c94:	6b13187f 	cmp	w3, w19, lsl #6
    1c98:	54fffc83 	b.cc	1c28 <__next_timer_interrupt+0x38>  // b.lo, b.ul, b.last
/data3/home/yuanqiliang/code/arm-kernel/kernel/time/timer.c:1411
	pos = find_next_bit(base->pending_map, start, offset);
    1c9c:	94000000 	bl	0 <find_next_bit>
/data3/home/yuanqiliang/code/arm-kernel/kernel/time/timer.c:1412
	return pos < start ? pos + LVL_SIZE - start : -1;
    1ca0:	6b00037f 	cmp	w27, w0
    1ca4:	4b1b0301 	sub	w1, w24, w27
    1ca8:	0b000034 	add	w20, w1, w0
    1cac:	54fffc08 	b.hi	1c2c <__next_timer_interrupt+0x3c>  // b.pmore
    1cb0:	17ffffe5 	b	1c44 <__next_timer_interrupt+0x54>
__next_timer_interrupt():
/data3/home/yuanqiliang/code/arm-kernel/kernel/time/timer.c:1477
	}
	return next;
}
    1cb4:	aa1603e0 	mov	x0, x22
    1cb8:	a94153f3 	ldp	x19, x20, [sp, #16]
    1cbc:	a9425bf5 	ldp	x21, x22, [sp, #32]
    1cc0:	a94363f7 	ldp	x23, x24, [sp, #48]
    1cc4:	a9446bf9 	ldp	x25, x26, [sp, #64]
    1cc8:	a94573fb 	ldp	x27, x28, [sp, #80]
    1ccc:	a8c67bfd 	ldp	x29, x30, [sp], #96
    1cd0:	d65f03c0 	ret
    1cd4:	d503201f 	nop

0000000000001cd8 <collect_expired_timers>:
collect_expired_timers():
/data3/home/yuanqiliang/code/arm-kernel/kernel/time/timer.c:1593
	base->is_idle = false;
}

static int collect_expired_timers(struct timer_base *base,
				  struct hlist_head *heads)
{
    1cd8:	a9bd7bfd 	stp	x29, x30, [sp, #-48]!
__read_once_size():
/data3/home/yuanqiliang/code/arm-kernel/./include/linux/compiler.h:193
    1cdc:	90000002 	adrp	x2, 0 <jiffies>
collect_expired_timers():
/data3/home/yuanqiliang/code/arm-kernel/kernel/time/timer.c:1593
    1ce0:	910003fd 	mov	x29, sp
    1ce4:	a90153f3 	stp	x19, x20, [sp, #16]
    1ce8:	aa0103f4 	mov	x20, x1
    1cec:	aa0003f3 	mov	x19, x0
    1cf0:	f90013f5 	str	x21, [sp, #32]
__read_once_size():
/data3/home/yuanqiliang/code/arm-kernel/./include/linux/compiler.h:193
    1cf4:	f9400055 	ldr	x21, [x2]
collect_expired_timers():
/data3/home/yuanqiliang/code/arm-kernel/kernel/time/timer.c:1601
	/*
	 * NOHZ optimization. After a long idle sleep we need to forward the
	 * base to current jiffies. Avoid a loop by searching the bitfield for
	 * the next expiring timer.
	 */
	if ((long)(now - base->clk) > 2) {
    1cf8:	f9400803 	ldr	x3, [x0, #16]
    1cfc:	cb0302a1 	sub	x1, x21, x3
    1d00:	f100083f 	cmp	x1, #0x2
    1d04:	540000cd 	b.le	1d1c <collect_expired_timers+0x44>
/data3/home/yuanqiliang/code/arm-kernel/kernel/time/timer.c:1602
		unsigned long next = __next_timer_interrupt(base);
    1d08:	97ffffba 	bl	1bf0 <__next_timer_interrupt>
    1d0c:	aa0003e3 	mov	x3, x0
/data3/home/yuanqiliang/code/arm-kernel/kernel/time/timer.c:1608

		/*
		 * If the next timer is ahead of time forward to current
		 * jiffies, otherwise forward to the next expiry time:
		 */
		if (time_after(next, now)) {
    1d10:	eb0002bf 	cmp	x21, x0
    1d14:	54000464 	b.mi	1da0 <collect_expired_timers+0xc8>  // b.first
/data3/home/yuanqiliang/code/arm-kernel/kernel/time/timer.c:1616
			 * terminate the expiry loop immediately.
			 */
			base->clk = now;
			return 0;
		}
		base->clk = next;
    1d18:	f9000a60 	str	x0, [x19, #16]
__collect_expired_timers():
/data3/home/yuanqiliang/code/arm-kernel/kernel/time/timer.c:1378
	for (i = 0; i < LVL_DEPTH; i++) {
    1d1c:	9100a268 	add	x8, x19, #0x28
/data3/home/yuanqiliang/code/arm-kernel/kernel/time/timer.c:1382
			vec = base->vectors + idx;
    1d20:	9101c273 	add	x19, x19, #0x70
collect_expired_timers():
/data3/home/yuanqiliang/code/arm-kernel/kernel/time/timer.c:1593
{
    1d24:	52800005 	mov	w5, #0x0                   	// #0
__collect_expired_timers():
/data3/home/yuanqiliang/code/arm-kernel/kernel/time/timer.c:1375
	int i, levels = 0;
    1d28:	52800000 	mov	w0, #0x0                   	// #0
__test_and_clear_bit():
/data3/home/yuanqiliang/code/arm-kernel/./include/asm-generic/bitops/non-atomic.h:79
	unsigned long mask = BIT_MASK(nr);
    1d2c:	d280002a 	mov	x10, #0x1                   	// #1
__collect_expired_timers():
/data3/home/yuanqiliang/code/arm-kernel/kernel/time/timer.c:1379
		idx = (clk & LVL_MASK) + i * LVL_SIZE;
    1d30:	12001462 	and	w2, w3, #0x3f
/data3/home/yuanqiliang/code/arm-kernel/kernel/time/timer.c:1383
			hlist_move_list(vec, heads++);
    1d34:	aa1403e1 	mov	x1, x20
/data3/home/yuanqiliang/code/arm-kernel/kernel/time/timer.c:1379
		idx = (clk & LVL_MASK) + i * LVL_SIZE;
    1d38:	0b050046 	add	w6, w2, w5
__test_and_clear_bit():
/data3/home/yuanqiliang/code/arm-kernel/./include/asm-generic/bitops/non-atomic.h:80
	unsigned long *p = ((unsigned long *)addr) + BIT_WORD(nr);
    1d3c:	110100a5 	add	w5, w5, #0x40
    1d40:	13067cc4 	asr	w4, w6, #6
/data3/home/yuanqiliang/code/arm-kernel/./include/asm-generic/bitops/non-atomic.h:79
	unsigned long mask = BIT_MASK(nr);
    1d44:	9ac62142 	lsl	x2, x10, x6
/data3/home/yuanqiliang/code/arm-kernel/./include/asm-generic/bitops/non-atomic.h:80
	unsigned long *p = ((unsigned long *)addr) + BIT_WORD(nr);
    1d48:	93407c84 	sxtw	x4, w4
/data3/home/yuanqiliang/code/arm-kernel/./include/asm-generic/bitops/non-atomic.h:81
	unsigned long old = *p;
    1d4c:	f8647907 	ldr	x7, [x8, x4, lsl #3]
/data3/home/yuanqiliang/code/arm-kernel/./include/asm-generic/bitops/non-atomic.h:83
	*p = old & ~mask;
    1d50:	8a2200e9 	bic	x9, x7, x2
    1d54:	f8247909 	str	x9, [x8, x4, lsl #3]
__collect_expired_timers():
/data3/home/yuanqiliang/code/arm-kernel/kernel/time/timer.c:1381
		if (__test_and_clear_bit(idx, base->pending_map)) {
    1d58:	ea07005f 	tst	x2, x7
    1d5c:	54000100 	b.eq	1d7c <collect_expired_timers+0xa4>  // b.none
hlist_move_list():
/data3/home/yuanqiliang/code/arm-kernel/./include/linux/list.h:758
 * reference of the first entry if it exists.
 */
static inline void hlist_move_list(struct hlist_head *old,
				   struct hlist_head *new)
{
	new->first = old->first;
    1d60:	f8667a62 	ldr	x2, [x19, x6, lsl #3]
    1d64:	f8008422 	str	x2, [x1], #8
__collect_expired_timers():
/data3/home/yuanqiliang/code/arm-kernel/kernel/time/timer.c:1384
			levels++;
    1d68:	11000400 	add	w0, w0, #0x1
hlist_move_list():
/data3/home/yuanqiliang/code/arm-kernel/./include/linux/list.h:759
	if (new->first)
    1d6c:	b4000042 	cbz	x2, 1d74 <collect_expired_timers+0x9c>
/data3/home/yuanqiliang/code/arm-kernel/./include/linux/list.h:760
		new->first->pprev = &new->first;
    1d70:	f9000454 	str	x20, [x2, #8]
__collect_expired_timers():
/data3/home/yuanqiliang/code/arm-kernel/kernel/time/timer.c:1383
			hlist_move_list(vec, heads++);
    1d74:	aa0103f4 	mov	x20, x1
hlist_move_list():
/data3/home/yuanqiliang/code/arm-kernel/./include/linux/list.h:761
	old->first = NULL;
    1d78:	f8267a7f 	str	xzr, [x19, x6, lsl #3]
__collect_expired_timers():
/data3/home/yuanqiliang/code/arm-kernel/kernel/time/timer.c:1387
		if (clk & LVL_CLK_MASK)
    1d7c:	f240087f 	tst	x3, #0x7
/data3/home/yuanqiliang/code/arm-kernel/kernel/time/timer.c:1390
		clk >>= LVL_CLK_SHIFT;
    1d80:	d343fc63 	lsr	x3, x3, #3
/data3/home/yuanqiliang/code/arm-kernel/kernel/time/timer.c:1387
		if (clk & LVL_CLK_MASK)
    1d84:	54000061 	b.ne	1d90 <collect_expired_timers+0xb8>  // b.any
/data3/home/yuanqiliang/code/arm-kernel/kernel/time/timer.c:1378
	for (i = 0; i < LVL_DEPTH; i++) {
    1d88:	710900bf 	cmp	w5, #0x240
    1d8c:	54fffd21 	b.ne	1d30 <collect_expired_timers+0x58>  // b.any
collect_expired_timers():
/data3/home/yuanqiliang/code/arm-kernel/kernel/time/timer.c:1619
	}
	return __collect_expired_timers(base, heads);
}
    1d90:	a94153f3 	ldp	x19, x20, [sp, #16]
    1d94:	f94013f5 	ldr	x21, [sp, #32]
    1d98:	a8c37bfd 	ldp	x29, x30, [sp], #48
    1d9c:	d65f03c0 	ret
/data3/home/yuanqiliang/code/arm-kernel/kernel/time/timer.c:1613
			base->clk = now;
    1da0:	f9000a75 	str	x21, [x19, #16]
/data3/home/yuanqiliang/code/arm-kernel/kernel/time/timer.c:1614
			return 0;
    1da4:	52800000 	mov	w0, #0x0                   	// #0
/data3/home/yuanqiliang/code/arm-kernel/kernel/time/timer.c:1619
}
    1da8:	a94153f3 	ldp	x19, x20, [sp, #16]
    1dac:	f94013f5 	ldr	x21, [sp, #32]
    1db0:	a8c37bfd 	ldp	x29, x30, [sp], #48
    1db4:	d65f03c0 	ret

0000000000001db8 <process_timeout>:
process_timeout():
/data3/home/yuanqiliang/code/arm-kernel/kernel/time/timer.c:1740
	struct timer_list timer;
	struct task_struct *task;
};

static void process_timeout(struct timer_list *t)
{
    1db8:	a9bf7bfd 	stp	x29, x30, [sp, #-16]!
    1dbc:	910003fd 	mov	x29, sp
/data3/home/yuanqiliang/code/arm-kernel/kernel/time/timer.c:1743
	struct process_timer *timeout = from_timer(timeout, t, timer);

	wake_up_process(timeout->task);
    1dc0:	f9401400 	ldr	x0, [x0, #40]
    1dc4:	94000000 	bl	0 <wake_up_process>
/data3/home/yuanqiliang/code/arm-kernel/kernel/time/timer.c:1744
}
    1dc8:	a8c17bfd 	ldp	x29, x30, [sp], #16
    1dcc:	d65f03c0 	ret

0000000000001dd0 <call_timer_fn>:
call_timer_fn():
/data3/home/yuanqiliang/code/arm-kernel/kernel/time/timer.c:1304
{
    1dd0:	a9bd7bfd 	stp	x29, x30, [sp, #-48]!
    1dd4:	910003fd 	mov	x29, sp
    1dd8:	a90153f3 	stp	x19, x20, [sp, #16]
    1ddc:	aa0003f4 	mov	x20, x0
get_current():
/data3/home/yuanqiliang/code/arm-kernel/./arch/arm64/include/asm/current.h:19
 */
static __always_inline struct task_struct *get_current(void)
{
	unsigned long sp_el0;

	asm ("mrs %0, sp_el0" : "=r" (sp_el0));
    1de0:	d5384100 	mrs	x0, sp_el0
call_timer_fn():
/data3/home/yuanqiliang/code/arm-kernel/kernel/time/timer.c:1304
    1de4:	a9025bf5 	stp	x21, x22, [sp, #32]
    1de8:	aa0103f6 	mov	x22, x1
__read_once_size():
/data3/home/yuanqiliang/code/arm-kernel/./include/linux/compiler.h:193
    1dec:	b9401015 	ldr	w21, [x0, #16]
arch_static_branch():
/data3/home/yuanqiliang/code/arm-kernel/./arch/arm64/include/asm/jump_label.h:20
    1df0:	d503201f 	nop
call_timer_fn():
/data3/home/yuanqiliang/code/arm-kernel/kernel/time/timer.c:1327
	fn(timer);
    1df4:	aa1403e0 	mov	x0, x20
    1df8:	d63f02c0 	blr	x22
arch_static_branch():
/data3/home/yuanqiliang/code/arm-kernel/./arch/arm64/include/asm/jump_label.h:20
    1dfc:	d503201f 	nop
get_current():
/data3/home/yuanqiliang/code/arm-kernel/./arch/arm64/include/asm/current.h:19
    1e00:	d5384100 	mrs	x0, sp_el0
__read_once_size():
/data3/home/yuanqiliang/code/arm-kernel/./include/linux/compiler.h:193
    1e04:	b9401001 	ldr	w1, [x0, #16]
call_timer_fn():
/data3/home/yuanqiliang/code/arm-kernel/kernel/time/timer.c:1332
	if (count != preempt_count()) {
    1e08:	6b15003f 	cmp	w1, w21
    1e0c:	540000c0 	b.eq	1e24 <call_timer_fn+0x54>  // b.none
/data3/home/yuanqiliang/code/arm-kernel/kernel/time/timer.c:1333 (discriminator 1)
		WARN_ONCE(1, "timer: %pF preempt leak: %08x -> %08x\n",
    1e10:	90000002 	adrp	x2, 0 <__round_jiffies>
    1e14:	39400041 	ldrb	w1, [x2]
    1e18:	340007a1 	cbz	w1, 1f0c <call_timer_fn+0x13c>
get_current():
/data3/home/yuanqiliang/code/arm-kernel/./arch/arm64/include/asm/current.h:19 (discriminator 8)
    1e1c:	d5384100 	mrs	x0, sp_el0
preempt_count_set():
/data3/home/yuanqiliang/code/arm-kernel/./include/asm-generic/preempt.h:21 (discriminator 8)
	return &current_thread_info()->preempt_count;
}

static __always_inline void preempt_count_set(int pc)
{
	*preempt_count_ptr() = pc;
    1e20:	b9001015 	str	w21, [x0, #16]
call_timer_fn():
/data3/home/yuanqiliang/code/arm-kernel/kernel/time/timer.c:1343
}
    1e24:	a94153f3 	ldp	x19, x20, [sp, #16]
    1e28:	a9425bf5 	ldp	x21, x22, [sp, #32]
    1e2c:	a8c37bfd 	ldp	x29, x30, [sp], #48
    1e30:	d65f03c0 	ret
trace_timer_expire_exit():
/data3/home/yuanqiliang/code/arm-kernel/./include/trace/events/timer.h:121
DEFINE_EVENT(timer_class, timer_expire_exit,
    1e34:	90000000 	adrp	x0, 0 <cpu_number>
    1e38:	91000000 	add	x0, x0, #0x0
__my_cpu_offset():
/data3/home/yuanqiliang/code/arm-kernel/./arch/arm64/include/asm/percpu.h:30
    1e3c:	d538d081 	mrs	x1, tpidr_el1
trace_timer_expire_exit():
/data3/home/yuanqiliang/code/arm-kernel/./include/trace/events/timer.h:121
    1e40:	b8616801 	ldr	w1, [x0, x1]
test_bit():
/data3/home/yuanqiliang/code/arm-kernel/./include/asm-generic/bitops/non-atomic.h:106
	return 1UL & (addr[BIT_WORD(nr)] >> (nr & (BITS_PER_LONG-1)));
    1e44:	90000002 	adrp	x2, 0 <__cpu_online_mask>
    1e48:	91000042 	add	x2, x2, #0x0
    1e4c:	7100003f 	cmp	w1, #0x0
    1e50:	1100fc20 	add	w0, w1, #0x3f
    1e54:	1a81b000 	csel	w0, w0, w1, lt  // lt = tstop
    1e58:	13067c00 	asr	w0, w0, #6
    1e5c:	93407c00 	sxtw	x0, w0
    1e60:	f8607840 	ldr	x0, [x2, x0, lsl #3]
    1e64:	9ac12401 	lsr	x1, x0, x1
trace_timer_expire_exit():
/data3/home/yuanqiliang/code/arm-kernel/./include/trace/events/timer.h:121
    1e68:	3607fcc1 	tbz	w1, #0, 1e00 <call_timer_fn+0x30>
__read_once_size():
/data3/home/yuanqiliang/code/arm-kernel/./include/linux/compiler.h:193
    1e6c:	90000000 	adrp	x0, 0 <__round_jiffies>
    1e70:	91000000 	add	x0, x0, #0x0
    1e74:	f9404413 	ldr	x19, [x0, #136]
trace_timer_expire_exit():
/data3/home/yuanqiliang/code/arm-kernel/./include/trace/events/timer.h:121
    1e78:	b40000f3 	cbz	x19, 1e94 <call_timer_fn+0xc4>
    1e7c:	f9400262 	ldr	x2, [x19]
    1e80:	aa1403e1 	mov	x1, x20
    1e84:	f9400660 	ldr	x0, [x19, #8]
    1e88:	d63f0040 	blr	x2
    1e8c:	f8418e62 	ldr	x2, [x19, #24]!
    1e90:	b5ffff82 	cbnz	x2, 1e80 <call_timer_fn+0xb0>
    1e94:	17ffffdb 	b	1e00 <call_timer_fn+0x30>
trace_timer_expire_entry():
/data3/home/yuanqiliang/code/arm-kernel/./include/trace/events/timer.h:90
TRACE_EVENT(timer_expire_entry,
    1e98:	90000000 	adrp	x0, 0 <cpu_number>
    1e9c:	91000000 	add	x0, x0, #0x0
__my_cpu_offset():
/data3/home/yuanqiliang/code/arm-kernel/./arch/arm64/include/asm/percpu.h:30
    1ea0:	d538d081 	mrs	x1, tpidr_el1
trace_timer_expire_entry():
/data3/home/yuanqiliang/code/arm-kernel/./include/trace/events/timer.h:90
    1ea4:	b8616801 	ldr	w1, [x0, x1]
test_bit():
/data3/home/yuanqiliang/code/arm-kernel/./include/asm-generic/bitops/non-atomic.h:106
    1ea8:	90000002 	adrp	x2, 0 <__cpu_online_mask>
    1eac:	91000042 	add	x2, x2, #0x0
    1eb0:	7100003f 	cmp	w1, #0x0
    1eb4:	1100fc20 	add	w0, w1, #0x3f
    1eb8:	1a81b000 	csel	w0, w0, w1, lt  // lt = tstop
    1ebc:	13067c00 	asr	w0, w0, #6
    1ec0:	93407c00 	sxtw	x0, w0
    1ec4:	f8607840 	ldr	x0, [x2, x0, lsl #3]
    1ec8:	9ac12401 	lsr	x1, x0, x1
trace_timer_expire_entry():
/data3/home/yuanqiliang/code/arm-kernel/./include/trace/events/timer.h:90
    1ecc:	3607f941 	tbz	w1, #0, 1df4 <call_timer_fn+0x24>
__read_once_size():
/data3/home/yuanqiliang/code/arm-kernel/./include/linux/compiler.h:193
    1ed0:	90000000 	adrp	x0, 0 <__round_jiffies>
    1ed4:	91000000 	add	x0, x0, #0x0
    1ed8:	f9402c13 	ldr	x19, [x0, #88]
trace_timer_expire_entry():
/data3/home/yuanqiliang/code/arm-kernel/./include/trace/events/timer.h:90
    1edc:	b4000113 	cbz	x19, 1efc <call_timer_fn+0x12c>
    1ee0:	f9400262 	ldr	x2, [x19]
    1ee4:	d503201f 	nop
    1ee8:	aa1403e1 	mov	x1, x20
    1eec:	f9400660 	ldr	x0, [x19, #8]
    1ef0:	d63f0040 	blr	x2
    1ef4:	f8418e62 	ldr	x2, [x19, #24]!
    1ef8:	b5ffff82 	cbnz	x2, 1ee8 <call_timer_fn+0x118>
call_timer_fn():
/data3/home/yuanqiliang/code/arm-kernel/kernel/time/timer.c:1327
	fn(timer);
    1efc:	aa1403e0 	mov	x0, x20
    1f00:	d63f02c0 	blr	x22
arch_static_branch():
/data3/home/yuanqiliang/code/arm-kernel/./arch/arm64/include/asm/jump_label.h:20
    1f04:	d503201f 	nop
    1f08:	17ffffbe 	b	1e00 <call_timer_fn+0x30>
__read_once_size():
/data3/home/yuanqiliang/code/arm-kernel/./include/linux/compiler.h:193 (discriminator 3)
    1f0c:	b9401003 	ldr	w3, [x0, #16]
call_timer_fn():
/data3/home/yuanqiliang/code/arm-kernel/kernel/time/timer.c:1333 (discriminator 3)
		WARN_ONCE(1, "timer: %pF preempt leak: %08x -> %08x\n",
    1f10:	52800024 	mov	w4, #0x1                   	// #1
    1f14:	aa1603e1 	mov	x1, x22
    1f18:	39000044 	strb	w4, [x2]
    1f1c:	90000000 	adrp	x0, 0 <__round_jiffies>
    1f20:	2a1503e2 	mov	w2, w21
    1f24:	91000000 	add	x0, x0, #0x0
    1f28:	94000000 	bl	0 <__warn_printk>
    1f2c:	d4210000 	brk	#0x800
    1f30:	17ffffbb 	b	1e1c <call_timer_fn+0x4c>
    1f34:	d503201f 	nop

0000000000001f38 <init_timer_key>:
init_timer_key():
/data3/home/yuanqiliang/code/arm-kernel/kernel/time/timer.c:806
{
    1f38:	a9bc7bfd 	stp	x29, x30, [sp, #-64]!
    1f3c:	910003fd 	mov	x29, sp
    1f40:	a90153f3 	stp	x19, x20, [sp, #16]
    1f44:	a9025bf5 	stp	x21, x22, [sp, #32]
    1f48:	aa0003f5 	mov	x21, x0
    1f4c:	2a0203f6 	mov	w22, w2
    1f50:	f9001bf7 	str	x23, [sp, #48]
    1f54:	aa0103f7 	mov	x23, x1
arch_static_branch():
/data3/home/yuanqiliang/code/arm-kernel/./arch/arm64/include/asm/jump_label.h:20
    1f58:	d503201f 	nop
/data3/home/yuanqiliang/code/arm-kernel/./arch/arm64/include/asm/jump_label.h:27
		 ".align 3\n\t"
		 ".quad 1b, %l[l_yes], %c0\n\t"
		 ".popsection\n\t"
		 :  :  "i"(&((char *)key)[branch]) :  : l_yes);

	return false;
    1f5c:	90000000 	adrp	x0, 0 <cpu_number>
    1f60:	910003e1 	mov	x1, sp
    1f64:	91000014 	add	x20, x0, #0x0
do_init_timer():
/data3/home/yuanqiliang/code/arm-kernel/kernel/time/timer.c:785
	timer->entry.pprev = NULL;
    1f68:	f90006bf 	str	xzr, [x21, #8]
/data3/home/yuanqiliang/code/arm-kernel/kernel/time/timer.c:787
	timer->flags = flags | raw_smp_processor_id();
    1f6c:	aa1403e0 	mov	x0, x20
/data3/home/yuanqiliang/code/arm-kernel/kernel/time/timer.c:786
	timer->function = func;
    1f70:	f9000eb7 	str	x23, [x21, #24]
__my_cpu_offset():
/data3/home/yuanqiliang/code/arm-kernel/./arch/arm64/include/asm/percpu.h:30
    1f74:	d538d081 	mrs	x1, tpidr_el1
do_init_timer():
/data3/home/yuanqiliang/code/arm-kernel/kernel/time/timer.c:787
	timer->flags = flags | raw_smp_processor_id();
    1f78:	b8616802 	ldr	w2, [x0, x1]
    1f7c:	2a160042 	orr	w2, w2, w22
    1f80:	b90022a2 	str	w2, [x21, #32]
init_timer_key():
/data3/home/yuanqiliang/code/arm-kernel/kernel/time/timer.c:809
}
    1f84:	a94153f3 	ldp	x19, x20, [sp, #16]
    1f88:	a9425bf5 	ldp	x21, x22, [sp, #32]
    1f8c:	f9401bf7 	ldr	x23, [sp, #48]
    1f90:	a8c47bfd 	ldp	x29, x30, [sp], #64
    1f94:	d65f03c0 	ret
trace_timer_init():
/data3/home/yuanqiliang/code/arm-kernel/./include/trace/events/timer.h:33
DEFINE_EVENT(timer_class, timer_init,
    1f98:	90000000 	adrp	x0, 0 <cpu_number>
    1f9c:	91000014 	add	x20, x0, #0x0
    1fa0:	aa1403e0 	mov	x0, x20
__my_cpu_offset():
/data3/home/yuanqiliang/code/arm-kernel/./arch/arm64/include/asm/percpu.h:34
			"mrs %0, tpidr_el2",
			ARM64_HAS_VIRT_HOST_EXTN)
		: "=r" (off) :
		"Q" (*(const unsigned long *)current_stack_pointer));
    1fa4:	910003e1 	mov	x1, sp
/data3/home/yuanqiliang/code/arm-kernel/./arch/arm64/include/asm/percpu.h:30
	asm(ALTERNATIVE("mrs %0, tpidr_el1",
    1fa8:	d538d082 	mrs	x2, tpidr_el1
trace_timer_init():
/data3/home/yuanqiliang/code/arm-kernel/./include/trace/events/timer.h:33
    1fac:	b8626802 	ldr	w2, [x0, x2]
test_bit():
/data3/home/yuanqiliang/code/arm-kernel/./include/asm-generic/bitops/non-atomic.h:106
    1fb0:	90000003 	adrp	x3, 0 <__cpu_online_mask>
    1fb4:	91000063 	add	x3, x3, #0x0
    1fb8:	7100005f 	cmp	w2, #0x0
    1fbc:	1100fc40 	add	w0, w2, #0x3f
    1fc0:	1a82b000 	csel	w0, w0, w2, lt  // lt = tstop
    1fc4:	13067c00 	asr	w0, w0, #6
    1fc8:	93407c00 	sxtw	x0, w0
    1fcc:	f8607860 	ldr	x0, [x3, x0, lsl #3]
    1fd0:	9ac22402 	lsr	x2, x0, x2
trace_timer_init():
/data3/home/yuanqiliang/code/arm-kernel/./include/trace/events/timer.h:33
    1fd4:	3607fca2 	tbz	w2, #0, 1f68 <init_timer_key+0x30>
__read_once_size():
/data3/home/yuanqiliang/code/arm-kernel/./include/linux/compiler.h:193
    1fd8:	90000000 	adrp	x0, 0 <__round_jiffies>
    1fdc:	91000000 	add	x0, x0, #0x0
    1fe0:	f9405c13 	ldr	x19, [x0, #184]
trace_timer_init():
/data3/home/yuanqiliang/code/arm-kernel/./include/trace/events/timer.h:33
    1fe4:	b4000113 	cbz	x19, 2004 <init_timer_key+0xcc>
    1fe8:	f9400262 	ldr	x2, [x19]
    1fec:	d503201f 	nop
    1ff0:	aa1503e1 	mov	x1, x21
    1ff4:	f9400660 	ldr	x0, [x19, #8]
    1ff8:	d63f0040 	blr	x2
    1ffc:	f8418e62 	ldr	x2, [x19, #24]!
    2000:	b5ffff82 	cbnz	x2, 1ff0 <init_timer_key+0xb8>
    2004:	910003e1 	mov	x1, sp
    2008:	17ffffd8 	b	1f68 <init_timer_key+0x30>
init_timer_key():
/data3/home/yuanqiliang/code/arm-kernel/./include/trace/events/timer.h:33
    200c:	d503201f 	nop

0000000000002010 <del_timer>:
del_timer():
/data3/home/yuanqiliang/code/arm-kernel/kernel/time/timer.c:1201
	if (timer_pending(timer)) {
    2010:	f9400402 	ldr	x2, [x0, #8]
    2014:	b4000262 	cbz	x2, 2060 <del_timer+0x50>
/data3/home/yuanqiliang/code/arm-kernel/kernel/time/timer.c:1194
{
    2018:	a9bd7bfd 	stp	x29, x30, [sp, #-48]!
    201c:	910003fd 	mov	x29, sp
/data3/home/yuanqiliang/code/arm-kernel/kernel/time/timer.c:1202
		base = lock_timer_base(timer, &flags);
    2020:	9100a3e1 	add	x1, sp, #0x28
/data3/home/yuanqiliang/code/arm-kernel/kernel/time/timer.c:1194
{
    2024:	a90153f3 	stp	x19, x20, [sp, #16]
    2028:	aa0003f3 	mov	x19, x0
/data3/home/yuanqiliang/code/arm-kernel/kernel/time/timer.c:1202
		base = lock_timer_base(timer, &flags);
    202c:	97fffe9f 	bl	1aa8 <lock_timer_base>
    2030:	aa0003f4 	mov	x20, x0
/data3/home/yuanqiliang/code/arm-kernel/kernel/time/timer.c:1203
		ret = detach_if_pending(timer, base, true);
    2034:	aa1403e1 	mov	x1, x20
    2038:	52800022 	mov	w2, #0x1                   	// #1
    203c:	aa1303e0 	mov	x0, x19
    2040:	97fff94e 	bl	578 <detach_if_pending>
queued_spin_unlock():
/data3/home/yuanqiliang/code/arm-kernel/./include/asm-generic/qspinlock.h:101
    2044:	52800002 	mov	w2, #0x0                   	// #0
del_timer():
/data3/home/yuanqiliang/code/arm-kernel/kernel/time/timer.c:1204
		raw_spin_unlock_irqrestore(&base->lock, flags);
    2048:	f94017e1 	ldr	x1, [sp, #40]
queued_spin_unlock():
/data3/home/yuanqiliang/code/arm-kernel/./include/asm-generic/qspinlock.h:101
    204c:	089ffe82 	stlrb	w2, [x20]
arch_local_irq_restore():
/data3/home/yuanqiliang/code/arm-kernel/./arch/arm64/include/asm/irqflags.h:77
    2050:	d51b4221 	msr	daif, x1
del_timer():
/data3/home/yuanqiliang/code/arm-kernel/kernel/time/timer.c:1208
}
    2054:	a94153f3 	ldp	x19, x20, [sp, #16]
    2058:	a8c37bfd 	ldp	x29, x30, [sp], #48
    205c:	d65f03c0 	ret
/data3/home/yuanqiliang/code/arm-kernel/kernel/time/timer.c:1197
	int ret = 0;
    2060:	52800000 	mov	w0, #0x0                   	// #0
/data3/home/yuanqiliang/code/arm-kernel/kernel/time/timer.c:1208
}
    2064:	d65f03c0 	ret

0000000000002068 <trigger_dyntick_cpu.isra.3>:
trigger_dyntick_cpu():
/data3/home/yuanqiliang/code/arm-kernel/kernel/time/timer.c:553
trigger_dyntick_cpu(struct timer_base *base, struct timer_list *timer)
    2068:	a9bf7bfd 	stp	x29, x30, [sp, #-16]!
    206c:	910003fd 	mov	x29, sp
arch_static_branch():
/data3/home/yuanqiliang/code/arm-kernel/./arch/arm64/include/asm/jump_label.h:20
	asm_volatile_goto("1: nop\n\t"
    2070:	d503201f 	nop
trigger_dyntick_cpu():
/data3/home/yuanqiliang/code/arm-kernel/kernel/time/timer.c:586
}
    2074:	a8c17bfd 	ldp	x29, x30, [sp], #16
    2078:	d65f03c0 	ret
/data3/home/yuanqiliang/code/arm-kernel/kernel/time/timer.c:562
	if (timer->flags & TIMER_DEFERRABLE) {
    207c:	b9400042 	ldr	w2, [x2]
    2080:	379fffa2 	tbnz	w2, #19, 2074 <trigger_dyntick_cpu.isra.3+0xc>
/data3/home/yuanqiliang/code/arm-kernel/kernel/time/timer.c:573
	if (!base->is_idle)
    2084:	39409002 	ldrb	w2, [x0, #36]
    2088:	34ffff62 	cbz	w2, 2074 <trigger_dyntick_cpu.isra.3+0xc>
/data3/home/yuanqiliang/code/arm-kernel/kernel/time/timer.c:577
	if (time_after_eq(timer->expires, base->next_expiry))
    208c:	f9400022 	ldr	x2, [x1]
    2090:	f9400c01 	ldr	x1, [x0, #24]
    2094:	eb01005f 	cmp	x2, x1
    2098:	54fffee5 	b.pl	2074 <trigger_dyntick_cpu.isra.3+0xc>  // b.nfrst
/data3/home/yuanqiliang/code/arm-kernel/kernel/time/timer.c:584
	base->next_expiry = timer->expires;
    209c:	aa0003e1 	mov	x1, x0
/data3/home/yuanqiliang/code/arm-kernel/kernel/time/timer.c:585
	wake_up_nohz_cpu(base->cpu);
    20a0:	b9402000 	ldr	w0, [x0, #32]
/data3/home/yuanqiliang/code/arm-kernel/kernel/time/timer.c:584
	base->next_expiry = timer->expires;
    20a4:	f9000c22 	str	x2, [x1, #24]
/data3/home/yuanqiliang/code/arm-kernel/kernel/time/timer.c:585
	wake_up_nohz_cpu(base->cpu);
    20a8:	94000000 	bl	0 <wake_up_nohz_cpu>
    20ac:	17fffff2 	b	2074 <trigger_dyntick_cpu.isra.3+0xc>

00000000000020b0 <internal_add_timer>:
internal_add_timer():
/data3/home/yuanqiliang/code/arm-kernel/kernel/time/timer.c:590
{
    20b0:	aa0103e7 	mov	x7, x1
    20b4:	aa0003e8 	mov	x8, x0
    20b8:	a9bf7bfd 	stp	x29, x30, [sp, #-16]!
    20bc:	910003fd 	mov	x29, sp
/data3/home/yuanqiliang/code/arm-kernel/kernel/time/timer.c:591
	__internal_add_timer(base, timer);
    20c0:	97fff920 	bl	540 <__internal_add_timer>
/data3/home/yuanqiliang/code/arm-kernel/kernel/time/timer.c:592
	trigger_dyntick_cpu(base, timer);
    20c4:	aa0803e0 	mov	x0, x8
    20c8:	910080e2 	add	x2, x7, #0x20
    20cc:	910040e1 	add	x1, x7, #0x10
    20d0:	97ffffe6 	bl	2068 <trigger_dyntick_cpu.isra.3>
/data3/home/yuanqiliang/code/arm-kernel/kernel/time/timer.c:593
}
    20d4:	a8c17bfd 	ldp	x29, x30, [sp], #16
    20d8:	d65f03c0 	ret
    20dc:	d503201f 	nop

00000000000020e0 <mod_timer_pending>:
mod_timer_pending():
/data3/home/yuanqiliang/code/arm-kernel/kernel/time/timer.c:1076
{
    20e0:	a9b97bfd 	stp	x29, x30, [sp, #-112]!
    20e4:	910003fd 	mov	x29, sp
__mod_timer():
/data3/home/yuanqiliang/code/arm-kernel/kernel/time/timer.c:959
	BUG_ON(!timer->function);
    20e8:	f9400c02 	ldr	x2, [x0, #24]
    20ec:	a90153f3 	stp	x19, x20, [sp, #16]
    20f0:	a9025bf5 	stp	x21, x22, [sp, #32]
    20f4:	a90363f7 	stp	x23, x24, [sp, #48]
    20f8:	a9046bf9 	stp	x25, x26, [sp, #64]
    20fc:	b4001242 	cbz	x2, 2344 <mod_timer_pending+0x264>
timer_pending():
/data3/home/yuanqiliang/code/arm-kernel/./include/linux/timer.h:156
    2100:	aa0103f6 	mov	x22, x1
    2104:	aa0003f3 	mov	x19, x0
__mod_timer():
/data3/home/yuanqiliang/code/arm-kernel/kernel/time/timer.c:966
	if (timer_pending(timer)) {
    2108:	f9400401 	ldr	x1, [x0, #8]
    210c:	b4000b01 	cbz	x1, 226c <mod_timer_pending+0x18c>
/data3/home/yuanqiliang/code/arm-kernel/kernel/time/timer.c:974
		if (!diff)
    2110:	f9400801 	ldr	x1, [x0, #16]
/data3/home/yuanqiliang/code/arm-kernel/kernel/time/timer.c:975
			return 1;
    2114:	52800037 	mov	w23, #0x1                   	// #1
/data3/home/yuanqiliang/code/arm-kernel/kernel/time/timer.c:974
		if (!diff)
    2118:	eb0102df 	cmp	x22, x1
    211c:	54000960 	b.eq	2248 <mod_timer_pending+0x168>  // b.none
/data3/home/yuanqiliang/code/arm-kernel/kernel/time/timer.c:985
		base = lock_timer_base(timer, &flags);
    2120:	9101a3e1 	add	x1, sp, #0x68
    2124:	97fffe61 	bl	1aa8 <lock_timer_base>
    2128:	aa0003f4 	mov	x20, x0
forward_timer_base():
/data3/home/yuanqiliang/code/arm-kernel/kernel/time/timer.c:891
	if (likely(!base->must_forward_clk))
    212c:	39409400 	ldrb	w0, [x0, #37]
    2130:	350012e0 	cbnz	w0, 238c <mod_timer_pending+0x2ac>
    2134:	f9400a99 	ldr	x25, [x20, #16]
__mod_timer():
/data3/home/yuanqiliang/code/arm-kernel/kernel/time/timer.c:995
		idx = calc_wheel_index(expires, clk);
    2138:	aa1903e1 	mov	x1, x25
    213c:	aa1603e0 	mov	x0, x22
    2140:	97fff898 	bl	3a0 <calc_wheel_index>
    2144:	2a0003fa 	mov	w26, w0
timer_get_idx():
/data3/home/yuanqiliang/code/arm-kernel/kernel/time/timer.c:476
	return (timer->flags & TIMER_ARRAYMASK) >> TIMER_ARRAYSHIFT;
    2148:	b9402260 	ldr	w0, [x19, #32]
__mod_timer():
/data3/home/yuanqiliang/code/arm-kernel/kernel/time/timer.c:1002
		if (idx == timer_get_idx(timer)) {
    214c:	6b405b5f 	cmp	w26, w0, lsr #22
    2150:	54000ec0 	b.eq	2328 <mod_timer_pending+0x248>  // b.none
/data3/home/yuanqiliang/code/arm-kernel/kernel/time/timer.c:1015
	ret = detach_if_pending(timer, base, false);
    2154:	52800002 	mov	w2, #0x0                   	// #0
    2158:	aa1403e1 	mov	x1, x20
    215c:	aa1303e0 	mov	x0, x19
    2160:	97fff906 	bl	578 <detach_if_pending>
    2164:	2a0003f7 	mov	w23, w0
/data3/home/yuanqiliang/code/arm-kernel/kernel/time/timer.c:1016
	if (!ret && (options & MOD_TIMER_PENDING_ONLY))
    2168:	34000680 	cbz	w0, 2238 <mod_timer_pending+0x158>
/data3/home/yuanqiliang/code/arm-kernel/kernel/time/timer.c:1019
	new_base = get_target_base(base, timer->flags);
    216c:	f9002bfb 	str	x27, [sp, #80]
    2170:	b940227b 	ldr	w27, [x19, #32]
arch_static_branch_jump():
/data3/home/yuanqiliang/code/arm-kernel/./arch/arm64/include/asm/jump_label.h:34
	return true;
}

static __always_inline bool arch_static_branch_jump(struct static_key *key, bool branch)
{
	asm_volatile_goto("1: b %l[l_yes]\n\t"
    2174:	1400003c 	b	2264 <mod_timer_pending+0x184>
get_target_base():
/data3/home/yuanqiliang/code/arm-kernel/kernel/time/timer.c:874
	if (static_branch_likely(&timers_migration_enabled) &&
    2178:	120d0378 	and	w24, w27, #0x80000
    217c:	36a0137b 	tbz	w27, #20, 23e8 <mod_timer_pending+0x308>
get_timer_this_cpu_base():
/data3/home/yuanqiliang/code/arm-kernel/kernel/time/timer.c:854
	struct timer_base *base = this_cpu_ptr(&timer_bases[BASE_STD]);
    2180:	90000015 	adrp	x21, 0 <__round_jiffies>
    2184:	910002b5 	add	x21, x21, #0x0
    2188:	aa1503e0 	mov	x0, x21
__my_cpu_offset():
/data3/home/yuanqiliang/code/arm-kernel/./arch/arm64/include/asm/percpu.h:30
    218c:	d538d095 	mrs	x21, tpidr_el1
get_timer_this_cpu_base():
/data3/home/yuanqiliang/code/arm-kernel/kernel/time/timer.c:860
	if (IS_ENABLED(CONFIG_NO_HZ_COMMON) && (tflags & TIMER_DEFERRABLE))
    2190:	34000078 	cbz	w24, 219c <mod_timer_pending+0xbc>
/data3/home/yuanqiliang/code/arm-kernel/kernel/time/timer.c:861
		base = this_cpu_ptr(&timer_bases[BASE_DEF]);
    2194:	90000000 	adrp	x0, 0 <__round_jiffies>
    2198:	91000000 	add	x0, x0, #0x0
    219c:	8b150015 	add	x21, x0, x21
__mod_timer():
/data3/home/yuanqiliang/code/arm-kernel/kernel/time/timer.c:1021
	if (base != new_base) {
    21a0:	eb15029f 	cmp	x20, x21
    21a4:	54000d40 	b.eq	234c <mod_timer_pending+0x26c>  // b.none
/data3/home/yuanqiliang/code/arm-kernel/kernel/time/timer.c:1029
		if (likely(base->running_timer != timer)) {
    21a8:	f9400680 	ldr	x0, [x20, #8]
    21ac:	eb00027f 	cmp	x19, x0
    21b0:	54001320 	b.eq	2414 <mod_timer_pending+0x334>  // b.none
/data3/home/yuanqiliang/code/arm-kernel/kernel/time/timer.c:1031
			timer->flags |= TIMER_MIGRATING;
    21b4:	320e037b 	orr	w27, w27, #0x40000
queued_spin_unlock():
/data3/home/yuanqiliang/code/arm-kernel/./include/asm-generic/qspinlock.h:101
    21b8:	52800000 	mov	w0, #0x0                   	// #0
__mod_timer():
/data3/home/yuanqiliang/code/arm-kernel/kernel/time/timer.c:1031
    21bc:	b900227b 	str	w27, [x19, #32]
queued_spin_unlock():
/data3/home/yuanqiliang/code/arm-kernel/./include/asm-generic/qspinlock.h:101
    21c0:	089ffe80 	stlrb	w0, [x20]
__cmpxchg_case_acq_4():
/data3/home/yuanqiliang/code/arm-kernel/./arch/arm64/include/asm/atomic_ll_sc.h:272
    21c4:	d2800000 	mov	x0, #0x0                   	// #0
do_raw_spin_lock():
/data3/home/yuanqiliang/code/arm-kernel/./include/linux/spinlock.h:180
 extern void do_raw_spin_unlock(raw_spinlock_t *lock) __releases(lock);
#else
static inline void do_raw_spin_lock(raw_spinlock_t *lock) __acquires(lock)
{
	__acquire(lock);
	arch_spin_lock(&lock->raw_lock);
    21c8:	aa1503f4 	mov	x20, x21
__cmpxchg_case_acq_4():
/data3/home/yuanqiliang/code/arm-kernel/./arch/arm64/include/asm/atomic_ll_sc.h:272
    21cc:	d2800022 	mov	x2, #0x1                   	// #1
    21d0:	f98002b1 	prfm	pstl1strm, [x21]
    21d4:	885ffea1 	ldaxr	w1, [x21]
    21d8:	4a000023 	eor	w3, w1, w0
    21dc:	35000063 	cbnz	w3, 21e8 <mod_timer_pending+0x108>
    21e0:	88037ea2 	stxr	w3, w2, [x21]
    21e4:	35ffff83 	cbnz	w3, 21d4 <mod_timer_pending+0xf4>
queued_spin_lock():
/data3/home/yuanqiliang/code/arm-kernel/./include/asm-generic/qspinlock.h:86
	if (likely(val == 0))
    21e8:	350011a1 	cbnz	w1, 241c <mod_timer_pending+0x33c>
__mod_timer():
/data3/home/yuanqiliang/code/arm-kernel/kernel/time/timer.c:1036
			WRITE_ONCE(timer->flags,
    21ec:	b9402260 	ldr	w0, [x19, #32]
    21f0:	b94022a1 	ldr	w1, [x21, #32]
    21f4:	120d3000 	and	w0, w0, #0xfff80000
    21f8:	2a010000 	orr	w0, w0, w1
__write_once_size():
/data3/home/yuanqiliang/code/arm-kernel/./include/linux/compiler.h:219
	case 4: *(volatile __u32 *)p = *(__u32 *)res; break;
    21fc:	b9002260 	str	w0, [x19, #32]
forward_timer_base():
/data3/home/yuanqiliang/code/arm-kernel/kernel/time/timer.c:891
	if (likely(!base->must_forward_clk))
    2200:	394096a0 	ldrb	w0, [x21, #37]
    2204:	35000a80 	cbnz	w0, 2354 <mod_timer_pending+0x274>
    2208:	b940227b 	ldr	w27, [x19, #32]
arch_static_branch():
/data3/home/yuanqiliang/code/arm-kernel/./arch/arm64/include/asm/jump_label.h:20
	asm_volatile_goto("1: nop\n\t"
    220c:	d503201f 	nop
__mod_timer():
/data3/home/yuanqiliang/code/arm-kernel/kernel/time/timer.c:1044
	timer->expires = expires;
    2210:	f9000a76 	str	x22, [x19, #16]
/data3/home/yuanqiliang/code/arm-kernel/kernel/time/timer.c:1052
	if (idx != UINT_MAX && clk == base->clk) {
    2214:	3100075f 	cmn	w26, #0x1
    2218:	54000080 	b.eq	2228 <mod_timer_pending+0x148>  // b.none
    221c:	f9400aa0 	ldr	x0, [x21, #16]
    2220:	eb19001f 	cmp	x0, x25
    2224:	54000ce0 	b.eq	23c0 <mod_timer_pending+0x2e0>  // b.none
/data3/home/yuanqiliang/code/arm-kernel/kernel/time/timer.c:1056
		internal_add_timer(base, timer);
    2228:	aa1303e1 	mov	x1, x19
    222c:	aa1503e0 	mov	x0, x21
    2230:	97ffffa0 	bl	20b0 <internal_add_timer>
    2234:	f9402bfb 	ldr	x27, [sp, #80]
queued_spin_unlock():
/data3/home/yuanqiliang/code/arm-kernel/./include/asm-generic/qspinlock.h:101
	smp_store_release(&lock->locked, 0);
    2238:	52800001 	mov	w1, #0x0                   	// #0
__mod_timer():
/data3/home/yuanqiliang/code/arm-kernel/kernel/time/timer.c:1060
	raw_spin_unlock_irqrestore(&base->lock, flags);
    223c:	f94037e0 	ldr	x0, [sp, #104]
queued_spin_unlock():
/data3/home/yuanqiliang/code/arm-kernel/./include/asm-generic/qspinlock.h:101
    2240:	089ffe81 	stlrb	w1, [x20]
arch_local_irq_restore():
/data3/home/yuanqiliang/code/arm-kernel/./arch/arm64/include/asm/irqflags.h:77
    2244:	d51b4220 	msr	daif, x0
mod_timer_pending():
/data3/home/yuanqiliang/code/arm-kernel/kernel/time/timer.c:1078
}
    2248:	2a1703e0 	mov	w0, w23
    224c:	a94153f3 	ldp	x19, x20, [sp, #16]
    2250:	a9425bf5 	ldp	x21, x22, [sp, #32]
    2254:	a94363f7 	ldp	x23, x24, [sp, #48]
    2258:	a9446bf9 	ldp	x25, x26, [sp, #64]
    225c:	a8c77bfd 	ldp	x29, x30, [sp], #112
    2260:	d65f03c0 	ret
    2264:	120d0378 	and	w24, w27, #0x80000
    2268:	17ffffc6 	b	2180 <mod_timer_pending+0xa0>
__mod_timer():
/data3/home/yuanqiliang/code/arm-kernel/kernel/time/timer.c:1011
		base = lock_timer_base(timer, &flags);
    226c:	9101a3e1 	add	x1, sp, #0x68
    2270:	97fffe0e 	bl	1aa8 <lock_timer_base>
    2274:	aa0003f4 	mov	x20, x0
forward_timer_base():
/data3/home/yuanqiliang/code/arm-kernel/kernel/time/timer.c:891
	if (likely(!base->must_forward_clk))
    2278:	39409400 	ldrb	w0, [x0, #37]
__mod_timer():
/data3/home/yuanqiliang/code/arm-kernel/kernel/time/timer.c:956
	unsigned long clk = 0, flags;
    227c:	d2800019 	mov	x25, #0x0                   	// #0
/data3/home/yuanqiliang/code/arm-kernel/kernel/time/timer.c:955
	unsigned int idx = UINT_MAX;
    2280:	1280001a 	mov	w26, #0xffffffff            	// #-1
forward_timer_base():
/data3/home/yuanqiliang/code/arm-kernel/kernel/time/timer.c:891
	if (likely(!base->must_forward_clk))
    2284:	34fff680 	cbz	w0, 2154 <mod_timer_pending+0x74>
__read_once_size():
/data3/home/yuanqiliang/code/arm-kernel/./include/linux/compiler.h:193
	__READ_ONCE_SIZE;
    2288:	90000001 	adrp	x1, 0 <jiffies>
forward_timer_base():
/data3/home/yuanqiliang/code/arm-kernel/kernel/time/timer.c:895
	base->must_forward_clk = base->is_idle;
    228c:	39409282 	ldrb	w2, [x20, #36]
/data3/home/yuanqiliang/code/arm-kernel/kernel/time/timer.c:896
	if ((long)(jnow - base->clk) < 2)
    2290:	f9400a80 	ldr	x0, [x20, #16]
/data3/home/yuanqiliang/code/arm-kernel/kernel/time/timer.c:895
	base->must_forward_clk = base->is_idle;
    2294:	39009682 	strb	w2, [x20, #37]
__read_once_size():
/data3/home/yuanqiliang/code/arm-kernel/./include/linux/compiler.h:193
    2298:	f9400021 	ldr	x1, [x1]
forward_timer_base():
/data3/home/yuanqiliang/code/arm-kernel/kernel/time/timer.c:896
	if ((long)(jnow - base->clk) < 2)
    229c:	cb000020 	sub	x0, x1, x0
    22a0:	f100041f 	cmp	x0, #0x1
    22a4:	54fff58d 	b.le	2154 <mod_timer_pending+0x74>
/data3/home/yuanqiliang/code/arm-kernel/kernel/time/timer.c:903
	if (time_after(base->next_expiry, jnow))
    22a8:	f9400e80 	ldr	x0, [x20, #24]
    22ac:	eb00003f 	cmp	x1, x0
    22b0:	54000d44 	b.mi	2458 <mod_timer_pending+0x378>  // b.first
/data3/home/yuanqiliang/code/arm-kernel/kernel/time/timer.c:906
		base->clk = base->next_expiry;
    22b4:	f9000a80 	str	x0, [x20, #16]
    22b8:	17ffffa7 	b	2154 <mod_timer_pending+0x74>
trace_timer_start():
/data3/home/yuanqiliang/code/arm-kernel/./include/trace/events/timer.h:52
TRACE_EVENT(timer_start,
    22bc:	90000000 	adrp	x0, 0 <cpu_number>
    22c0:	91000000 	add	x0, x0, #0x0
__my_cpu_offset():
/data3/home/yuanqiliang/code/arm-kernel/./arch/arm64/include/asm/percpu.h:30
    22c4:	d538d081 	mrs	x1, tpidr_el1
trace_timer_start():
/data3/home/yuanqiliang/code/arm-kernel/./include/trace/events/timer.h:52
    22c8:	b8616801 	ldr	w1, [x0, x1]
test_bit():
/data3/home/yuanqiliang/code/arm-kernel/./include/asm-generic/bitops/non-atomic.h:106
    22cc:	90000002 	adrp	x2, 0 <__cpu_online_mask>
    22d0:	91000042 	add	x2, x2, #0x0
    22d4:	7100003f 	cmp	w1, #0x0
    22d8:	1100fc20 	add	w0, w1, #0x3f
    22dc:	1a81b000 	csel	w0, w0, w1, lt  // lt = tstop
    22e0:	13067c00 	asr	w0, w0, #6
    22e4:	93407c00 	sxtw	x0, w0
    22e8:	f8607840 	ldr	x0, [x2, x0, lsl #3]
    22ec:	9ac12401 	lsr	x1, x0, x1
trace_timer_start():
/data3/home/yuanqiliang/code/arm-kernel/./include/trace/events/timer.h:52
    22f0:	3607f901 	tbz	w1, #0, 2210 <mod_timer_pending+0x130>
__read_once_size():
/data3/home/yuanqiliang/code/arm-kernel/./include/linux/compiler.h:193
    22f4:	90000000 	adrp	x0, 0 <__round_jiffies>
    22f8:	91000000 	add	x0, x0, #0x0
    22fc:	f9407418 	ldr	x24, [x0, #232]
trace_timer_start():
/data3/home/yuanqiliang/code/arm-kernel/./include/trace/events/timer.h:52
    2300:	b4000138 	cbz	x24, 2324 <mod_timer_pending+0x244>
    2304:	f9400304 	ldr	x4, [x24]
    2308:	2a1b03e3 	mov	w3, w27
    230c:	f9400700 	ldr	x0, [x24, #8]
    2310:	aa1603e2 	mov	x2, x22
    2314:	aa1303e1 	mov	x1, x19
    2318:	d63f0080 	blr	x4
    231c:	f8418f04 	ldr	x4, [x24, #24]!
    2320:	b5ffff44 	cbnz	x4, 2308 <mod_timer_pending+0x228>
    2324:	17ffffbb 	b	2210 <mod_timer_pending+0x130>
__mod_timer():
/data3/home/yuanqiliang/code/arm-kernel/kernel/time/timer.c:1007
			ret = 1;
    2328:	52800037 	mov	w23, #0x1                   	// #1
queued_spin_unlock():
/data3/home/yuanqiliang/code/arm-kernel/./include/asm-generic/qspinlock.h:101
    232c:	52800001 	mov	w1, #0x0                   	// #0
__mod_timer():
/data3/home/yuanqiliang/code/arm-kernel/kernel/time/timer.c:1004
				timer->expires = expires;
    2330:	f9000a76 	str	x22, [x19, #16]
/data3/home/yuanqiliang/code/arm-kernel/kernel/time/timer.c:1060
	raw_spin_unlock_irqrestore(&base->lock, flags);
    2334:	f94037e0 	ldr	x0, [sp, #104]
queued_spin_unlock():
/data3/home/yuanqiliang/code/arm-kernel/./include/asm-generic/qspinlock.h:101
    2338:	089ffe81 	stlrb	w1, [x20]
arch_local_irq_restore():
/data3/home/yuanqiliang/code/arm-kernel/./arch/arm64/include/asm/irqflags.h:77
    233c:	d51b4220 	msr	daif, x0
__mod_timer():
/data3/home/yuanqiliang/code/arm-kernel/kernel/time/timer.c:1062
	return ret;
    2340:	17ffffc2 	b	2248 <mod_timer_pending+0x168>
    2344:	f9002bfb 	str	x27, [sp, #80]
/data3/home/yuanqiliang/code/arm-kernel/kernel/time/timer.c:959
	BUG_ON(!timer->function);
    2348:	d4210000 	brk	#0x800
    234c:	aa1503f4 	mov	x20, x21
    2350:	17ffffaf 	b	220c <mod_timer_pending+0x12c>
__read_once_size():
/data3/home/yuanqiliang/code/arm-kernel/./include/linux/compiler.h:193
    2354:	90000001 	adrp	x1, 0 <jiffies>
forward_timer_base():
/data3/home/yuanqiliang/code/arm-kernel/kernel/time/timer.c:895
	base->must_forward_clk = base->is_idle;
    2358:	394092a2 	ldrb	w2, [x21, #36]
/data3/home/yuanqiliang/code/arm-kernel/kernel/time/timer.c:896
	if ((long)(jnow - base->clk) < 2)
    235c:	f9400aa0 	ldr	x0, [x21, #16]
/data3/home/yuanqiliang/code/arm-kernel/kernel/time/timer.c:895
	base->must_forward_clk = base->is_idle;
    2360:	390096a2 	strb	w2, [x21, #37]
__read_once_size():
/data3/home/yuanqiliang/code/arm-kernel/./include/linux/compiler.h:193
    2364:	f9400021 	ldr	x1, [x1]
forward_timer_base():
/data3/home/yuanqiliang/code/arm-kernel/kernel/time/timer.c:896
	if ((long)(jnow - base->clk) < 2)
    2368:	cb000020 	sub	x0, x1, x0
    236c:	f100041f 	cmp	x0, #0x1
    2370:	54fff4cd 	b.le	2208 <mod_timer_pending+0x128>
/data3/home/yuanqiliang/code/arm-kernel/kernel/time/timer.c:903
	if (time_after(base->next_expiry, jnow))
    2374:	f9400ea0 	ldr	x0, [x21, #24]
    2378:	eb00003f 	cmp	x1, x0
    237c:	54000684 	b.mi	244c <mod_timer_pending+0x36c>  // b.first
/data3/home/yuanqiliang/code/arm-kernel/kernel/time/timer.c:906
		base->clk = base->next_expiry;
    2380:	f9000aa0 	str	x0, [x21, #16]
    2384:	b940227b 	ldr	w27, [x19, #32]
    2388:	17ffffa1 	b	220c <mod_timer_pending+0x12c>
__read_once_size():
/data3/home/yuanqiliang/code/arm-kernel/./include/linux/compiler.h:193
    238c:	90000000 	adrp	x0, 0 <jiffies>
forward_timer_base():
/data3/home/yuanqiliang/code/arm-kernel/kernel/time/timer.c:895
	base->must_forward_clk = base->is_idle;
    2390:	39409281 	ldrb	w1, [x20, #36]
/data3/home/yuanqiliang/code/arm-kernel/kernel/time/timer.c:896
	if ((long)(jnow - base->clk) < 2)
    2394:	f9400a99 	ldr	x25, [x20, #16]
/data3/home/yuanqiliang/code/arm-kernel/kernel/time/timer.c:895
	base->must_forward_clk = base->is_idle;
    2398:	39009681 	strb	w1, [x20, #37]
__read_once_size():
/data3/home/yuanqiliang/code/arm-kernel/./include/linux/compiler.h:193
    239c:	f9400000 	ldr	x0, [x0]
forward_timer_base():
/data3/home/yuanqiliang/code/arm-kernel/kernel/time/timer.c:896
	if ((long)(jnow - base->clk) < 2)
    23a0:	cb190001 	sub	x1, x0, x25
    23a4:	f100043f 	cmp	x1, #0x1
    23a8:	54ffec8d 	b.le	2138 <mod_timer_pending+0x58>
/data3/home/yuanqiliang/code/arm-kernel/kernel/time/timer.c:903
	if (time_after(base->next_expiry, jnow))
    23ac:	f9400e99 	ldr	x25, [x20, #24]
    23b0:	eb19001f 	cmp	x0, x25
    23b4:	540003a4 	b.mi	2428 <mod_timer_pending+0x348>  // b.first
/data3/home/yuanqiliang/code/arm-kernel/kernel/time/timer.c:906
		base->clk = base->next_expiry;
    23b8:	f9000a99 	str	x25, [x20, #16]
    23bc:	17ffff5f 	b	2138 <mod_timer_pending+0x58>
__mod_timer():
/data3/home/yuanqiliang/code/arm-kernel/kernel/time/timer.c:1053
		enqueue_timer(base, timer, idx);
    23c0:	2a1a03e2 	mov	w2, w26
    23c4:	aa1303e1 	mov	x1, x19
    23c8:	aa1503e0 	mov	x0, x21
    23cc:	97fff83f 	bl	4c8 <enqueue_timer>
/data3/home/yuanqiliang/code/arm-kernel/kernel/time/timer.c:1054
		trigger_dyntick_cpu(base, timer);
    23d0:	aa1503e0 	mov	x0, x21
    23d4:	91008262 	add	x2, x19, #0x20
    23d8:	91004261 	add	x1, x19, #0x10
    23dc:	97ffff23 	bl	2068 <trigger_dyntick_cpu.isra.3>
    23e0:	f9402bfb 	ldr	x27, [sp, #80]
    23e4:	17ffff95 	b	2238 <mod_timer_pending+0x158>
get_target_base():
/data3/home/yuanqiliang/code/arm-kernel/kernel/time/timer.c:876
		return get_timer_cpu_base(tflags, get_nohz_timer_target());
    23e8:	94000000 	bl	0 <get_nohz_timer_target>
get_timer_cpu_base():
/data3/home/yuanqiliang/code/arm-kernel/kernel/time/timer.c:841
	struct timer_base *base = per_cpu_ptr(&timer_bases[BASE_STD], cpu);
    23ec:	90000002 	adrp	x2, 0 <__per_cpu_offset>
    23f0:	91000042 	add	x2, x2, #0x0
    23f4:	90000001 	adrp	x1, 0 <__round_jiffies>
    23f8:	91000035 	add	x21, x1, #0x0
    23fc:	aa1503e1 	mov	x1, x21
    2400:	f8605842 	ldr	x2, [x2, w0, uxtw #3]
/data3/home/yuanqiliang/code/arm-kernel/kernel/time/timer.c:847
	if (IS_ENABLED(CONFIG_NO_HZ_COMMON) && (tflags & TIMER_DEFERRABLE))
    2404:	35000198 	cbnz	w24, 2434 <mod_timer_pending+0x354>
/data3/home/yuanqiliang/code/arm-kernel/kernel/time/timer.c:841
	struct timer_base *base = per_cpu_ptr(&timer_bases[BASE_STD], cpu);
    2408:	8b020035 	add	x21, x1, x2
    240c:	b940227b 	ldr	w27, [x19, #32]
    2410:	17ffff64 	b	21a0 <mod_timer_pending+0xc0>
__mod_timer():
/data3/home/yuanqiliang/code/arm-kernel/kernel/time/timer.c:1029
		if (likely(base->running_timer != timer)) {
    2414:	aa1403f5 	mov	x21, x20
    2418:	17ffff7d 	b	220c <mod_timer_pending+0x12c>
queued_spin_lock():
/data3/home/yuanqiliang/code/arm-kernel/./include/asm-generic/qspinlock.h:88
	queued_spin_lock_slowpath(lock, val);
    241c:	aa1503e0 	mov	x0, x21
    2420:	94000000 	bl	0 <queued_spin_lock_slowpath>
    2424:	17ffff72 	b	21ec <mod_timer_pending+0x10c>
forward_timer_base():
/data3/home/yuanqiliang/code/arm-kernel/kernel/time/timer.c:904
		base->clk = jnow;
    2428:	aa0003f9 	mov	x25, x0
    242c:	f9000a80 	str	x0, [x20, #16]
    2430:	17ffff42 	b	2138 <mod_timer_pending+0x58>
get_timer_cpu_base():
/data3/home/yuanqiliang/code/arm-kernel/kernel/time/timer.c:848
		base = per_cpu_ptr(&timer_bases[BASE_DEF], cpu);
    2434:	90000000 	adrp	x0, 0 <__round_jiffies>
    2438:	91000015 	add	x21, x0, #0x0
    243c:	aa1503e0 	mov	x0, x21
    2440:	b940227b 	ldr	w27, [x19, #32]
    2444:	8b000055 	add	x21, x2, x0
    2448:	17ffff56 	b	21a0 <mod_timer_pending+0xc0>
forward_timer_base():
/data3/home/yuanqiliang/code/arm-kernel/kernel/time/timer.c:904
		base->clk = jnow;
    244c:	f9000aa1 	str	x1, [x21, #16]
    2450:	b940227b 	ldr	w27, [x19, #32]
    2454:	17ffff6e 	b	220c <mod_timer_pending+0x12c>
    2458:	f9000a81 	str	x1, [x20, #16]
    245c:	17ffff3e 	b	2154 <mod_timer_pending+0x74>

0000000000002460 <mod_timer>:
mod_timer():
/data3/home/yuanqiliang/code/arm-kernel/kernel/time/timer.c:1102
{
    2460:	a9b97bfd 	stp	x29, x30, [sp, #-112]!
    2464:	910003fd 	mov	x29, sp
    2468:	a90153f3 	stp	x19, x20, [sp, #16]
    246c:	a9025bf5 	stp	x21, x22, [sp, #32]
    2470:	a90363f7 	stp	x23, x24, [sp, #48]
    2474:	a9046bf9 	stp	x25, x26, [sp, #64]
    2478:	f9002bfb 	str	x27, [sp, #80]
__mod_timer():
/data3/home/yuanqiliang/code/arm-kernel/kernel/time/timer.c:959
	BUG_ON(!timer->function);
    247c:	f9400c02 	ldr	x2, [x0, #24]
    2480:	b4001202 	cbz	x2, 26c0 <mod_timer+0x260>
timer_pending():
/data3/home/yuanqiliang/code/arm-kernel/./include/linux/timer.h:156
    2484:	aa0103f5 	mov	x21, x1
    2488:	aa0003f3 	mov	x19, x0
__mod_timer():
/data3/home/yuanqiliang/code/arm-kernel/kernel/time/timer.c:966
	if (timer_pending(timer)) {
    248c:	f9400401 	ldr	x1, [x0, #8]
    2490:	b4000e81 	cbz	x1, 2660 <mod_timer+0x200>
/data3/home/yuanqiliang/code/arm-kernel/kernel/time/timer.c:974
		if (!diff)
    2494:	f9400801 	ldr	x1, [x0, #16]
/data3/home/yuanqiliang/code/arm-kernel/kernel/time/timer.c:975
			return 1;
    2498:	52800038 	mov	w24, #0x1                   	// #1
/data3/home/yuanqiliang/code/arm-kernel/kernel/time/timer.c:974
		if (!diff)
    249c:	eb0102bf 	cmp	x21, x1
    24a0:	54000960 	b.eq	25cc <mod_timer+0x16c>  // b.none
/data3/home/yuanqiliang/code/arm-kernel/kernel/time/timer.c:985
		base = lock_timer_base(timer, &flags);
    24a4:	9101a3e1 	add	x1, sp, #0x68
    24a8:	97fffd80 	bl	1aa8 <lock_timer_base>
    24ac:	aa0003f6 	mov	x22, x0
forward_timer_base():
/data3/home/yuanqiliang/code/arm-kernel/kernel/time/timer.c:891
	if (likely(!base->must_forward_clk))
    24b0:	39409400 	ldrb	w0, [x0, #37]
    24b4:	35001560 	cbnz	w0, 2760 <mod_timer+0x300>
    24b8:	f9400ada 	ldr	x26, [x22, #16]
__mod_timer():
/data3/home/yuanqiliang/code/arm-kernel/kernel/time/timer.c:995
		idx = calc_wheel_index(expires, clk);
    24bc:	aa1a03e1 	mov	x1, x26
    24c0:	aa1503e0 	mov	x0, x21
    24c4:	97fff7b7 	bl	3a0 <calc_wheel_index>
    24c8:	2a0003f9 	mov	w25, w0
timer_get_idx():
/data3/home/yuanqiliang/code/arm-kernel/kernel/time/timer.c:476
	return (timer->flags & TIMER_ARRAYMASK) >> TIMER_ARRAYSHIFT;
    24cc:	b9402260 	ldr	w0, [x19, #32]
__mod_timer():
/data3/home/yuanqiliang/code/arm-kernel/kernel/time/timer.c:1002
		if (idx == timer_get_idx(timer)) {
    24d0:	6b405b3f 	cmp	w25, w0, lsr #22
    24d4:	54000ee0 	b.eq	26b0 <mod_timer+0x250>  // b.none
/data3/home/yuanqiliang/code/arm-kernel/kernel/time/timer.c:1015
	ret = detach_if_pending(timer, base, false);
    24d8:	52800002 	mov	w2, #0x0                   	// #0
    24dc:	aa1603e1 	mov	x1, x22
    24e0:	aa1303e0 	mov	x0, x19
    24e4:	97fff825 	bl	578 <detach_if_pending>
/data3/home/yuanqiliang/code/arm-kernel/kernel/time/timer.c:1019
	new_base = get_target_base(base, timer->flags);
    24e8:	b9402277 	ldr	w23, [x19, #32]
/data3/home/yuanqiliang/code/arm-kernel/kernel/time/timer.c:1015
	ret = detach_if_pending(timer, base, false);
    24ec:	2a0003f8 	mov	w24, w0
arch_static_branch_jump():
/data3/home/yuanqiliang/code/arm-kernel/./arch/arm64/include/asm/jump_label.h:34
	asm_volatile_goto("1: b %l[l_yes]\n\t"
    24f0:	1400005a 	b	2658 <mod_timer+0x1f8>
get_target_base():
/data3/home/yuanqiliang/code/arm-kernel/kernel/time/timer.c:874
	if (static_branch_likely(&timers_migration_enabled) &&
    24f4:	120d02fb 	and	w27, w23, #0x80000
    24f8:	36a00f97 	tbz	w23, #20, 26e8 <mod_timer+0x288>
get_timer_this_cpu_base():
/data3/home/yuanqiliang/code/arm-kernel/kernel/time/timer.c:854
	struct timer_base *base = this_cpu_ptr(&timer_bases[BASE_STD]);
    24fc:	90000014 	adrp	x20, 0 <__round_jiffies>
    2500:	91000294 	add	x20, x20, #0x0
    2504:	aa1403e0 	mov	x0, x20
__my_cpu_offset():
/data3/home/yuanqiliang/code/arm-kernel/./arch/arm64/include/asm/percpu.h:30
    2508:	d538d081 	mrs	x1, tpidr_el1
get_timer_this_cpu_base():
/data3/home/yuanqiliang/code/arm-kernel/kernel/time/timer.c:860
	if (IS_ENABLED(CONFIG_NO_HZ_COMMON) && (tflags & TIMER_DEFERRABLE))
    250c:	3400009b 	cbz	w27, 251c <mod_timer+0xbc>
/data3/home/yuanqiliang/code/arm-kernel/kernel/time/timer.c:861
		base = this_cpu_ptr(&timer_bases[BASE_DEF]);
    2510:	90000000 	adrp	x0, 0 <__round_jiffies>
    2514:	91000014 	add	x20, x0, #0x0
    2518:	aa1403e0 	mov	x0, x20
    251c:	8b010014 	add	x20, x0, x1
__mod_timer():
/data3/home/yuanqiliang/code/arm-kernel/kernel/time/timer.c:1021
	if (base != new_base) {
    2520:	aa1403fb 	mov	x27, x20
    2524:	eb1402df 	cmp	x22, x20
    2528:	54000360 	b.eq	2594 <mod_timer+0x134>  // b.none
/data3/home/yuanqiliang/code/arm-kernel/kernel/time/timer.c:1029
		if (likely(base->running_timer != timer)) {
    252c:	f94006c0 	ldr	x0, [x22, #8]
    2530:	aa1603fb 	mov	x27, x22
    2534:	eb00027f 	cmp	x19, x0
    2538:	540012e0 	b.eq	2794 <mod_timer+0x334>  // b.none
/data3/home/yuanqiliang/code/arm-kernel/kernel/time/timer.c:1031
			timer->flags |= TIMER_MIGRATING;
    253c:	320e02f7 	orr	w23, w23, #0x40000
queued_spin_unlock():
/data3/home/yuanqiliang/code/arm-kernel/./include/asm-generic/qspinlock.h:101
	smp_store_release(&lock->locked, 0);
    2540:	52800000 	mov	w0, #0x0                   	// #0
__mod_timer():
/data3/home/yuanqiliang/code/arm-kernel/kernel/time/timer.c:1031
    2544:	b9002277 	str	w23, [x19, #32]
queued_spin_unlock():
/data3/home/yuanqiliang/code/arm-kernel/./include/asm-generic/qspinlock.h:101
    2548:	089ffec0 	stlrb	w0, [x22]
__cmpxchg_case_acq_4():
/data3/home/yuanqiliang/code/arm-kernel/./arch/arm64/include/asm/atomic_ll_sc.h:272
    254c:	d2800000 	mov	x0, #0x0                   	// #0
do_raw_spin_lock():
/data3/home/yuanqiliang/code/arm-kernel/./include/linux/spinlock.h:180
    2550:	aa1403fb 	mov	x27, x20
__cmpxchg_case_acq_4():
/data3/home/yuanqiliang/code/arm-kernel/./arch/arm64/include/asm/atomic_ll_sc.h:272
    2554:	d2800022 	mov	x2, #0x1                   	// #1
    2558:	f9800291 	prfm	pstl1strm, [x20]
    255c:	885ffe81 	ldaxr	w1, [x20]
    2560:	4a000023 	eor	w3, w1, w0
    2564:	35000063 	cbnz	w3, 2570 <mod_timer+0x110>
    2568:	88037e82 	stxr	w3, w2, [x20]
    256c:	35ffff83 	cbnz	w3, 255c <mod_timer+0xfc>
queued_spin_lock():
/data3/home/yuanqiliang/code/arm-kernel/./include/asm-generic/qspinlock.h:86
	if (likely(val == 0))
    2570:	35001161 	cbnz	w1, 279c <mod_timer+0x33c>
__mod_timer():
/data3/home/yuanqiliang/code/arm-kernel/kernel/time/timer.c:1036
			WRITE_ONCE(timer->flags,
    2574:	b9402260 	ldr	w0, [x19, #32]
    2578:	b9402281 	ldr	w1, [x20, #32]
    257c:	120d3000 	and	w0, w0, #0xfff80000
    2580:	2a010000 	orr	w0, w0, w1
__write_once_size():
/data3/home/yuanqiliang/code/arm-kernel/./include/linux/compiler.h:219
	case 4: *(volatile __u32 *)p = *(__u32 *)res; break;
    2584:	b9002260 	str	w0, [x19, #32]
forward_timer_base():
/data3/home/yuanqiliang/code/arm-kernel/kernel/time/timer.c:891
	if (likely(!base->must_forward_clk))
    2588:	39409680 	ldrb	w0, [x20, #37]
    258c:	35000c80 	cbnz	w0, 271c <mod_timer+0x2bc>
    2590:	b9402277 	ldr	w23, [x19, #32]
arch_static_branch():
/data3/home/yuanqiliang/code/arm-kernel/./arch/arm64/include/asm/jump_label.h:20
	asm_volatile_goto("1: nop\n\t"
    2594:	d503201f 	nop
__mod_timer():
/data3/home/yuanqiliang/code/arm-kernel/kernel/time/timer.c:1044
	timer->expires = expires;
    2598:	f9000a75 	str	x21, [x19, #16]
/data3/home/yuanqiliang/code/arm-kernel/kernel/time/timer.c:1052
	if (idx != UINT_MAX && clk == base->clk) {
    259c:	3100073f 	cmn	w25, #0x1
    25a0:	54000080 	b.eq	25b0 <mod_timer+0x150>  // b.none
    25a4:	f9400a80 	ldr	x0, [x20, #16]
    25a8:	eb1a001f 	cmp	x0, x26
    25ac:	540008c0 	b.eq	26c4 <mod_timer+0x264>  // b.none
/data3/home/yuanqiliang/code/arm-kernel/kernel/time/timer.c:1056
		internal_add_timer(base, timer);
    25b0:	aa1303e1 	mov	x1, x19
    25b4:	aa1403e0 	mov	x0, x20
    25b8:	97fffebe 	bl	20b0 <internal_add_timer>
queued_spin_unlock():
/data3/home/yuanqiliang/code/arm-kernel/./include/asm-generic/qspinlock.h:101
	smp_store_release(&lock->locked, 0);
    25bc:	52800001 	mov	w1, #0x0                   	// #0
__mod_timer():
/data3/home/yuanqiliang/code/arm-kernel/kernel/time/timer.c:1060
	raw_spin_unlock_irqrestore(&base->lock, flags);
    25c0:	f94037e0 	ldr	x0, [sp, #104]
queued_spin_unlock():
/data3/home/yuanqiliang/code/arm-kernel/./include/asm-generic/qspinlock.h:101
    25c4:	089fff61 	stlrb	w1, [x27]
arch_local_irq_restore():
/data3/home/yuanqiliang/code/arm-kernel/./arch/arm64/include/asm/irqflags.h:77
    25c8:	d51b4220 	msr	daif, x0
mod_timer():
/data3/home/yuanqiliang/code/arm-kernel/kernel/time/timer.c:1104
}
    25cc:	2a1803e0 	mov	w0, w24
    25d0:	a94153f3 	ldp	x19, x20, [sp, #16]
    25d4:	a9425bf5 	ldp	x21, x22, [sp, #32]
    25d8:	a94363f7 	ldp	x23, x24, [sp, #48]
    25dc:	a9446bf9 	ldp	x25, x26, [sp, #64]
    25e0:	f9402bfb 	ldr	x27, [sp, #80]
    25e4:	a8c77bfd 	ldp	x29, x30, [sp], #112
    25e8:	d65f03c0 	ret
trace_timer_start():
/data3/home/yuanqiliang/code/arm-kernel/./include/trace/events/timer.h:52
    25ec:	90000000 	adrp	x0, 0 <cpu_number>
    25f0:	91000000 	add	x0, x0, #0x0
__my_cpu_offset():
/data3/home/yuanqiliang/code/arm-kernel/./arch/arm64/include/asm/percpu.h:30
    25f4:	d538d081 	mrs	x1, tpidr_el1
trace_timer_start():
/data3/home/yuanqiliang/code/arm-kernel/./include/trace/events/timer.h:52
    25f8:	b8616801 	ldr	w1, [x0, x1]
test_bit():
/data3/home/yuanqiliang/code/arm-kernel/./include/asm-generic/bitops/non-atomic.h:106
    25fc:	90000002 	adrp	x2, 0 <__cpu_online_mask>
    2600:	91000042 	add	x2, x2, #0x0
    2604:	7100003f 	cmp	w1, #0x0
    2608:	1100fc20 	add	w0, w1, #0x3f
    260c:	1a81b000 	csel	w0, w0, w1, lt  // lt = tstop
    2610:	13067c00 	asr	w0, w0, #6
    2614:	93407c00 	sxtw	x0, w0
    2618:	f8607840 	ldr	x0, [x2, x0, lsl #3]
    261c:	9ac12401 	lsr	x1, x0, x1
trace_timer_start():
/data3/home/yuanqiliang/code/arm-kernel/./include/trace/events/timer.h:52
    2620:	3607fbc1 	tbz	w1, #0, 2598 <mod_timer+0x138>
__read_once_size():
/data3/home/yuanqiliang/code/arm-kernel/./include/linux/compiler.h:193
	__READ_ONCE_SIZE;
    2624:	90000000 	adrp	x0, 0 <__round_jiffies>
    2628:	91000000 	add	x0, x0, #0x0
    262c:	f9407416 	ldr	x22, [x0, #232]
trace_timer_start():
/data3/home/yuanqiliang/code/arm-kernel/./include/trace/events/timer.h:52
    2630:	b4000136 	cbz	x22, 2654 <mod_timer+0x1f4>
    2634:	f94002c4 	ldr	x4, [x22]
    2638:	2a1703e3 	mov	w3, w23
    263c:	f94006c0 	ldr	x0, [x22, #8]
    2640:	aa1503e2 	mov	x2, x21
    2644:	aa1303e1 	mov	x1, x19
    2648:	d63f0080 	blr	x4
    264c:	f8418ec4 	ldr	x4, [x22, #24]!
    2650:	b5ffff44 	cbnz	x4, 2638 <mod_timer+0x1d8>
    2654:	17ffffd1 	b	2598 <mod_timer+0x138>
    2658:	120d02fb 	and	w27, w23, #0x80000
    265c:	17ffffa8 	b	24fc <mod_timer+0x9c>
__mod_timer():
/data3/home/yuanqiliang/code/arm-kernel/kernel/time/timer.c:1011
		base = lock_timer_base(timer, &flags);
    2660:	9101a3e1 	add	x1, sp, #0x68
    2664:	97fffd11 	bl	1aa8 <lock_timer_base>
    2668:	aa0003f6 	mov	x22, x0
forward_timer_base():
/data3/home/yuanqiliang/code/arm-kernel/kernel/time/timer.c:891
	if (likely(!base->must_forward_clk))
    266c:	39409400 	ldrb	w0, [x0, #37]
__mod_timer():
/data3/home/yuanqiliang/code/arm-kernel/kernel/time/timer.c:956
	unsigned long clk = 0, flags;
    2670:	d280001a 	mov	x26, #0x0                   	// #0
/data3/home/yuanqiliang/code/arm-kernel/kernel/time/timer.c:955
	unsigned int idx = UINT_MAX;
    2674:	12800019 	mov	w25, #0xffffffff            	// #-1
forward_timer_base():
/data3/home/yuanqiliang/code/arm-kernel/kernel/time/timer.c:891
	if (likely(!base->must_forward_clk))
    2678:	34fff300 	cbz	w0, 24d8 <mod_timer+0x78>
__read_once_size():
/data3/home/yuanqiliang/code/arm-kernel/./include/linux/compiler.h:193
    267c:	90000001 	adrp	x1, 0 <jiffies>
forward_timer_base():
/data3/home/yuanqiliang/code/arm-kernel/kernel/time/timer.c:895
	base->must_forward_clk = base->is_idle;
    2680:	394092c2 	ldrb	w2, [x22, #36]
/data3/home/yuanqiliang/code/arm-kernel/kernel/time/timer.c:896
	if ((long)(jnow - base->clk) < 2)
    2684:	f9400ac0 	ldr	x0, [x22, #16]
/data3/home/yuanqiliang/code/arm-kernel/kernel/time/timer.c:895
	base->must_forward_clk = base->is_idle;
    2688:	390096c2 	strb	w2, [x22, #37]
__read_once_size():
/data3/home/yuanqiliang/code/arm-kernel/./include/linux/compiler.h:193
    268c:	f9400021 	ldr	x1, [x1]
forward_timer_base():
/data3/home/yuanqiliang/code/arm-kernel/kernel/time/timer.c:896
	if ((long)(jnow - base->clk) < 2)
    2690:	cb000020 	sub	x0, x1, x0
    2694:	f100041f 	cmp	x0, #0x1
    2698:	54fff20d 	b.le	24d8 <mod_timer+0x78>
/data3/home/yuanqiliang/code/arm-kernel/kernel/time/timer.c:903
	if (time_after(base->next_expiry, jnow))
    269c:	f9400ec0 	ldr	x0, [x22, #24]
    26a0:	eb00003f 	cmp	x1, x0
    26a4:	540008e4 	b.mi	27c0 <mod_timer+0x360>  // b.first
/data3/home/yuanqiliang/code/arm-kernel/kernel/time/timer.c:906
		base->clk = base->next_expiry;
    26a8:	f9000ac0 	str	x0, [x22, #16]
    26ac:	17ffff8b 	b	24d8 <mod_timer+0x78>
__mod_timer():
/data3/home/yuanqiliang/code/arm-kernel/kernel/time/timer.c:1004
				timer->expires = expires;
    26b0:	aa1603fb 	mov	x27, x22
/data3/home/yuanqiliang/code/arm-kernel/kernel/time/timer.c:1007
			ret = 1;
    26b4:	52800038 	mov	w24, #0x1                   	// #1
/data3/home/yuanqiliang/code/arm-kernel/kernel/time/timer.c:1004
				timer->expires = expires;
    26b8:	f9000a75 	str	x21, [x19, #16]
/data3/home/yuanqiliang/code/arm-kernel/kernel/time/timer.c:1008
			goto out_unlock;
    26bc:	17ffffc0 	b	25bc <mod_timer+0x15c>
/data3/home/yuanqiliang/code/arm-kernel/kernel/time/timer.c:959
	BUG_ON(!timer->function);
    26c0:	d4210000 	brk	#0x800
/data3/home/yuanqiliang/code/arm-kernel/kernel/time/timer.c:1053
		enqueue_timer(base, timer, idx);
    26c4:	2a1903e2 	mov	w2, w25
    26c8:	aa1303e1 	mov	x1, x19
    26cc:	aa1403e0 	mov	x0, x20
    26d0:	97fff77e 	bl	4c8 <enqueue_timer>
/data3/home/yuanqiliang/code/arm-kernel/kernel/time/timer.c:1054
		trigger_dyntick_cpu(base, timer);
    26d4:	aa1403e0 	mov	x0, x20
    26d8:	91008262 	add	x2, x19, #0x20
    26dc:	91004261 	add	x1, x19, #0x10
    26e0:	97fffe62 	bl	2068 <trigger_dyntick_cpu.isra.3>
    26e4:	17ffffb6 	b	25bc <mod_timer+0x15c>
get_target_base():
/data3/home/yuanqiliang/code/arm-kernel/kernel/time/timer.c:876
		return get_timer_cpu_base(tflags, get_nohz_timer_target());
    26e8:	94000000 	bl	0 <get_nohz_timer_target>
get_timer_cpu_base():
/data3/home/yuanqiliang/code/arm-kernel/kernel/time/timer.c:841
	struct timer_base *base = per_cpu_ptr(&timer_bases[BASE_STD], cpu);
    26ec:	90000014 	adrp	x20, 0 <__round_jiffies>
    26f0:	90000002 	adrp	x2, 0 <__per_cpu_offset>
    26f4:	91000042 	add	x2, x2, #0x0
    26f8:	91000294 	add	x20, x20, #0x0
    26fc:	aa1403e1 	mov	x1, x20
    2700:	f8605854 	ldr	x20, [x2, w0, uxtw #3]
/data3/home/yuanqiliang/code/arm-kernel/kernel/time/timer.c:847
	if (IS_ENABLED(CONFIG_NO_HZ_COMMON) && (tflags & TIMER_DEFERRABLE))
    2704:	3400029b 	cbz	w27, 2754 <mod_timer+0x2f4>
/data3/home/yuanqiliang/code/arm-kernel/kernel/time/timer.c:848
		base = per_cpu_ptr(&timer_bases[BASE_DEF], cpu);
    2708:	90000000 	adrp	x0, 0 <__round_jiffies>
    270c:	b9402277 	ldr	w23, [x19, #32]
    2710:	91000000 	add	x0, x0, #0x0
    2714:	8b000294 	add	x20, x20, x0
    2718:	17ffff82 	b	2520 <mod_timer+0xc0>
__read_once_size():
/data3/home/yuanqiliang/code/arm-kernel/./include/linux/compiler.h:193
    271c:	90000001 	adrp	x1, 0 <jiffies>
forward_timer_base():
/data3/home/yuanqiliang/code/arm-kernel/kernel/time/timer.c:895
	base->must_forward_clk = base->is_idle;
    2720:	39409282 	ldrb	w2, [x20, #36]
/data3/home/yuanqiliang/code/arm-kernel/kernel/time/timer.c:896
	if ((long)(jnow - base->clk) < 2)
    2724:	f9400a80 	ldr	x0, [x20, #16]
/data3/home/yuanqiliang/code/arm-kernel/kernel/time/timer.c:895
	base->must_forward_clk = base->is_idle;
    2728:	39009682 	strb	w2, [x20, #37]
__read_once_size():
/data3/home/yuanqiliang/code/arm-kernel/./include/linux/compiler.h:193
    272c:	f9400021 	ldr	x1, [x1]
forward_timer_base():
/data3/home/yuanqiliang/code/arm-kernel/kernel/time/timer.c:896
	if ((long)(jnow - base->clk) < 2)
    2730:	cb000020 	sub	x0, x1, x0
    2734:	f100041f 	cmp	x0, #0x1
    2738:	54fff2cd 	b.le	2590 <mod_timer+0x130>
/data3/home/yuanqiliang/code/arm-kernel/kernel/time/timer.c:903
	if (time_after(base->next_expiry, jnow))
    273c:	f9400e80 	ldr	x0, [x20, #24]
    2740:	eb00003f 	cmp	x1, x0
    2744:	54000384 	b.mi	27b4 <mod_timer+0x354>  // b.first
/data3/home/yuanqiliang/code/arm-kernel/kernel/time/timer.c:906
		base->clk = base->next_expiry;
    2748:	f9000a80 	str	x0, [x20, #16]
    274c:	b9402277 	ldr	w23, [x19, #32]
    2750:	17ffff91 	b	2594 <mod_timer+0x134>
get_timer_cpu_base():
/data3/home/yuanqiliang/code/arm-kernel/kernel/time/timer.c:841
	struct timer_base *base = per_cpu_ptr(&timer_bases[BASE_STD], cpu);
    2754:	8b140034 	add	x20, x1, x20
    2758:	b9402277 	ldr	w23, [x19, #32]
    275c:	17ffff71 	b	2520 <mod_timer+0xc0>
__read_once_size():
/data3/home/yuanqiliang/code/arm-kernel/./include/linux/compiler.h:193
    2760:	90000000 	adrp	x0, 0 <jiffies>
forward_timer_base():
/data3/home/yuanqiliang/code/arm-kernel/kernel/time/timer.c:895
	base->must_forward_clk = base->is_idle;
    2764:	394092c1 	ldrb	w1, [x22, #36]
/data3/home/yuanqiliang/code/arm-kernel/kernel/time/timer.c:896
	if ((long)(jnow - base->clk) < 2)
    2768:	f9400ada 	ldr	x26, [x22, #16]
/data3/home/yuanqiliang/code/arm-kernel/kernel/time/timer.c:895
	base->must_forward_clk = base->is_idle;
    276c:	390096c1 	strb	w1, [x22, #37]
__read_once_size():
/data3/home/yuanqiliang/code/arm-kernel/./include/linux/compiler.h:193
    2770:	f9400000 	ldr	x0, [x0]
forward_timer_base():
/data3/home/yuanqiliang/code/arm-kernel/kernel/time/timer.c:896
	if ((long)(jnow - base->clk) < 2)
    2774:	cb1a0001 	sub	x1, x0, x26
    2778:	f100043f 	cmp	x1, #0x1
    277c:	54ffea0d 	b.le	24bc <mod_timer+0x5c>
/data3/home/yuanqiliang/code/arm-kernel/kernel/time/timer.c:903
	if (time_after(base->next_expiry, jnow))
    2780:	f9400eda 	ldr	x26, [x22, #24]
    2784:	eb1a001f 	cmp	x0, x26
    2788:	54000104 	b.mi	27a8 <mod_timer+0x348>  // b.first
/data3/home/yuanqiliang/code/arm-kernel/kernel/time/timer.c:906
		base->clk = base->next_expiry;
    278c:	f9000ada 	str	x26, [x22, #16]
    2790:	17ffff4b 	b	24bc <mod_timer+0x5c>
__mod_timer():
/data3/home/yuanqiliang/code/arm-kernel/kernel/time/timer.c:1029
		if (likely(base->running_timer != timer)) {
    2794:	aa1603f4 	mov	x20, x22
    2798:	17ffff7f 	b	2594 <mod_timer+0x134>
queued_spin_lock():
/data3/home/yuanqiliang/code/arm-kernel/./include/asm-generic/qspinlock.h:88
	queued_spin_lock_slowpath(lock, val);
    279c:	aa1403e0 	mov	x0, x20
    27a0:	94000000 	bl	0 <queued_spin_lock_slowpath>
    27a4:	17ffff74 	b	2574 <mod_timer+0x114>
forward_timer_base():
/data3/home/yuanqiliang/code/arm-kernel/kernel/time/timer.c:904
		base->clk = jnow;
    27a8:	aa0003fa 	mov	x26, x0
    27ac:	f9000ac0 	str	x0, [x22, #16]
    27b0:	17ffff43 	b	24bc <mod_timer+0x5c>
    27b4:	f9000a81 	str	x1, [x20, #16]
    27b8:	b9402277 	ldr	w23, [x19, #32]
    27bc:	17ffff76 	b	2594 <mod_timer+0x134>
    27c0:	f9000ac1 	str	x1, [x22, #16]
    27c4:	17ffff45 	b	24d8 <mod_timer+0x78>

00000000000027c8 <add_timer>:
add_timer():
/data3/home/yuanqiliang/code/arm-kernel/kernel/time/timer.c:1137
{
    27c8:	a9bf7bfd 	stp	x29, x30, [sp, #-16]!
    27cc:	910003fd 	mov	x29, sp
/data3/home/yuanqiliang/code/arm-kernel/kernel/time/timer.c:1138
	BUG_ON(timer_pending(timer));
    27d0:	f9400402 	ldr	x2, [x0, #8]
    27d4:	b50000a2 	cbnz	x2, 27e8 <add_timer+0x20>
/data3/home/yuanqiliang/code/arm-kernel/kernel/time/timer.c:1139
	mod_timer(timer, timer->expires);
    27d8:	f9400801 	ldr	x1, [x0, #16]
    27dc:	94000000 	bl	2460 <mod_timer>
/data3/home/yuanqiliang/code/arm-kernel/kernel/time/timer.c:1140
}
    27e0:	a8c17bfd 	ldp	x29, x30, [sp], #16
    27e4:	d65f03c0 	ret
/data3/home/yuanqiliang/code/arm-kernel/kernel/time/timer.c:1138
	BUG_ON(timer_pending(timer));
    27e8:	d4210000 	brk	#0x800
    27ec:	d503201f 	nop

00000000000027f0 <timer_reduce>:
timer_reduce():
/data3/home/yuanqiliang/code/arm-kernel/kernel/time/timer.c:1117
{
    27f0:	a9b97bfd 	stp	x29, x30, [sp, #-112]!
    27f4:	910003fd 	mov	x29, sp
__mod_timer():
/data3/home/yuanqiliang/code/arm-kernel/kernel/time/timer.c:959
	BUG_ON(!timer->function);
    27f8:	f9400c02 	ldr	x2, [x0, #24]
    27fc:	a90153f3 	stp	x19, x20, [sp, #16]
    2800:	a9025bf5 	stp	x21, x22, [sp, #32]
    2804:	a90363f7 	stp	x23, x24, [sp, #48]
    2808:	b40015c2 	cbz	x2, 2ac0 <timer_reduce+0x2d0>
timer_pending():
/data3/home/yuanqiliang/code/arm-kernel/./include/linux/timer.h:156
    280c:	aa0103f5 	mov	x21, x1
    2810:	aa0003f3 	mov	x19, x0
__mod_timer():
/data3/home/yuanqiliang/code/arm-kernel/kernel/time/timer.c:966
	if (timer_pending(timer)) {
    2814:	f9400401 	ldr	x1, [x0, #8]
    2818:	b4001081 	cbz	x1, 2a28 <timer_reduce+0x238>
/data3/home/yuanqiliang/code/arm-kernel/kernel/time/timer.c:972
		long diff = timer->expires - expires;
    281c:	f9400802 	ldr	x2, [x0, #16]
/data3/home/yuanqiliang/code/arm-kernel/kernel/time/timer.c:977
			return 1;
    2820:	52800037 	mov	w23, #0x1                   	// #1
/data3/home/yuanqiliang/code/arm-kernel/kernel/time/timer.c:972
		long diff = timer->expires - expires;
    2824:	cb150042 	sub	x2, x2, x21
/data3/home/yuanqiliang/code/arm-kernel/kernel/time/timer.c:976
		if (options & MOD_TIMER_REDUCE && diff <= 0)
    2828:	f100005f 	cmp	x2, #0x0
    282c:	540000ec 	b.gt	2848 <timer_reduce+0x58>
timer_reduce():
/data3/home/yuanqiliang/code/arm-kernel/kernel/time/timer.c:1119
}
    2830:	2a1703e0 	mov	w0, w23
    2834:	a94153f3 	ldp	x19, x20, [sp, #16]
    2838:	a9425bf5 	ldp	x21, x22, [sp, #32]
    283c:	a94363f7 	ldp	x23, x24, [sp, #48]
    2840:	a8c77bfd 	ldp	x29, x30, [sp], #112
    2844:	d65f03c0 	ret
__mod_timer():
/data3/home/yuanqiliang/code/arm-kernel/kernel/time/timer.c:985
		base = lock_timer_base(timer, &flags);
    2848:	9101a3e1 	add	x1, sp, #0x68
    284c:	97fffc97 	bl	1aa8 <lock_timer_base>
    2850:	aa0003f6 	mov	x22, x0
forward_timer_base():
/data3/home/yuanqiliang/code/arm-kernel/kernel/time/timer.c:891
	if (likely(!base->must_forward_clk))
    2854:	39409400 	ldrb	w0, [x0, #37]
    2858:	350018c0 	cbnz	w0, 2b70 <timer_reduce+0x380>
__mod_timer():
/data3/home/yuanqiliang/code/arm-kernel/kernel/time/timer.c:988
		if (timer_pending(timer) && (options & MOD_TIMER_REDUCE) &&
    285c:	f9400660 	ldr	x0, [x19, #8]
    2860:	b4001100 	cbz	x0, 2a80 <timer_reduce+0x290>
/data3/home/yuanqiliang/code/arm-kernel/kernel/time/timer.c:989
		    time_before_eq(timer->expires, expires)) {
    2864:	f9400a60 	ldr	x0, [x19, #16]
    2868:	aa1603f8 	mov	x24, x22
/data3/home/yuanqiliang/code/arm-kernel/kernel/time/timer.c:990
			ret = 1;
    286c:	52800037 	mov	w23, #0x1                   	// #1
/data3/home/yuanqiliang/code/arm-kernel/kernel/time/timer.c:989
		    time_before_eq(timer->expires, expires)) {
    2870:	eb0002bf 	cmp	x21, x0
    2874:	540008a5 	b.pl	2988 <timer_reduce+0x198>  // b.nfrst
/data3/home/yuanqiliang/code/arm-kernel/kernel/time/timer.c:994
		clk = base->clk;
    2878:	a9046bf9 	stp	x25, x26, [sp, #64]
/data3/home/yuanqiliang/code/arm-kernel/kernel/time/timer.c:995
		idx = calc_wheel_index(expires, clk);
    287c:	aa1503e0 	mov	x0, x21
/data3/home/yuanqiliang/code/arm-kernel/kernel/time/timer.c:994
		clk = base->clk;
    2880:	f9400ada 	ldr	x26, [x22, #16]
/data3/home/yuanqiliang/code/arm-kernel/kernel/time/timer.c:995
		idx = calc_wheel_index(expires, clk);
    2884:	aa1a03e1 	mov	x1, x26
    2888:	97fff6c6 	bl	3a0 <calc_wheel_index>
    288c:	2a0003f9 	mov	w25, w0
timer_get_idx():
/data3/home/yuanqiliang/code/arm-kernel/kernel/time/timer.c:476
	return (timer->flags & TIMER_ARRAYMASK) >> TIMER_ARRAYSHIFT;
    2890:	b9402260 	ldr	w0, [x19, #32]
__mod_timer():
/data3/home/yuanqiliang/code/arm-kernel/kernel/time/timer.c:1002
		if (idx == timer_get_idx(timer)) {
    2894:	6b405b3f 	cmp	w25, w0, lsr #22
    2898:	540014c0 	b.eq	2b30 <timer_reduce+0x340>  // b.none
    289c:	f9002bfb 	str	x27, [sp, #80]
/data3/home/yuanqiliang/code/arm-kernel/kernel/time/timer.c:1015
	ret = detach_if_pending(timer, base, false);
    28a0:	52800002 	mov	w2, #0x0                   	// #0
    28a4:	aa1603e1 	mov	x1, x22
    28a8:	aa1303e0 	mov	x0, x19
    28ac:	97fff733 	bl	578 <detach_if_pending>
/data3/home/yuanqiliang/code/arm-kernel/kernel/time/timer.c:1019
	new_base = get_target_base(base, timer->flags);
    28b0:	b940227b 	ldr	w27, [x19, #32]
/data3/home/yuanqiliang/code/arm-kernel/kernel/time/timer.c:1015
	ret = detach_if_pending(timer, base, false);
    28b4:	2a0003f7 	mov	w23, w0
arch_static_branch_jump():
/data3/home/yuanqiliang/code/arm-kernel/./arch/arm64/include/asm/jump_label.h:34
	asm_volatile_goto("1: b %l[l_yes]\n\t"
    28b8:	1400005a 	b	2a20 <timer_reduce+0x230>
get_target_base():
/data3/home/yuanqiliang/code/arm-kernel/kernel/time/timer.c:874
	if (static_branch_likely(&timers_migration_enabled) &&
    28bc:	120d0378 	and	w24, w27, #0x80000
    28c0:	36a0143b 	tbz	w27, #20, 2b44 <timer_reduce+0x354>
get_timer_this_cpu_base():
/data3/home/yuanqiliang/code/arm-kernel/kernel/time/timer.c:854
	struct timer_base *base = this_cpu_ptr(&timer_bases[BASE_STD]);
    28c4:	90000014 	adrp	x20, 0 <__round_jiffies>
    28c8:	91000294 	add	x20, x20, #0x0
    28cc:	aa1403e0 	mov	x0, x20
__my_cpu_offset():
/data3/home/yuanqiliang/code/arm-kernel/./arch/arm64/include/asm/percpu.h:30
    28d0:	d538d094 	mrs	x20, tpidr_el1
get_timer_this_cpu_base():
/data3/home/yuanqiliang/code/arm-kernel/kernel/time/timer.c:860
	if (IS_ENABLED(CONFIG_NO_HZ_COMMON) && (tflags & TIMER_DEFERRABLE))
    28d4:	34000078 	cbz	w24, 28e0 <timer_reduce+0xf0>
/data3/home/yuanqiliang/code/arm-kernel/kernel/time/timer.c:861
		base = this_cpu_ptr(&timer_bases[BASE_DEF]);
    28d8:	90000000 	adrp	x0, 0 <__round_jiffies>
    28dc:	91000000 	add	x0, x0, #0x0
    28e0:	8b140014 	add	x20, x0, x20
__mod_timer():
/data3/home/yuanqiliang/code/arm-kernel/kernel/time/timer.c:1021
	if (base != new_base) {
    28e4:	aa1403f8 	mov	x24, x20
    28e8:	eb1402df 	cmp	x22, x20
    28ec:	54000360 	b.eq	2958 <timer_reduce+0x168>  // b.none
/data3/home/yuanqiliang/code/arm-kernel/kernel/time/timer.c:1029
		if (likely(base->running_timer != timer)) {
    28f0:	f94006c0 	ldr	x0, [x22, #8]
    28f4:	aa1603f8 	mov	x24, x22
    28f8:	eb00027f 	cmp	x19, x0
    28fc:	54001540 	b.eq	2ba4 <timer_reduce+0x3b4>  // b.none
/data3/home/yuanqiliang/code/arm-kernel/kernel/time/timer.c:1031
			timer->flags |= TIMER_MIGRATING;
    2900:	320e037b 	orr	w27, w27, #0x40000
queued_spin_unlock():
/data3/home/yuanqiliang/code/arm-kernel/./include/asm-generic/qspinlock.h:101
	smp_store_release(&lock->locked, 0);
    2904:	52800000 	mov	w0, #0x0                   	// #0
__mod_timer():
/data3/home/yuanqiliang/code/arm-kernel/kernel/time/timer.c:1031
    2908:	b900227b 	str	w27, [x19, #32]
queued_spin_unlock():
/data3/home/yuanqiliang/code/arm-kernel/./include/asm-generic/qspinlock.h:101
    290c:	089ffec0 	stlrb	w0, [x22]
__cmpxchg_case_acq_4():
/data3/home/yuanqiliang/code/arm-kernel/./arch/arm64/include/asm/atomic_ll_sc.h:272
    2910:	d2800000 	mov	x0, #0x0                   	// #0
do_raw_spin_lock():
/data3/home/yuanqiliang/code/arm-kernel/./include/linux/spinlock.h:180
    2914:	aa1403f8 	mov	x24, x20
__cmpxchg_case_acq_4():
/data3/home/yuanqiliang/code/arm-kernel/./arch/arm64/include/asm/atomic_ll_sc.h:272
    2918:	d2800022 	mov	x2, #0x1                   	// #1
    291c:	f9800291 	prfm	pstl1strm, [x20]
    2920:	885ffe81 	ldaxr	w1, [x20]
    2924:	4a000023 	eor	w3, w1, w0
    2928:	35000063 	cbnz	w3, 2934 <timer_reduce+0x144>
    292c:	88037e82 	stxr	w3, w2, [x20]
    2930:	35ffff83 	cbnz	w3, 2920 <timer_reduce+0x130>
queued_spin_lock():
/data3/home/yuanqiliang/code/arm-kernel/./include/asm-generic/qspinlock.h:86
	if (likely(val == 0))
    2934:	350013c1 	cbnz	w1, 2bac <timer_reduce+0x3bc>
__mod_timer():
/data3/home/yuanqiliang/code/arm-kernel/kernel/time/timer.c:1036
			WRITE_ONCE(timer->flags,
    2938:	b9402260 	ldr	w0, [x19, #32]
    293c:	b9402281 	ldr	w1, [x20, #32]
    2940:	120d3000 	and	w0, w0, #0xfff80000
    2944:	2a010000 	orr	w0, w0, w1
__write_once_size():
/data3/home/yuanqiliang/code/arm-kernel/./include/linux/compiler.h:219
	case 4: *(volatile __u32 *)p = *(__u32 *)res; break;
    2948:	b9002260 	str	w0, [x19, #32]
forward_timer_base():
/data3/home/yuanqiliang/code/arm-kernel/kernel/time/timer.c:891
	if (likely(!base->must_forward_clk))
    294c:	39409680 	ldrb	w0, [x20, #37]
    2950:	35000d40 	cbnz	w0, 2af8 <timer_reduce+0x308>
    2954:	b940227b 	ldr	w27, [x19, #32]
arch_static_branch():
/data3/home/yuanqiliang/code/arm-kernel/./arch/arm64/include/asm/jump_label.h:20
	asm_volatile_goto("1: nop\n\t"
    2958:	d503201f 	nop
__mod_timer():
/data3/home/yuanqiliang/code/arm-kernel/kernel/time/timer.c:1044
	timer->expires = expires;
    295c:	f9000a75 	str	x21, [x19, #16]
/data3/home/yuanqiliang/code/arm-kernel/kernel/time/timer.c:1052
	if (idx != UINT_MAX && clk == base->clk) {
    2960:	3100073f 	cmn	w25, #0x1
    2964:	54000080 	b.eq	2974 <timer_reduce+0x184>  // b.none
    2968:	f9400a80 	ldr	x0, [x20, #16]
    296c:	eb1a001f 	cmp	x0, x26
    2970:	54000ae0 	b.eq	2acc <timer_reduce+0x2dc>  // b.none
/data3/home/yuanqiliang/code/arm-kernel/kernel/time/timer.c:1056
		internal_add_timer(base, timer);
    2974:	aa1303e1 	mov	x1, x19
    2978:	aa1403e0 	mov	x0, x20
    297c:	97fffdcd 	bl	20b0 <internal_add_timer>
    2980:	a9446bf9 	ldp	x25, x26, [sp, #64]
    2984:	f9402bfb 	ldr	x27, [sp, #80]
queued_spin_unlock():
/data3/home/yuanqiliang/code/arm-kernel/./include/asm-generic/qspinlock.h:101
	smp_store_release(&lock->locked, 0);
    2988:	52800001 	mov	w1, #0x0                   	// #0
__mod_timer():
/data3/home/yuanqiliang/code/arm-kernel/kernel/time/timer.c:1060
	raw_spin_unlock_irqrestore(&base->lock, flags);
    298c:	f94037e0 	ldr	x0, [sp, #104]
queued_spin_unlock():
/data3/home/yuanqiliang/code/arm-kernel/./include/asm-generic/qspinlock.h:101
    2990:	089fff01 	stlrb	w1, [x24]
arch_local_irq_restore():
/data3/home/yuanqiliang/code/arm-kernel/./arch/arm64/include/asm/irqflags.h:77
    2994:	d51b4220 	msr	daif, x0
timer_reduce():
/data3/home/yuanqiliang/code/arm-kernel/kernel/time/timer.c:1119
}
    2998:	2a1703e0 	mov	w0, w23
    299c:	a94153f3 	ldp	x19, x20, [sp, #16]
    29a0:	a9425bf5 	ldp	x21, x22, [sp, #32]
    29a4:	a94363f7 	ldp	x23, x24, [sp, #48]
    29a8:	a8c77bfd 	ldp	x29, x30, [sp], #112
    29ac:	d65f03c0 	ret
trace_timer_start():
/data3/home/yuanqiliang/code/arm-kernel/./include/trace/events/timer.h:52
    29b0:	90000000 	adrp	x0, 0 <cpu_number>
    29b4:	91000000 	add	x0, x0, #0x0
__my_cpu_offset():
/data3/home/yuanqiliang/code/arm-kernel/./arch/arm64/include/asm/percpu.h:30
    29b8:	d538d081 	mrs	x1, tpidr_el1
trace_timer_start():
/data3/home/yuanqiliang/code/arm-kernel/./include/trace/events/timer.h:52
    29bc:	b8616801 	ldr	w1, [x0, x1]
test_bit():
/data3/home/yuanqiliang/code/arm-kernel/./include/asm-generic/bitops/non-atomic.h:106
    29c0:	90000002 	adrp	x2, 0 <__cpu_online_mask>
    29c4:	91000042 	add	x2, x2, #0x0
    29c8:	7100003f 	cmp	w1, #0x0
    29cc:	1100fc20 	add	w0, w1, #0x3f
    29d0:	1a81b000 	csel	w0, w0, w1, lt  // lt = tstop
    29d4:	13067c00 	asr	w0, w0, #6
    29d8:	93407c00 	sxtw	x0, w0
    29dc:	f8607840 	ldr	x0, [x2, x0, lsl #3]
    29e0:	9ac12401 	lsr	x1, x0, x1
trace_timer_start():
/data3/home/yuanqiliang/code/arm-kernel/./include/trace/events/timer.h:52
    29e4:	3607fbc1 	tbz	w1, #0, 295c <timer_reduce+0x16c>
__read_once_size():
/data3/home/yuanqiliang/code/arm-kernel/./include/linux/compiler.h:193
	__READ_ONCE_SIZE;
    29e8:	90000000 	adrp	x0, 0 <__round_jiffies>
    29ec:	91000000 	add	x0, x0, #0x0
    29f0:	f9407416 	ldr	x22, [x0, #232]
trace_timer_start():
/data3/home/yuanqiliang/code/arm-kernel/./include/trace/events/timer.h:52
    29f4:	b4000156 	cbz	x22, 2a1c <timer_reduce+0x22c>
    29f8:	f94002c4 	ldr	x4, [x22]
    29fc:	d503201f 	nop
    2a00:	2a1b03e3 	mov	w3, w27
    2a04:	f94006c0 	ldr	x0, [x22, #8]
    2a08:	aa1503e2 	mov	x2, x21
    2a0c:	aa1303e1 	mov	x1, x19
    2a10:	d63f0080 	blr	x4
    2a14:	f8418ec4 	ldr	x4, [x22, #24]!
    2a18:	b5ffff44 	cbnz	x4, 2a00 <timer_reduce+0x210>
    2a1c:	17ffffd0 	b	295c <timer_reduce+0x16c>
    2a20:	120d0378 	and	w24, w27, #0x80000
    2a24:	17ffffa8 	b	28c4 <timer_reduce+0xd4>
__mod_timer():
/data3/home/yuanqiliang/code/arm-kernel/kernel/time/timer.c:1011
		base = lock_timer_base(timer, &flags);
    2a28:	9101a3e1 	add	x1, sp, #0x68
    2a2c:	a9046bf9 	stp	x25, x26, [sp, #64]
/data3/home/yuanqiliang/code/arm-kernel/kernel/time/timer.c:956
	unsigned long clk = 0, flags;
    2a30:	d280001a 	mov	x26, #0x0                   	// #0
    2a34:	f9002bfb 	str	x27, [sp, #80]
/data3/home/yuanqiliang/code/arm-kernel/kernel/time/timer.c:1011
		base = lock_timer_base(timer, &flags);
    2a38:	97fffc1c 	bl	1aa8 <lock_timer_base>
    2a3c:	aa0003f6 	mov	x22, x0
forward_timer_base():
/data3/home/yuanqiliang/code/arm-kernel/kernel/time/timer.c:891
	if (likely(!base->must_forward_clk))
    2a40:	39409400 	ldrb	w0, [x0, #37]
__mod_timer():
/data3/home/yuanqiliang/code/arm-kernel/kernel/time/timer.c:955
	unsigned int idx = UINT_MAX;
    2a44:	12800019 	mov	w25, #0xffffffff            	// #-1
forward_timer_base():
/data3/home/yuanqiliang/code/arm-kernel/kernel/time/timer.c:891
	if (likely(!base->must_forward_clk))
    2a48:	34fff2c0 	cbz	w0, 28a0 <timer_reduce+0xb0>
__read_once_size():
/data3/home/yuanqiliang/code/arm-kernel/./include/linux/compiler.h:193
    2a4c:	90000001 	adrp	x1, 0 <jiffies>
forward_timer_base():
/data3/home/yuanqiliang/code/arm-kernel/kernel/time/timer.c:895
	base->must_forward_clk = base->is_idle;
    2a50:	394092c2 	ldrb	w2, [x22, #36]
/data3/home/yuanqiliang/code/arm-kernel/kernel/time/timer.c:896
	if ((long)(jnow - base->clk) < 2)
    2a54:	f9400ac0 	ldr	x0, [x22, #16]
/data3/home/yuanqiliang/code/arm-kernel/kernel/time/timer.c:895
	base->must_forward_clk = base->is_idle;
    2a58:	390096c2 	strb	w2, [x22, #37]
__read_once_size():
/data3/home/yuanqiliang/code/arm-kernel/./include/linux/compiler.h:193
    2a5c:	f9400021 	ldr	x1, [x1]
forward_timer_base():
/data3/home/yuanqiliang/code/arm-kernel/kernel/time/timer.c:896
	if ((long)(jnow - base->clk) < 2)
    2a60:	cb000020 	sub	x0, x1, x0
    2a64:	f100041f 	cmp	x0, #0x1
    2a68:	54fff1cd 	b.le	28a0 <timer_reduce+0xb0>
/data3/home/yuanqiliang/code/arm-kernel/kernel/time/timer.c:903
	if (time_after(base->next_expiry, jnow))
    2a6c:	f9400ec0 	ldr	x0, [x22, #24]
    2a70:	eb00003f 	cmp	x1, x0
    2a74:	54000b24 	b.mi	2bd8 <timer_reduce+0x3e8>  // b.first
/data3/home/yuanqiliang/code/arm-kernel/kernel/time/timer.c:906
		base->clk = base->next_expiry;
    2a78:	f9000ac0 	str	x0, [x22, #16]
    2a7c:	17ffff89 	b	28a0 <timer_reduce+0xb0>
__mod_timer():
/data3/home/yuanqiliang/code/arm-kernel/kernel/time/timer.c:994
		clk = base->clk;
    2a80:	a9046bf9 	stp	x25, x26, [sp, #64]
/data3/home/yuanqiliang/code/arm-kernel/kernel/time/timer.c:995
		idx = calc_wheel_index(expires, clk);
    2a84:	aa1503e0 	mov	x0, x21
/data3/home/yuanqiliang/code/arm-kernel/kernel/time/timer.c:994
		clk = base->clk;
    2a88:	f9400ada 	ldr	x26, [x22, #16]
/data3/home/yuanqiliang/code/arm-kernel/kernel/time/timer.c:995
		idx = calc_wheel_index(expires, clk);
    2a8c:	aa1a03e1 	mov	x1, x26
    2a90:	97fff644 	bl	3a0 <calc_wheel_index>
    2a94:	2a0003f9 	mov	w25, w0
timer_get_idx():
/data3/home/yuanqiliang/code/arm-kernel/kernel/time/timer.c:476
	return (timer->flags & TIMER_ARRAYMASK) >> TIMER_ARRAYSHIFT;
    2a98:	b9402260 	ldr	w0, [x19, #32]
__mod_timer():
/data3/home/yuanqiliang/code/arm-kernel/kernel/time/timer.c:1002
		if (idx == timer_get_idx(timer)) {
    2a9c:	6b405b3f 	cmp	w25, w0, lsr #22
    2aa0:	54ffefe1 	b.ne	289c <timer_reduce+0xac>  // b.any
/data3/home/yuanqiliang/code/arm-kernel/kernel/time/timer.c:1005
			else if (time_after(timer->expires, expires))
    2aa4:	f9400a60 	ldr	x0, [x19, #16]
    2aa8:	aa1603f8 	mov	x24, x22
/data3/home/yuanqiliang/code/arm-kernel/kernel/time/timer.c:1007
			ret = 1;
    2aac:	52800037 	mov	w23, #0x1                   	// #1
/data3/home/yuanqiliang/code/arm-kernel/kernel/time/timer.c:1005
			else if (time_after(timer->expires, expires))
    2ab0:	eb0002bf 	cmp	x21, x0
    2ab4:	540003e4 	b.mi	2b30 <timer_reduce+0x340>  // b.first
    2ab8:	a9446bf9 	ldp	x25, x26, [sp, #64]
    2abc:	17ffffb3 	b	2988 <timer_reduce+0x198>
    2ac0:	a9046bf9 	stp	x25, x26, [sp, #64]
    2ac4:	f9002bfb 	str	x27, [sp, #80]
/data3/home/yuanqiliang/code/arm-kernel/kernel/time/timer.c:959
	BUG_ON(!timer->function);
    2ac8:	d4210000 	brk	#0x800
/data3/home/yuanqiliang/code/arm-kernel/kernel/time/timer.c:1053
		enqueue_timer(base, timer, idx);
    2acc:	2a1903e2 	mov	w2, w25
    2ad0:	aa1303e1 	mov	x1, x19
    2ad4:	aa1403e0 	mov	x0, x20
    2ad8:	97fff67c 	bl	4c8 <enqueue_timer>
/data3/home/yuanqiliang/code/arm-kernel/kernel/time/timer.c:1054
		trigger_dyntick_cpu(base, timer);
    2adc:	aa1403e0 	mov	x0, x20
    2ae0:	91008262 	add	x2, x19, #0x20
    2ae4:	91004261 	add	x1, x19, #0x10
    2ae8:	97fffd60 	bl	2068 <trigger_dyntick_cpu.isra.3>
    2aec:	a9446bf9 	ldp	x25, x26, [sp, #64]
    2af0:	f9402bfb 	ldr	x27, [sp, #80]
    2af4:	17ffffa5 	b	2988 <timer_reduce+0x198>
__read_once_size():
/data3/home/yuanqiliang/code/arm-kernel/./include/linux/compiler.h:193
    2af8:	90000001 	adrp	x1, 0 <jiffies>
forward_timer_base():
/data3/home/yuanqiliang/code/arm-kernel/kernel/time/timer.c:895
	base->must_forward_clk = base->is_idle;
    2afc:	39409282 	ldrb	w2, [x20, #36]
/data3/home/yuanqiliang/code/arm-kernel/kernel/time/timer.c:896
	if ((long)(jnow - base->clk) < 2)
    2b00:	f9400a80 	ldr	x0, [x20, #16]
/data3/home/yuanqiliang/code/arm-kernel/kernel/time/timer.c:895
	base->must_forward_clk = base->is_idle;
    2b04:	39009682 	strb	w2, [x20, #37]
__read_once_size():
/data3/home/yuanqiliang/code/arm-kernel/./include/linux/compiler.h:193
    2b08:	f9400021 	ldr	x1, [x1]
forward_timer_base():
/data3/home/yuanqiliang/code/arm-kernel/kernel/time/timer.c:896
	if ((long)(jnow - base->clk) < 2)
    2b0c:	cb000020 	sub	x0, x1, x0
    2b10:	f100041f 	cmp	x0, #0x1
    2b14:	54fff20d 	b.le	2954 <timer_reduce+0x164>
/data3/home/yuanqiliang/code/arm-kernel/kernel/time/timer.c:903
	if (time_after(base->next_expiry, jnow))
    2b18:	f9400e80 	ldr	x0, [x20, #24]
    2b1c:	eb00003f 	cmp	x1, x0
    2b20:	54000564 	b.mi	2bcc <timer_reduce+0x3dc>  // b.first
/data3/home/yuanqiliang/code/arm-kernel/kernel/time/timer.c:906
		base->clk = base->next_expiry;
    2b24:	f9000a80 	str	x0, [x20, #16]
    2b28:	b940227b 	ldr	w27, [x19, #32]
    2b2c:	17ffff8b 	b	2958 <timer_reduce+0x168>
__mod_timer():
/data3/home/yuanqiliang/code/arm-kernel/kernel/time/timer.c:1006
				timer->expires = expires;
    2b30:	f9000a75 	str	x21, [x19, #16]
    2b34:	aa1603f8 	mov	x24, x22
/data3/home/yuanqiliang/code/arm-kernel/kernel/time/timer.c:1007
			ret = 1;
    2b38:	52800037 	mov	w23, #0x1                   	// #1
    2b3c:	a9446bf9 	ldp	x25, x26, [sp, #64]
    2b40:	17ffff92 	b	2988 <timer_reduce+0x198>
get_target_base():
/data3/home/yuanqiliang/code/arm-kernel/kernel/time/timer.c:876
		return get_timer_cpu_base(tflags, get_nohz_timer_target());
    2b44:	94000000 	bl	0 <get_nohz_timer_target>
get_timer_cpu_base():
/data3/home/yuanqiliang/code/arm-kernel/kernel/time/timer.c:841
	struct timer_base *base = per_cpu_ptr(&timer_bases[BASE_STD], cpu);
    2b48:	90000014 	adrp	x20, 0 <__round_jiffies>
    2b4c:	90000002 	adrp	x2, 0 <__per_cpu_offset>
    2b50:	91000042 	add	x2, x2, #0x0
    2b54:	91000294 	add	x20, x20, #0x0
    2b58:	aa1403e1 	mov	x1, x20
    2b5c:	f8605854 	ldr	x20, [x2, w0, uxtw #3]
/data3/home/yuanqiliang/code/arm-kernel/kernel/time/timer.c:847
	if (IS_ENABLED(CONFIG_NO_HZ_COMMON) && (tflags & TIMER_DEFERRABLE))
    2b60:	350002d8 	cbnz	w24, 2bb8 <timer_reduce+0x3c8>
/data3/home/yuanqiliang/code/arm-kernel/kernel/time/timer.c:841
	struct timer_base *base = per_cpu_ptr(&timer_bases[BASE_STD], cpu);
    2b64:	8b140034 	add	x20, x1, x20
    2b68:	b940227b 	ldr	w27, [x19, #32]
    2b6c:	17ffff5e 	b	28e4 <timer_reduce+0xf4>
__read_once_size():
/data3/home/yuanqiliang/code/arm-kernel/./include/linux/compiler.h:193
    2b70:	90000001 	adrp	x1, 0 <jiffies>
forward_timer_base():
/data3/home/yuanqiliang/code/arm-kernel/kernel/time/timer.c:895
	base->must_forward_clk = base->is_idle;
    2b74:	394092c2 	ldrb	w2, [x22, #36]
/data3/home/yuanqiliang/code/arm-kernel/kernel/time/timer.c:896
	if ((long)(jnow - base->clk) < 2)
    2b78:	f9400ac0 	ldr	x0, [x22, #16]
/data3/home/yuanqiliang/code/arm-kernel/kernel/time/timer.c:895
	base->must_forward_clk = base->is_idle;
    2b7c:	390096c2 	strb	w2, [x22, #37]
__read_once_size():
/data3/home/yuanqiliang/code/arm-kernel/./include/linux/compiler.h:193
    2b80:	f9400021 	ldr	x1, [x1]
forward_timer_base():
/data3/home/yuanqiliang/code/arm-kernel/kernel/time/timer.c:896
	if ((long)(jnow - base->clk) < 2)
    2b84:	cb000020 	sub	x0, x1, x0
    2b88:	f100041f 	cmp	x0, #0x1
    2b8c:	54ffe68d 	b.le	285c <timer_reduce+0x6c>
/data3/home/yuanqiliang/code/arm-kernel/kernel/time/timer.c:903
	if (time_after(base->next_expiry, jnow))
    2b90:	f9400ec0 	ldr	x0, [x22, #24]
/data3/home/yuanqiliang/code/arm-kernel/kernel/time/timer.c:904
		base->clk = jnow;
    2b94:	eb00003f 	cmp	x1, x0
    2b98:	9a815000 	csel	x0, x0, x1, pl  // pl = nfrst
    2b9c:	f9000ac0 	str	x0, [x22, #16]
    2ba0:	17ffff2f 	b	285c <timer_reduce+0x6c>
__mod_timer():
/data3/home/yuanqiliang/code/arm-kernel/kernel/time/timer.c:1029
		if (likely(base->running_timer != timer)) {
    2ba4:	aa1603f4 	mov	x20, x22
    2ba8:	17ffff6c 	b	2958 <timer_reduce+0x168>
queued_spin_lock():
/data3/home/yuanqiliang/code/arm-kernel/./include/asm-generic/qspinlock.h:88
	queued_spin_lock_slowpath(lock, val);
    2bac:	aa1403e0 	mov	x0, x20
    2bb0:	94000000 	bl	0 <queued_spin_lock_slowpath>
    2bb4:	17ffff61 	b	2938 <timer_reduce+0x148>
get_timer_cpu_base():
/data3/home/yuanqiliang/code/arm-kernel/kernel/time/timer.c:848
		base = per_cpu_ptr(&timer_bases[BASE_DEF], cpu);
    2bb8:	90000000 	adrp	x0, 0 <__round_jiffies>
    2bbc:	b940227b 	ldr	w27, [x19, #32]
    2bc0:	91000000 	add	x0, x0, #0x0
    2bc4:	8b000294 	add	x20, x20, x0
    2bc8:	17ffff47 	b	28e4 <timer_reduce+0xf4>
forward_timer_base():
/data3/home/yuanqiliang/code/arm-kernel/kernel/time/timer.c:904
		base->clk = jnow;
    2bcc:	f9000a81 	str	x1, [x20, #16]
    2bd0:	b940227b 	ldr	w27, [x19, #32]
    2bd4:	17ffff61 	b	2958 <timer_reduce+0x168>
    2bd8:	f9000ac1 	str	x1, [x22, #16]
    2bdc:	17ffff31 	b	28a0 <timer_reduce+0xb0>

0000000000002be0 <add_timer_on>:
add_timer_on():
/data3/home/yuanqiliang/code/arm-kernel/kernel/time/timer.c:1151
{
    2be0:	a9bb7bfd 	stp	x29, x30, [sp, #-80]!
    2be4:	910003fd 	mov	x29, sp
/data3/home/yuanqiliang/code/arm-kernel/kernel/time/timer.c:1155
	BUG_ON(timer_pending(timer) || !timer->function);
    2be8:	f9400402 	ldr	x2, [x0, #8]
    2bec:	b5000d22 	cbnz	x2, 2d90 <add_timer_on+0x1b0>
/data3/home/yuanqiliang/code/arm-kernel/kernel/time/timer.c:1155 (discriminator 2)
    2bf0:	f9400c02 	ldr	x2, [x0, #24]
    2bf4:	b4000ce2 	cbz	x2, 2d90 <add_timer_on+0x1b0>
get_timer_cpu_base():
/data3/home/yuanqiliang/code/arm-kernel/kernel/time/timer.c:841
	struct timer_base *base = per_cpu_ptr(&timer_bases[BASE_STD], cpu);
    2bf8:	90000003 	adrp	x3, 0 <__per_cpu_offset>
    2bfc:	91000063 	add	x3, x3, #0x0
    2c00:	a90153f3 	stp	x19, x20, [sp, #16]
    2c04:	90000002 	adrp	x2, 0 <__round_jiffies>
    2c08:	91000042 	add	x2, x2, #0x0
    2c0c:	a9025bf5 	stp	x21, x22, [sp, #32]
/data3/home/yuanqiliang/code/arm-kernel/kernel/time/timer.c:847
	if (IS_ENABLED(CONFIG_NO_HZ_COMMON) && (tflags & TIMER_DEFERRABLE))
    2c10:	b9402005 	ldr	w5, [x0, #32]
/data3/home/yuanqiliang/code/arm-kernel/kernel/time/timer.c:841
	struct timer_base *base = per_cpu_ptr(&timer_bases[BASE_STD], cpu);
    2c14:	f8615864 	ldr	x4, [x3, w1, uxtw #3]
    2c18:	8b040055 	add	x21, x2, x4
/data3/home/yuanqiliang/code/arm-kernel/kernel/time/timer.c:847
	if (IS_ENABLED(CONFIG_NO_HZ_COMMON) && (tflags & TIMER_DEFERRABLE))
    2c1c:	37980945 	tbnz	w5, #19, 2d44 <add_timer_on+0x164>
add_timer_on():
/data3/home/yuanqiliang/code/arm-kernel/kernel/time/timer.c:1164
	base = lock_timer_base(timer, &flags);
    2c20:	2a0103f4 	mov	w20, w1
    2c24:	aa0003f3 	mov	x19, x0
    2c28:	910123e1 	add	x1, sp, #0x48
    2c2c:	97fffb9f 	bl	1aa8 <lock_timer_base>
/data3/home/yuanqiliang/code/arm-kernel/kernel/time/timer.c:1165
	if (base != new_base) {
    2c30:	eb15001f 	cmp	x0, x21
    2c34:	54000260 	b.eq	2c80 <add_timer_on+0xa0>  // b.none
/data3/home/yuanqiliang/code/arm-kernel/kernel/time/timer.c:1166
		timer->flags |= TIMER_MIGRATING;
    2c38:	b9402261 	ldr	w1, [x19, #32]
queued_spin_unlock():
/data3/home/yuanqiliang/code/arm-kernel/./include/asm-generic/qspinlock.h:101
	smp_store_release(&lock->locked, 0);
    2c3c:	52800002 	mov	w2, #0x0                   	// #0
add_timer_on():
/data3/home/yuanqiliang/code/arm-kernel/kernel/time/timer.c:1166
    2c40:	320e0021 	orr	w1, w1, #0x40000
    2c44:	b9002261 	str	w1, [x19, #32]
queued_spin_unlock():
/data3/home/yuanqiliang/code/arm-kernel/./include/asm-generic/qspinlock.h:101
    2c48:	089ffc02 	stlrb	w2, [x0]
__cmpxchg_case_acq_4():
/data3/home/yuanqiliang/code/arm-kernel/./arch/arm64/include/asm/atomic_ll_sc.h:272
    2c4c:	d2800000 	mov	x0, #0x0                   	// #0
    2c50:	d2800022 	mov	x2, #0x1                   	// #1
    2c54:	f98002b1 	prfm	pstl1strm, [x21]
    2c58:	885ffea1 	ldaxr	w1, [x21]
    2c5c:	4a000023 	eor	w3, w1, w0
    2c60:	35000063 	cbnz	w3, 2c6c <add_timer_on+0x8c>
    2c64:	88037ea2 	stxr	w3, w2, [x21]
    2c68:	35ffff83 	cbnz	w3, 2c58 <add_timer_on+0x78>
queued_spin_lock():
/data3/home/yuanqiliang/code/arm-kernel/./include/asm-generic/qspinlock.h:86
	if (likely(val == 0))
    2c6c:	350009a1 	cbnz	w1, 2da0 <add_timer_on+0x1c0>
add_timer_on():
/data3/home/yuanqiliang/code/arm-kernel/kernel/time/timer.c:1171
		WRITE_ONCE(timer->flags,
    2c70:	b9402260 	ldr	w0, [x19, #32]
    2c74:	120d3000 	and	w0, w0, #0xfff80000
    2c78:	2a140001 	orr	w1, w0, w20
__write_once_size():
